(dp1
S'output'
p2
S"<type 'exceptions.SyntaxError'> 'return' outside function (default.py, line 11)"
p3
sS'layer'
p4
S'/Users/Karl/code/web2py/applications/newsFeed/controllers/default.py'
p5
sS'code'
p6
S"def index():\n    images = db().select(db.image.ALL, orderby=db.image.title)\n    return dict(images=images)\ndef show():\n    image = db(db.image.id==request.args(0)).select().first()\n    db.comment.image_id.default = image.id\nform = SQLFORM(db.comment)\nif form.process().accepted:\n    response.flash = 'your comment is posted'\ncomments = db(db.comment.image_id==image.id).select()\nreturn dict(image=image, comments=comments, form=form)\ndef download():\n    return response.download(request, db)\nresponse._vars=response._caller(index)\n"
p7
sS'snapshot'
p8
(dp9
S'exception'
p10
(dp11
S'__getslice__'
p12
S"<method-wrapper '__getslice__' of exceptions.SyntaxError object>"
p13
sS'text'
p14
S"'return dict(image=image, comments=comments, form=form)\\n'"
p15
sS'__str__'
p16
S"<method-wrapper '__str__' of exceptions.SyntaxError object>"
p17
sS'__reduce__'
p18
S'<built-in method __reduce__ of exceptions.SyntaxError object>'
p19
sS'__dict__'
p20
S'{}'
p21
sS'__sizeof__'
p22
S'<built-in method __sizeof__ of exceptions.SyntaxError object>'
p23
sS'__init__'
p24
S"<method-wrapper '__init__' of exceptions.SyntaxError object>"
p25
sS'__setattr__'
p26
S"<method-wrapper '__setattr__' of exceptions.SyntaxError object>"
p27
sS'__reduce_ex__'
p28
S'<built-in method __reduce_ex__ of exceptions.SyntaxError object>'
p29
sS'__new__'
p30
S'<built-in method __new__ of type object>'
p31
sS'__format__'
p32
S'<built-in method __format__ of exceptions.SyntaxError object>'
p33
sS'__class__'
p34
S"<type 'exceptions.SyntaxError'>"
p35
sS'filename'
p36
S"'/Users/Karl/code/web2py/applications/newsFeed/controllers/default.py'"
p37
sS'lineno'
p38
S'11'
p39
sS'msg'
p40
S'"\'return\' outside function"'
p41
sS'__doc__'
p42
S"'Invalid syntax.'"
p43
sS'__getitem__'
p44
S"<method-wrapper '__getitem__' of exceptions.SyntaxError object>"
p45
sS'__setstate__'
p46
S'<built-in method __setstate__ of exceptions.SyntaxError object>'
p47
sS'__getattribute__'
p48
S"<method-wrapper '__getattribute__' of exceptions.SyntaxError object>"
p49
sS'print_file_and_line'
p50
S'None'
p51
sS'args'
p52
S'("\'return\' outside function", (\'/Users/Karl/code/web2py/applications/newsFeed/controllers/default.py\', 11, None, \'return dict(image=image, comments=comments, form=form)\\n\'))'
p53
sS'__subclasshook__'
p54
S'<built-in method __subclasshook__ of type object>'
p55
sS'offset'
p56
S'None'
p57
sS'__unicode__'
p58
S'<built-in method __unicode__ of exceptions.SyntaxError object>'
p59
sS'__delattr__'
p60
S"<method-wrapper '__delattr__' of exceptions.SyntaxError object>"
p61
sS'__repr__'
p62
S"<method-wrapper '__repr__' of exceptions.SyntaxError object>"
p63
sS'__hash__'
p64
S"<method-wrapper '__hash__' of exceptions.SyntaxError object>"
p65
ssS'evalue'
p66
S"'return' outside function (default.py, line 11)"
p67
sS'request'
p68
ccopy_reg
_reconstructor
p69
(cgluon.html
BEAUTIFY
p70
c__builtin__
object
p71
NtRp72
(dp73
S'attributes'
p74
(dp75
sS'components'
p76
(lp77
g69
(cgluon.html
TABLE
p78
g71
NtRp79
(dp80
g74
(dp81
S'level'
p82
I5
ssS'parent'
p83
Nsg76
(lp84
g69
(cgluon.html
TR
p85
g71
NtRp86
(dp87
g74
(dp88
sg83
g79
sg76
(lp89
g69
(cgluon.html
TD
p90
g71
NtRp91
(dp92
g74
(dp93
S'_style'
p94
S'font-weight:bold;vertical-align:top'
p95
ssg83
g86
sg76
(lp96
S'ajax'
p97
asbag69
(g90
g71
NtRp98
(dp99
g74
(dp100
S'_valign'
p101
S'top'
p102
ssg83
g86
sg76
(lp103
S':'
asbag69
(g90
g71
NtRp104
(dp105
g74
(dp106
sg83
g86
sg76
(lp107
g69
(g70
g71
NtRp108
(dp109
g74
(dp110
g82
I5
ssg83
g104
sg76
(lp111
S'False'
p112
asbasbasbag69
(g85
g71
NtRp113
(dp114
g74
(dp115
sg83
g79
sg76
(lp116
g69
(g90
g71
NtRp117
(dp118
g74
(dp119
g94
g95
ssg83
g113
sg76
(lp120
S'application'
p121
asbag69
(g90
g71
NtRp122
(dp123
g74
(dp124
g101
g102
ssg83
g113
sg76
(lp125
S':'
asbag69
(g90
g71
NtRp126
(dp127
g74
(dp128
sg83
g113
sg76
(lp129
g69
(g70
g71
NtRp130
(dp131
g74
(dp132
g82
I5
ssg83
g126
sg76
(lp133
S'newsFeed'
p134
asbasbasbag69
(g85
g71
NtRp135
(dp136
g74
(dp137
sg83
g79
sg76
(lp138
g69
(g90
g71
NtRp139
(dp140
g74
(dp141
g94
g95
ssg83
g135
sg76
(lp142
g52
asbag69
(g90
g71
NtRp143
(dp144
g74
(dp145
g101
g102
ssg83
g135
sg76
(lp146
S':'
asbag69
(g90
g71
NtRp147
(dp148
g74
(dp149
sg83
g135
sg76
(lp150
g69
(g70
g71
NtRp151
(dp152
g74
(dp153
g82
I5
ssg83
g147
sg76
(lp154
g69
(g78
g71
NtRp155
(dp156
g74
(dp157
g82
I4
ssg83
Nsg76
(lp158
sbasbasbasbag69
(g85
g71
NtRp159
(dp160
g74
(dp161
sg83
g79
sg76
(lp162
g69
(g90
g71
NtRp163
(dp164
g74
(dp165
g94
g95
ssg83
g159
sg76
(lp166
S'body'
p167
asbag69
(g90
g71
NtRp168
(dp169
g74
(dp170
g101
g102
ssg83
g159
sg76
(lp171
S':'
asbag69
(g90
g71
NtRp172
(dp173
g74
(dp174
sg83
g159
sg76
(lp175
g69
(g70
g71
NtRp176
(dp177
g74
(dp178
g82
I5
ssg83
g172
sg76
(lp179
S'<cStringIO.StringO object at 0x10890e180>'
p180
asbasbasbag69
(g85
g71
NtRp181
(dp182
g74
(dp183
sg83
g79
sg76
(lp184
g69
(g90
g71
NtRp185
(dp186
g74
(dp187
g94
g95
ssg83
g181
sg76
(lp188
S'cid'
p189
asbag69
(g90
g71
NtRp190
(dp191
g74
(dp192
g101
g102
ssg83
g181
sg76
(lp193
S':'
asbag69
(g90
g71
NtRp194
(dp195
g74
(dp196
sg83
g181
sg76
(lp197
g69
(g70
g71
NtRp198
(dp199
g74
(dp200
g82
I5
ssg83
g194
sg76
(lp201
S'None'
p202
asbasbasbag69
(g85
g71
NtRp203
(dp204
g74
(dp205
sg83
g79
sg76
(lp206
g69
(g90
g71
NtRp207
(dp208
g74
(dp209
g94
g95
ssg83
g203
sg76
(lp210
S'client'
p211
asbag69
(g90
g71
NtRp212
(dp213
g74
(dp214
g101
g102
ssg83
g203
sg76
(lp215
S':'
asbag69
(g90
g71
NtRp216
(dp217
g74
(dp218
sg83
g203
sg76
(lp219
g69
(g70
g71
NtRp220
(dp221
g74
(dp222
g82
I5
ssg83
g216
sg76
(lp223
S'127.0.0.1'
p224
asbasbasbag69
(g85
g71
NtRp225
(dp226
g74
(dp227
sg83
g79
sg76
(lp228
g69
(g90
g71
NtRp229
(dp230
g74
(dp231
g94
g95
ssg83
g225
sg76
(lp232
S'controller'
p233
asbag69
(g90
g71
NtRp234
(dp235
g74
(dp236
g101
g102
ssg83
g225
sg76
(lp237
S':'
asbag69
(g90
g71
NtRp238
(dp239
g74
(dp240
sg83
g225
sg76
(lp241
g69
(g70
g71
NtRp242
(dp243
g74
(dp244
g82
I5
ssg83
g238
sg76
(lp245
S'default'
p246
asbasbasbag69
(g85
g71
NtRp247
(dp248
g74
(dp249
sg83
g79
sg76
(lp250
g69
(g90
g71
NtRp251
(dp252
g74
(dp253
g94
g95
ssg83
g247
sg76
(lp254
S'cookies'
p255
asbag69
(g90
g71
NtRp256
(dp257
g74
(dp258
g101
g102
ssg83
g247
sg76
(lp259
S':'
asbag69
(g90
g71
NtRp260
(dp261
g74
(dp262
sg83
g247
sg76
(lp263
g69
(g70
g71
NtRp264
(dp265
g74
(dp266
g82
I5
ssg83
g260
sg76
(lp267
g69
(g78
g71
NtRp268
(dp269
g74
(dp270
g82
I4
ssg83
Nsg76
(lp271
g69
(g85
g71
NtRp272
(dp273
g74
(dp274
sg83
g268
sg76
(lp275
g69
(g90
g71
NtRp276
(dp277
g74
(dp278
g94
g95
ssg83
g272
sg76
(lp279
S'session_id_admin'
p280
asbag69
(g90
g71
NtRp281
(dp282
g74
(dp283
g101
g102
ssg83
g272
sg76
(lp284
S':'
asbag69
(g90
g71
NtRp285
(dp286
g74
(dp287
sg83
g272
sg76
(lp288
g69
(g70
g71
NtRp289
(dp290
g74
(dp291
g82
I4
ssg83
g285
sg76
(lp292
S'127.0.0.1-7bf5236b-8ca1-4e3e-a316-0858e3e6db30'
p293
ag69
(g78
g71
NtRp294
(dp295
g74
(dp296
g82
I3
ssg83
Nsg76
(lp297
g69
(g85
g71
NtRp298
(dp299
g74
(dp300
sg83
g294
sg76
(lp301
g69
(g90
g71
NtRp302
(dp303
g74
(dp304
g94
g95
ssg83
g298
sg76
(lp305
S'comment'
p306
asbag69
(g90
g71
NtRp307
(dp308
g74
(dp309
g101
g102
ssg83
g298
sg76
(lp310
S':'
asbag69
(g90
g71
NtRp311
(dp312
g74
(dp313
sg83
g298
sg76
(lp314
g69
(g70
g71
NtRp315
(dp316
g74
(dp317
g82
I3
ssg83
g311
sg76
(lp318
S''
asbasbasbag69
(g85
g71
NtRp319
(dp320
g74
(dp321
sg83
g294
sg76
(lp322
g69
(g90
g71
NtRp323
(dp324
g74
(dp325
g94
g95
ssg83
g319
sg76
(lp326
S'domain'
p327
asbag69
(g90
g71
NtRp328
(dp329
g74
(dp330
g101
g102
ssg83
g319
sg76
(lp331
S':'
asbag69
(g90
g71
NtRp332
(dp333
g74
(dp334
sg83
g319
sg76
(lp335
g69
(g70
g71
NtRp336
(dp337
g74
(dp338
g82
I3
ssg83
g332
sg76
(lp339
S''
asbasbasbag69
(g85
g71
NtRp340
(dp341
g74
(dp342
sg83
g294
sg76
(lp343
g69
(g90
g71
NtRp344
(dp345
g74
(dp346
g94
g95
ssg83
g340
sg76
(lp347
S'expires'
p348
asbag69
(g90
g71
NtRp349
(dp350
g74
(dp351
g101
g102
ssg83
g340
sg76
(lp352
S':'
asbag69
(g90
g71
NtRp353
(dp354
g74
(dp355
sg83
g340
sg76
(lp356
g69
(g70
g71
NtRp357
(dp358
g74
(dp359
g82
I3
ssg83
g353
sg76
(lp360
S''
asbasbasbag69
(g85
g71
NtRp361
(dp362
g74
(dp363
sg83
g294
sg76
(lp364
g69
(g90
g71
NtRp365
(dp366
g74
(dp367
g94
g95
ssg83
g361
sg76
(lp368
S'httponly'
p369
asbag69
(g90
g71
NtRp370
(dp371
g74
(dp372
g101
g102
ssg83
g361
sg76
(lp373
S':'
asbag69
(g90
g71
NtRp374
(dp375
g74
(dp376
sg83
g361
sg76
(lp377
g69
(g70
g71
NtRp378
(dp379
g74
(dp380
g82
I3
ssg83
g374
sg76
(lp381
S''
asbasbasbag69
(g85
g71
NtRp382
(dp383
g74
(dp384
sg83
g294
sg76
(lp385
g69
(g90
g71
NtRp386
(dp387
g74
(dp388
g94
g95
ssg83
g382
sg76
(lp389
S'max-age'
p390
asbag69
(g90
g71
NtRp391
(dp392
g74
(dp393
g101
g102
ssg83
g382
sg76
(lp394
S':'
asbag69
(g90
g71
NtRp395
(dp396
g74
(dp397
sg83
g382
sg76
(lp398
g69
(g70
g71
NtRp399
(dp400
g74
(dp401
g82
I3
ssg83
g395
sg76
(lp402
S''
asbasbasbag69
(g85
g71
NtRp403
(dp404
g74
(dp405
sg83
g294
sg76
(lp406
g69
(g90
g71
NtRp407
(dp408
g74
(dp409
g94
g95
ssg83
g403
sg76
(lp410
S'path'
p411
asbag69
(g90
g71
NtRp412
(dp413
g74
(dp414
g101
g102
ssg83
g403
sg76
(lp415
S':'
asbag69
(g90
g71
NtRp416
(dp417
g74
(dp418
sg83
g403
sg76
(lp419
g69
(g70
g71
NtRp420
(dp421
g74
(dp422
g82
I3
ssg83
g416
sg76
(lp423
S''
asbasbasbag69
(g85
g71
NtRp424
(dp425
g74
(dp426
sg83
g294
sg76
(lp427
g69
(g90
g71
NtRp428
(dp429
g74
(dp430
g94
g95
ssg83
g424
sg76
(lp431
S'secure'
p432
asbag69
(g90
g71
NtRp433
(dp434
g74
(dp435
g101
g102
ssg83
g424
sg76
(lp436
S':'
asbag69
(g90
g71
NtRp437
(dp438
g74
(dp439
sg83
g424
sg76
(lp440
g69
(g70
g71
NtRp441
(dp442
g74
(dp443
g82
I3
ssg83
g437
sg76
(lp444
S''
asbasbasbag69
(g85
g71
NtRp445
(dp446
g74
(dp447
sg83
g294
sg76
(lp448
g69
(g90
g71
NtRp449
(dp450
g74
(dp451
g94
g95
ssg83
g445
sg76
(lp452
S'version'
p453
asbag69
(g90
g71
NtRp454
(dp455
g74
(dp456
g101
g102
ssg83
g445
sg76
(lp457
S':'
asbag69
(g90
g71
NtRp458
(dp459
g74
(dp460
sg83
g445
sg76
(lp461
g69
(g70
g71
NtRp462
(dp463
g74
(dp464
g82
I3
ssg83
g458
sg76
(lp465
S''
asbasbasbasbasbasbasbag69
(g85
g71
NtRp466
(dp467
g74
(dp468
sg83
g268
sg76
(lp469
g69
(g90
g71
NtRp470
(dp471
g74
(dp472
g94
g95
ssg83
g466
sg76
(lp473
S'session_id_newsfeed'
p474
asbag69
(g90
g71
NtRp475
(dp476
g74
(dp477
g101
g102
ssg83
g466
sg76
(lp478
S':'
asbag69
(g90
g71
NtRp479
(dp480
g74
(dp481
sg83
g466
sg76
(lp482
g69
(g70
g71
NtRp483
(dp484
g74
(dp485
g82
I4
ssg83
g479
sg76
(lp486
S'127.0.0.1-cf681d17-4d34-47c3-b25e-cb18b12cf401'
p487
ag69
(g78
g71
NtRp488
(dp489
g74
(dp490
g82
I3
ssg83
Nsg76
(lp491
g69
(g85
g71
NtRp492
(dp493
g74
(dp494
sg83
g488
sg76
(lp495
g69
(g90
g71
NtRp496
(dp497
g74
(dp498
g94
g95
ssg83
g492
sg76
(lp499
g306
asbag69
(g90
g71
NtRp500
(dp501
g74
(dp502
g101
g102
ssg83
g492
sg76
(lp503
S':'
asbag69
(g90
g71
NtRp504
(dp505
g74
(dp506
sg83
g492
sg76
(lp507
g69
(g70
g71
NtRp508
(dp509
g74
(dp510
g82
I3
ssg83
g504
sg76
(lp511
S''
asbasbasbag69
(g85
g71
NtRp512
(dp513
g74
(dp514
sg83
g488
sg76
(lp515
g69
(g90
g71
NtRp516
(dp517
g74
(dp518
g94
g95
ssg83
g512
sg76
(lp519
g327
asbag69
(g90
g71
NtRp520
(dp521
g74
(dp522
g101
g102
ssg83
g512
sg76
(lp523
S':'
asbag69
(g90
g71
NtRp524
(dp525
g74
(dp526
sg83
g512
sg76
(lp527
g69
(g70
g71
NtRp528
(dp529
g74
(dp530
g82
I3
ssg83
g524
sg76
(lp531
S''
asbasbasbag69
(g85
g71
NtRp532
(dp533
g74
(dp534
sg83
g488
sg76
(lp535
g69
(g90
g71
NtRp536
(dp537
g74
(dp538
g94
g95
ssg83
g532
sg76
(lp539
g348
asbag69
(g90
g71
NtRp540
(dp541
g74
(dp542
g101
g102
ssg83
g532
sg76
(lp543
S':'
asbag69
(g90
g71
NtRp544
(dp545
g74
(dp546
sg83
g532
sg76
(lp547
g69
(g70
g71
NtRp548
(dp549
g74
(dp550
g82
I3
ssg83
g544
sg76
(lp551
S''
asbasbasbag69
(g85
g71
NtRp552
(dp553
g74
(dp554
sg83
g488
sg76
(lp555
g69
(g90
g71
NtRp556
(dp557
g74
(dp558
g94
g95
ssg83
g552
sg76
(lp559
g369
asbag69
(g90
g71
NtRp560
(dp561
g74
(dp562
g101
g102
ssg83
g552
sg76
(lp563
S':'
asbag69
(g90
g71
NtRp564
(dp565
g74
(dp566
sg83
g552
sg76
(lp567
g69
(g70
g71
NtRp568
(dp569
g74
(dp570
g82
I3
ssg83
g564
sg76
(lp571
S''
asbasbasbag69
(g85
g71
NtRp572
(dp573
g74
(dp574
sg83
g488
sg76
(lp575
g69
(g90
g71
NtRp576
(dp577
g74
(dp578
g94
g95
ssg83
g572
sg76
(lp579
g390
asbag69
(g90
g71
NtRp580
(dp581
g74
(dp582
g101
g102
ssg83
g572
sg76
(lp583
S':'
asbag69
(g90
g71
NtRp584
(dp585
g74
(dp586
sg83
g572
sg76
(lp587
g69
(g70
g71
NtRp588
(dp589
g74
(dp590
g82
I3
ssg83
g584
sg76
(lp591
S''
asbasbasbag69
(g85
g71
NtRp592
(dp593
g74
(dp594
sg83
g488
sg76
(lp595
g69
(g90
g71
NtRp596
(dp597
g74
(dp598
g94
g95
ssg83
g592
sg76
(lp599
g411
asbag69
(g90
g71
NtRp600
(dp601
g74
(dp602
g101
g102
ssg83
g592
sg76
(lp603
S':'
asbag69
(g90
g71
NtRp604
(dp605
g74
(dp606
sg83
g592
sg76
(lp607
g69
(g70
g71
NtRp608
(dp609
g74
(dp610
g82
I3
ssg83
g604
sg76
(lp611
S''
asbasbasbag69
(g85
g71
NtRp612
(dp613
g74
(dp614
sg83
g488
sg76
(lp615
g69
(g90
g71
NtRp616
(dp617
g74
(dp618
g94
g95
ssg83
g612
sg76
(lp619
g432
asbag69
(g90
g71
NtRp620
(dp621
g74
(dp622
g101
g102
ssg83
g612
sg76
(lp623
S':'
asbag69
(g90
g71
NtRp624
(dp625
g74
(dp626
sg83
g612
sg76
(lp627
g69
(g70
g71
NtRp628
(dp629
g74
(dp630
g82
I3
ssg83
g624
sg76
(lp631
S''
asbasbasbag69
(g85
g71
NtRp632
(dp633
g74
(dp634
sg83
g488
sg76
(lp635
g69
(g90
g71
NtRp636
(dp637
g74
(dp638
g94
g95
ssg83
g632
sg76
(lp639
g453
asbag69
(g90
g71
NtRp640
(dp641
g74
(dp642
g101
g102
ssg83
g632
sg76
(lp643
S':'
asbag69
(g90
g71
NtRp644
(dp645
g74
(dp646
sg83
g632
sg76
(lp647
g69
(g70
g71
NtRp648
(dp649
g74
(dp650
g82
I3
ssg83
g644
sg76
(lp651
S''
asbasbasbasbasbasbasbag69
(g85
g71
NtRp652
(dp653
g74
(dp654
sg83
g268
sg76
(lp655
g69
(g90
g71
NtRp656
(dp657
g74
(dp658
g94
g95
ssg83
g652
sg76
(lp659
S'session_id_textentries'
p660
asbag69
(g90
g71
NtRp661
(dp662
g74
(dp663
g101
g102
ssg83
g652
sg76
(lp664
S':'
asbag69
(g90
g71
NtRp665
(dp666
g74
(dp667
sg83
g652
sg76
(lp668
g69
(g70
g71
NtRp669
(dp670
g74
(dp671
g82
I4
ssg83
g665
sg76
(lp672
S'127.0.0.1-74aec935-c7d0-4514-a6ce-84e446edd182'
p673
ag69
(g78
g71
NtRp674
(dp675
g74
(dp676
g82
I3
ssg83
Nsg76
(lp677
g69
(g85
g71
NtRp678
(dp679
g74
(dp680
sg83
g674
sg76
(lp681
g69
(g90
g71
NtRp682
(dp683
g74
(dp684
g94
g95
ssg83
g678
sg76
(lp685
g306
asbag69
(g90
g71
NtRp686
(dp687
g74
(dp688
g101
g102
ssg83
g678
sg76
(lp689
S':'
asbag69
(g90
g71
NtRp690
(dp691
g74
(dp692
sg83
g678
sg76
(lp693
g69
(g70
g71
NtRp694
(dp695
g74
(dp696
g82
I3
ssg83
g690
sg76
(lp697
S''
asbasbasbag69
(g85
g71
NtRp698
(dp699
g74
(dp700
sg83
g674
sg76
(lp701
g69
(g90
g71
NtRp702
(dp703
g74
(dp704
g94
g95
ssg83
g698
sg76
(lp705
g327
asbag69
(g90
g71
NtRp706
(dp707
g74
(dp708
g101
g102
ssg83
g698
sg76
(lp709
S':'
asbag69
(g90
g71
NtRp710
(dp711
g74
(dp712
sg83
g698
sg76
(lp713
g69
(g70
g71
NtRp714
(dp715
g74
(dp716
g82
I3
ssg83
g710
sg76
(lp717
S''
asbasbasbag69
(g85
g71
NtRp718
(dp719
g74
(dp720
sg83
g674
sg76
(lp721
g69
(g90
g71
NtRp722
(dp723
g74
(dp724
g94
g95
ssg83
g718
sg76
(lp725
g348
asbag69
(g90
g71
NtRp726
(dp727
g74
(dp728
g101
g102
ssg83
g718
sg76
(lp729
S':'
asbag69
(g90
g71
NtRp730
(dp731
g74
(dp732
sg83
g718
sg76
(lp733
g69
(g70
g71
NtRp734
(dp735
g74
(dp736
g82
I3
ssg83
g730
sg76
(lp737
S''
asbasbasbag69
(g85
g71
NtRp738
(dp739
g74
(dp740
sg83
g674
sg76
(lp741
g69
(g90
g71
NtRp742
(dp743
g74
(dp744
g94
g95
ssg83
g738
sg76
(lp745
g369
asbag69
(g90
g71
NtRp746
(dp747
g74
(dp748
g101
g102
ssg83
g738
sg76
(lp749
S':'
asbag69
(g90
g71
NtRp750
(dp751
g74
(dp752
sg83
g738
sg76
(lp753
g69
(g70
g71
NtRp754
(dp755
g74
(dp756
g82
I3
ssg83
g750
sg76
(lp757
S''
asbasbasbag69
(g85
g71
NtRp758
(dp759
g74
(dp760
sg83
g674
sg76
(lp761
g69
(g90
g71
NtRp762
(dp763
g74
(dp764
g94
g95
ssg83
g758
sg76
(lp765
g390
asbag69
(g90
g71
NtRp766
(dp767
g74
(dp768
g101
g102
ssg83
g758
sg76
(lp769
S':'
asbag69
(g90
g71
NtRp770
(dp771
g74
(dp772
sg83
g758
sg76
(lp773
g69
(g70
g71
NtRp774
(dp775
g74
(dp776
g82
I3
ssg83
g770
sg76
(lp777
S''
asbasbasbag69
(g85
g71
NtRp778
(dp779
g74
(dp780
sg83
g674
sg76
(lp781
g69
(g90
g71
NtRp782
(dp783
g74
(dp784
g94
g95
ssg83
g778
sg76
(lp785
g411
asbag69
(g90
g71
NtRp786
(dp787
g74
(dp788
g101
g102
ssg83
g778
sg76
(lp789
S':'
asbag69
(g90
g71
NtRp790
(dp791
g74
(dp792
sg83
g778
sg76
(lp793
g69
(g70
g71
NtRp794
(dp795
g74
(dp796
g82
I3
ssg83
g790
sg76
(lp797
S''
asbasbasbag69
(g85
g71
NtRp798
(dp799
g74
(dp800
sg83
g674
sg76
(lp801
g69
(g90
g71
NtRp802
(dp803
g74
(dp804
g94
g95
ssg83
g798
sg76
(lp805
g432
asbag69
(g90
g71
NtRp806
(dp807
g74
(dp808
g101
g102
ssg83
g798
sg76
(lp809
S':'
asbag69
(g90
g71
NtRp810
(dp811
g74
(dp812
sg83
g798
sg76
(lp813
g69
(g70
g71
NtRp814
(dp815
g74
(dp816
g82
I3
ssg83
g810
sg76
(lp817
S''
asbasbasbag69
(g85
g71
NtRp818
(dp819
g74
(dp820
sg83
g674
sg76
(lp821
g69
(g90
g71
NtRp822
(dp823
g74
(dp824
g94
g95
ssg83
g818
sg76
(lp825
g453
asbag69
(g90
g71
NtRp826
(dp827
g74
(dp828
g101
g102
ssg83
g818
sg76
(lp829
S':'
asbag69
(g90
g71
NtRp830
(dp831
g74
(dp832
sg83
g818
sg76
(lp833
g69
(g70
g71
NtRp834
(dp835
g74
(dp836
g82
I3
ssg83
g830
sg76
(lp837
S''
asbasbasbasbasbasbasbag69
(g85
g71
NtRp838
(dp839
g74
(dp840
sg83
g268
sg76
(lp841
g69
(g90
g71
NtRp842
(dp843
g74
(dp844
g94
g95
ssg83
g838
sg76
(lp845
S'session_id_welcome'
p846
asbag69
(g90
g71
NtRp847
(dp848
g74
(dp849
g101
g102
ssg83
g838
sg76
(lp850
S':'
asbag69
(g90
g71
NtRp851
(dp852
g74
(dp853
sg83
g838
sg76
(lp854
g69
(g70
g71
NtRp855
(dp856
g74
(dp857
g82
I4
ssg83
g851
sg76
(lp858
S'127.0.0.1-c9d00889-6dea-42d9-8854-eed4cc7ca179'
p859
ag69
(g78
g71
NtRp860
(dp861
g74
(dp862
g82
I3
ssg83
Nsg76
(lp863
g69
(g85
g71
NtRp864
(dp865
g74
(dp866
sg83
g860
sg76
(lp867
g69
(g90
g71
NtRp868
(dp869
g74
(dp870
g94
g95
ssg83
g864
sg76
(lp871
g306
asbag69
(g90
g71
NtRp872
(dp873
g74
(dp874
g101
g102
ssg83
g864
sg76
(lp875
S':'
asbag69
(g90
g71
NtRp876
(dp877
g74
(dp878
sg83
g864
sg76
(lp879
g69
(g70
g71
NtRp880
(dp881
g74
(dp882
g82
I3
ssg83
g876
sg76
(lp883
S''
asbasbasbag69
(g85
g71
NtRp884
(dp885
g74
(dp886
sg83
g860
sg76
(lp887
g69
(g90
g71
NtRp888
(dp889
g74
(dp890
g94
g95
ssg83
g884
sg76
(lp891
g327
asbag69
(g90
g71
NtRp892
(dp893
g74
(dp894
g101
g102
ssg83
g884
sg76
(lp895
S':'
asbag69
(g90
g71
NtRp896
(dp897
g74
(dp898
sg83
g884
sg76
(lp899
g69
(g70
g71
NtRp900
(dp901
g74
(dp902
g82
I3
ssg83
g896
sg76
(lp903
S''
asbasbasbag69
(g85
g71
NtRp904
(dp905
g74
(dp906
sg83
g860
sg76
(lp907
g69
(g90
g71
NtRp908
(dp909
g74
(dp910
g94
g95
ssg83
g904
sg76
(lp911
g348
asbag69
(g90
g71
NtRp912
(dp913
g74
(dp914
g101
g102
ssg83
g904
sg76
(lp915
S':'
asbag69
(g90
g71
NtRp916
(dp917
g74
(dp918
sg83
g904
sg76
(lp919
g69
(g70
g71
NtRp920
(dp921
g74
(dp922
g82
I3
ssg83
g916
sg76
(lp923
S''
asbasbasbag69
(g85
g71
NtRp924
(dp925
g74
(dp926
sg83
g860
sg76
(lp927
g69
(g90
g71
NtRp928
(dp929
g74
(dp930
g94
g95
ssg83
g924
sg76
(lp931
g369
asbag69
(g90
g71
NtRp932
(dp933
g74
(dp934
g101
g102
ssg83
g924
sg76
(lp935
S':'
asbag69
(g90
g71
NtRp936
(dp937
g74
(dp938
sg83
g924
sg76
(lp939
g69
(g70
g71
NtRp940
(dp941
g74
(dp942
g82
I3
ssg83
g936
sg76
(lp943
S''
asbasbasbag69
(g85
g71
NtRp944
(dp945
g74
(dp946
sg83
g860
sg76
(lp947
g69
(g90
g71
NtRp948
(dp949
g74
(dp950
g94
g95
ssg83
g944
sg76
(lp951
g390
asbag69
(g90
g71
NtRp952
(dp953
g74
(dp954
g101
g102
ssg83
g944
sg76
(lp955
S':'
asbag69
(g90
g71
NtRp956
(dp957
g74
(dp958
sg83
g944
sg76
(lp959
g69
(g70
g71
NtRp960
(dp961
g74
(dp962
g82
I3
ssg83
g956
sg76
(lp963
S''
asbasbasbag69
(g85
g71
NtRp964
(dp965
g74
(dp966
sg83
g860
sg76
(lp967
g69
(g90
g71
NtRp968
(dp969
g74
(dp970
g94
g95
ssg83
g964
sg76
(lp971
g411
asbag69
(g90
g71
NtRp972
(dp973
g74
(dp974
g101
g102
ssg83
g964
sg76
(lp975
S':'
asbag69
(g90
g71
NtRp976
(dp977
g74
(dp978
sg83
g964
sg76
(lp979
g69
(g70
g71
NtRp980
(dp981
g74
(dp982
g82
I3
ssg83
g976
sg76
(lp983
S''
asbasbasbag69
(g85
g71
NtRp984
(dp985
g74
(dp986
sg83
g860
sg76
(lp987
g69
(g90
g71
NtRp988
(dp989
g74
(dp990
g94
g95
ssg83
g984
sg76
(lp991
g432
asbag69
(g90
g71
NtRp992
(dp993
g74
(dp994
g101
g102
ssg83
g984
sg76
(lp995
S':'
asbag69
(g90
g71
NtRp996
(dp997
g74
(dp998
sg83
g984
sg76
(lp999
g69
(g70
g71
NtRp1000
(dp1001
g74
(dp1002
g82
I3
ssg83
g996
sg76
(lp1003
S''
asbasbasbag69
(g85
g71
NtRp1004
(dp1005
g74
(dp1006
sg83
g860
sg76
(lp1007
g69
(g90
g71
NtRp1008
(dp1009
g74
(dp1010
g94
g95
ssg83
g1004
sg76
(lp1011
g453
asbag69
(g90
g71
NtRp1012
(dp1013
g74
(dp1014
g101
g102
ssg83
g1004
sg76
(lp1015
S':'
asbag69
(g90
g71
NtRp1016
(dp1017
g74
(dp1018
sg83
g1004
sg76
(lp1019
g69
(g70
g71
NtRp1020
(dp1021
g74
(dp1022
g82
I3
ssg83
g1016
sg76
(lp1023
S''
asbasbasbasbasbasbasbasbasbasbasbag69
(g85
g71
NtRp1024
(dp1025
g74
(dp1026
sg83
g79
sg76
(lp1027
g69
(g90
g71
NtRp1028
(dp1029
g74
(dp1030
g94
g95
ssg83
g1024
sg76
(lp1031
S'env'
p1032
asbag69
(g90
g71
NtRp1033
(dp1034
g74
(dp1035
g101
g102
ssg83
g1024
sg76
(lp1036
S':'
asbag69
(g90
g71
NtRp1037
(dp1038
g74
(dp1039
sg83
g1024
sg76
(lp1040
g69
(g70
g71
NtRp1041
(dp1042
g74
(dp1043
g82
I5
ssg83
g1037
sg76
(lp1044
g69
(g78
g71
NtRp1045
(dp1046
g74
(dp1047
g82
I4
ssg83
Nsg76
(lp1048
g69
(g85
g71
NtRp1049
(dp1050
g74
(dp1051
sg83
g1045
sg76
(lp1052
g69
(g90
g71
NtRp1053
(dp1054
g74
(dp1055
g94
g95
ssg83
g1049
sg76
(lp1056
S'app_folders'
p1057
asbag69
(g90
g71
NtRp1058
(dp1059
g74
(dp1060
g101
g102
ssg83
g1049
sg76
(lp1061
S':'
asbag69
(g90
g71
NtRp1062
(dp1063
g74
(dp1064
sg83
g1049
sg76
(lp1065
g69
(g70
g71
NtRp1066
(dp1067
g74
(dp1068
g82
I4
ssg83
g1062
sg76
(lp1069
S"set(['/Users/Karl/code/web2py/applications/newsFeed/', '/Users/Karl/code/web2py/applications/admin/', '/Users/Karl/code/web2py/applications/welcome/'])"
p1070
asbasbasbag69
(g85
g71
NtRp1071
(dp1072
g74
(dp1073
sg83
g1045
sg76
(lp1074
g69
(g90
g71
NtRp1075
(dp1076
g74
(dp1077
g94
g95
ssg83
g1071
sg76
(lp1078
S'applications_parent'
p1079
asbag69
(g90
g71
NtRp1080
(dp1081
g74
(dp1082
g101
g102
ssg83
g1071
sg76
(lp1083
S':'
asbag69
(g90
g71
NtRp1084
(dp1085
g74
(dp1086
sg83
g1071
sg76
(lp1087
g69
(g70
g71
NtRp1088
(dp1089
g74
(dp1090
g82
I4
ssg83
g1084
sg76
(lp1091
S'/Users/Karl/code/web2py'
p1092
asbasbasbag69
(g85
g71
NtRp1093
(dp1094
g74
(dp1095
sg83
g1045
sg76
(lp1096
g69
(g90
g71
NtRp1097
(dp1098
g74
(dp1099
g94
g95
ssg83
g1093
sg76
(lp1100
S'cmd_args'
p1101
asbag69
(g90
g71
NtRp1102
(dp1103
g74
(dp1104
g101
g102
ssg83
g1093
sg76
(lp1105
S':'
asbag69
(g90
g71
NtRp1106
(dp1107
g74
(dp1108
sg83
g1093
sg76
(lp1109
g69
(g70
g71
NtRp1110
(dp1111
g74
(dp1112
g82
I4
ssg83
g1106
sg76
(lp1113
g69
(g78
g71
NtRp1114
(dp1115
g74
(dp1116
g82
I3
ssg83
Nsg76
(lp1117
sbasbasbasbag69
(g85
g71
NtRp1118
(dp1119
g74
(dp1120
sg83
g1045
sg76
(lp1121
g69
(g90
g71
NtRp1122
(dp1123
g74
(dp1124
g94
g95
ssg83
g1118
sg76
(lp1125
S'cmd_options'
p1126
asbag69
(g90
g71
NtRp1127
(dp1128
g74
(dp1129
g101
g102
ssg83
g1118
sg76
(lp1130
S':'
asbag69
(g90
g71
NtRp1131
(dp1132
g74
(dp1133
sg83
g1118
sg76
(lp1134
g69
(g70
g71
NtRp1135
(dp1136
g74
(dp1137
g82
I4
ssg83
g1131
sg76
(lp1138
S"<Values at 0x101caf200: {'verbose': False, 'ip': '127.0.0.1', 'with_scheduler': False, 'ips': ['172.25.51.201'], 'shutdown_timeout': 5, 'taskbar': False, 'port': 8000, 'maxthreads': None, 'softcron': False, 'server_name': 'Karls-MacBook-Pro.local', 'bpython': False, 'nogui': False, 'nocron': False, 'extcron': False, 'run_system_tests': False, 'test': None, 'folder': '/Users/Karl/code/web2py', 'config': '', 'import_models': False, 'winservice': '', 'shell': None, 'run': '', 'log_filename': 'httpserver.log', 'debuglevel': 30, 'args': [''], 'socket_timeout': 5, 'ssl_ca_certificate': None, 'scheduler': None, 'profiler_filename': None, 'ssl_private_key': '', 'scheduler_groups': None, 'password': '<ask>', 'request_queue_size': 5, 'ssl_certificate': '', 'cronjob': False, 'numthreads': None, 'quiet': False, 'interfaces': None, 'minthreads': None, 'timeout': 10, 'plain': False, 'nobanner': False, 'pid_filename': 'httpserver.pid'}>"
p1139
asbasbasbag69
(g85
g71
NtRp1140
(dp1141
g74
(dp1142
sg83
g1045
sg76
(lp1143
g69
(g90
g71
NtRp1144
(dp1145
g74
(dp1146
g94
g95
ssg83
g1140
sg76
(lp1147
S'db_sessions'
p1148
asbag69
(g90
g71
NtRp1149
(dp1150
g74
(dp1151
g101
g102
ssg83
g1140
sg76
(lp1152
S':'
asbag69
(g90
g71
NtRp1153
(dp1154
g74
(dp1155
sg83
g1140
sg76
(lp1156
g69
(g70
g71
NtRp1157
(dp1158
g74
(dp1159
g82
I4
ssg83
g1153
sg76
(lp1160
S'set([])'
p1161
asbasbasbag69
(g85
g71
NtRp1162
(dp1163
g74
(dp1164
sg83
g1045
sg76
(lp1165
g69
(g90
g71
NtRp1166
(dp1167
g74
(dp1168
g94
g95
ssg83
g1162
sg76
(lp1169
S'debugging'
p1170
asbag69
(g90
g71
NtRp1171
(dp1172
g74
(dp1173
g101
g102
ssg83
g1162
sg76
(lp1174
S':'
asbag69
(g90
g71
NtRp1175
(dp1176
g74
(dp1177
sg83
g1162
sg76
(lp1178
g69
(g70
g71
NtRp1179
(dp1180
g74
(dp1181
g82
I4
ssg83
g1175
sg76
(lp1182
g112
asbasbasbag69
(g85
g71
NtRp1183
(dp1184
g74
(dp1185
sg83
g1045
sg76
(lp1186
g69
(g90
g71
NtRp1187
(dp1188
g74
(dp1189
g94
g95
ssg83
g1183
sg76
(lp1190
S'gluon_parent'
p1191
asbag69
(g90
g71
NtRp1192
(dp1193
g74
(dp1194
g101
g102
ssg83
g1183
sg76
(lp1195
S':'
asbag69
(g90
g71
NtRp1196
(dp1197
g74
(dp1198
sg83
g1183
sg76
(lp1199
g69
(g70
g71
NtRp1200
(dp1201
g74
(dp1202
g82
I4
ssg83
g1196
sg76
(lp1203
S'/Users/Karl/code/web2py'
p1204
asbasbasbag69
(g85
g71
NtRp1205
(dp1206
g74
(dp1207
sg83
g1045
sg76
(lp1208
g69
(g90
g71
NtRp1209
(dp1210
g74
(dp1211
g94
g95
ssg83
g1205
sg76
(lp1212
S'http_accept'
p1213
asbag69
(g90
g71
NtRp1214
(dp1215
g74
(dp1216
g101
g102
ssg83
g1205
sg76
(lp1217
S':'
asbag69
(g90
g71
NtRp1218
(dp1219
g74
(dp1220
sg83
g1205
sg76
(lp1221
g69
(g70
g71
NtRp1222
(dp1223
g74
(dp1224
g82
I4
ssg83
g1218
sg76
(lp1225
S'text/html,application/xhtml+xml,application/xml;q=0.9,*/*;q=0.8'
p1226
asbasbasbag69
(g85
g71
NtRp1227
(dp1228
g74
(dp1229
sg83
g1045
sg76
(lp1230
g69
(g90
g71
NtRp1231
(dp1232
g74
(dp1233
g94
g95
ssg83
g1227
sg76
(lp1234
S'http_accept_encoding'
p1235
asbag69
(g90
g71
NtRp1236
(dp1237
g74
(dp1238
g101
g102
ssg83
g1227
sg76
(lp1239
S':'
asbag69
(g90
g71
NtRp1240
(dp1241
g74
(dp1242
sg83
g1227
sg76
(lp1243
g69
(g70
g71
NtRp1244
(dp1245
g74
(dp1246
g82
I4
ssg83
g1240
sg76
(lp1247
S'gzip, deflate'
p1248
asbasbasbag69
(g85
g71
NtRp1249
(dp1250
g74
(dp1251
sg83
g1045
sg76
(lp1252
g69
(g90
g71
NtRp1253
(dp1254
g74
(dp1255
g94
g95
ssg83
g1249
sg76
(lp1256
S'http_accept_language'
p1257
asbag69
(g90
g71
NtRp1258
(dp1259
g74
(dp1260
g101
g102
ssg83
g1249
sg76
(lp1261
S':'
asbag69
(g90
g71
NtRp1262
(dp1263
g74
(dp1264
sg83
g1249
sg76
(lp1265
g69
(g70
g71
NtRp1266
(dp1267
g74
(dp1268
g82
I4
ssg83
g1262
sg76
(lp1269
S'en-us'
p1270
asbasbasbag69
(g85
g71
NtRp1271
(dp1272
g74
(dp1273
sg83
g1045
sg76
(lp1274
g69
(g90
g71
NtRp1275
(dp1276
g74
(dp1277
g94
g95
ssg83
g1271
sg76
(lp1278
S'http_connection'
p1279
asbag69
(g90
g71
NtRp1280
(dp1281
g74
(dp1282
g101
g102
ssg83
g1271
sg76
(lp1283
S':'
asbag69
(g90
g71
NtRp1284
(dp1285
g74
(dp1286
sg83
g1271
sg76
(lp1287
g69
(g70
g71
NtRp1288
(dp1289
g74
(dp1290
g82
I4
ssg83
g1284
sg76
(lp1291
S'keep-alive'
p1292
asbasbasbag69
(g85
g71
NtRp1293
(dp1294
g74
(dp1295
sg83
g1045
sg76
(lp1296
g69
(g90
g71
NtRp1297
(dp1298
g74
(dp1299
g94
g95
ssg83
g1293
sg76
(lp1300
S'http_cookie'
p1301
asbag69
(g90
g71
NtRp1302
(dp1303
g74
(dp1304
g101
g102
ssg83
g1293
sg76
(lp1305
S':'
asbag69
(g90
g71
NtRp1306
(dp1307
g74
(dp1308
sg83
g1293
sg76
(lp1309
g69
(g70
g71
NtRp1310
(dp1311
g74
(dp1312
g82
I4
ssg83
g1306
sg76
(lp1313
S'session_id_newsfeed=127.0.0.1-cf681d17-4d34-47c3-b25e-cb18b12cf401; session_id_admin=127.0.0.1-7bf5236b-8ca1-4e3e-a316-0858e3e6db30; session_id_welcome=127.0.0.1-c9d00889-6dea-42d9-8854-eed4cc7ca179; session_id_textentries=127.0.0.1-74aec935-c7d0-4514-a6ce-84e446edd182'
p1314
asbasbasbag69
(g85
g71
NtRp1315
(dp1316
g74
(dp1317
sg83
g1045
sg76
(lp1318
g69
(g90
g71
NtRp1319
(dp1320
g74
(dp1321
g94
g95
ssg83
g1315
sg76
(lp1322
S'http_host'
p1323
asbag69
(g90
g71
NtRp1324
(dp1325
g74
(dp1326
g101
g102
ssg83
g1315
sg76
(lp1327
S':'
asbag69
(g90
g71
NtRp1328
(dp1329
g74
(dp1330
sg83
g1315
sg76
(lp1331
g69
(g70
g71
NtRp1332
(dp1333
g74
(dp1334
g82
I4
ssg83
g1328
sg76
(lp1335
S'127.0.0.1:8000'
p1336
asbasbasbag69
(g85
g71
NtRp1337
(dp1338
g74
(dp1339
sg83
g1045
sg76
(lp1340
g69
(g90
g71
NtRp1341
(dp1342
g74
(dp1343
g94
g95
ssg83
g1337
sg76
(lp1344
S'http_user_agent'
p1345
asbag69
(g90
g71
NtRp1346
(dp1347
g74
(dp1348
g101
g102
ssg83
g1337
sg76
(lp1349
S':'
asbag69
(g90
g71
NtRp1350
(dp1351
g74
(dp1352
sg83
g1337
sg76
(lp1353
g69
(g70
g71
NtRp1354
(dp1355
g74
(dp1356
g82
I4
ssg83
g1350
sg76
(lp1357
S'Mozilla/5.0 (Macintosh; Intel Mac OS X 10_8_2) AppleWebKit/536.26.14 (KHTML, like Gecko) Version/6.0.1 Safari/536.26.14'
p1358
asbasbasbag69
(g85
g71
NtRp1359
(dp1360
g74
(dp1361
sg83
g1045
sg76
(lp1362
g69
(g90
g71
NtRp1363
(dp1364
g74
(dp1365
g94
g95
ssg83
g1359
sg76
(lp1366
S'is_jython'
p1367
asbag69
(g90
g71
NtRp1368
(dp1369
g74
(dp1370
g101
g102
ssg83
g1359
sg76
(lp1371
S':'
asbag69
(g90
g71
NtRp1372
(dp1373
g74
(dp1374
sg83
g1359
sg76
(lp1375
g69
(g70
g71
NtRp1376
(dp1377
g74
(dp1378
g82
I4
ssg83
g1372
sg76
(lp1379
g112
asbasbasbag69
(g85
g71
NtRp1380
(dp1381
g74
(dp1382
sg83
g1045
sg76
(lp1383
g69
(g90
g71
NtRp1384
(dp1385
g74
(dp1386
g94
g95
ssg83
g1380
sg76
(lp1387
S'is_pypy'
p1388
asbag69
(g90
g71
NtRp1389
(dp1390
g74
(dp1391
g101
g102
ssg83
g1380
sg76
(lp1392
S':'
asbag69
(g90
g71
NtRp1393
(dp1394
g74
(dp1395
sg83
g1380
sg76
(lp1396
g69
(g70
g71
NtRp1397
(dp1398
g74
(dp1399
g82
I4
ssg83
g1393
sg76
(lp1400
g112
asbasbasbag69
(g85
g71
NtRp1401
(dp1402
g74
(dp1403
sg83
g1045
sg76
(lp1404
g69
(g90
g71
NtRp1405
(dp1406
g74
(dp1407
g94
g95
ssg83
g1401
sg76
(lp1408
S'path_info'
p1409
asbag69
(g90
g71
NtRp1410
(dp1411
g74
(dp1412
g101
g102
ssg83
g1401
sg76
(lp1413
S':'
asbag69
(g90
g71
NtRp1414
(dp1415
g74
(dp1416
sg83
g1401
sg76
(lp1417
g69
(g70
g71
NtRp1418
(dp1419
g74
(dp1420
g82
I4
ssg83
g1414
sg76
(lp1421
S'/newsFeed/default/index'
p1422
asbasbasbag69
(g85
g71
NtRp1423
(dp1424
g74
(dp1425
sg83
g1045
sg76
(lp1426
g69
(g90
g71
NtRp1427
(dp1428
g74
(dp1429
g94
g95
ssg83
g1423
sg76
(lp1430
S'query_string'
p1431
asbag69
(g90
g71
NtRp1432
(dp1433
g74
(dp1434
g101
g102
ssg83
g1423
sg76
(lp1435
S':'
asbag69
(g90
g71
NtRp1436
(dp1437
g74
(dp1438
sg83
g1423
sg76
(lp1439
g69
(g70
g71
NtRp1440
(dp1441
g74
(dp1442
g82
I4
ssg83
g1436
sg76
(lp1443
S''
asbasbasbag69
(g85
g71
NtRp1444
(dp1445
g74
(dp1446
sg83
g1045
sg76
(lp1447
g69
(g90
g71
NtRp1448
(dp1449
g74
(dp1450
g94
g95
ssg83
g1444
sg76
(lp1451
S'remote_addr'
p1452
asbag69
(g90
g71
NtRp1453
(dp1454
g74
(dp1455
g101
g102
ssg83
g1444
sg76
(lp1456
S':'
asbag69
(g90
g71
NtRp1457
(dp1458
g74
(dp1459
sg83
g1444
sg76
(lp1460
g69
(g70
g71
NtRp1461
(dp1462
g74
(dp1463
g82
I4
ssg83
g1457
sg76
(lp1464
g224
asbasbasbag69
(g85
g71
NtRp1465
(dp1466
g74
(dp1467
sg83
g1045
sg76
(lp1468
g69
(g90
g71
NtRp1469
(dp1470
g74
(dp1471
g94
g95
ssg83
g1465
sg76
(lp1472
S'remote_port'
p1473
asbag69
(g90
g71
NtRp1474
(dp1475
g74
(dp1476
g101
g102
ssg83
g1465
sg76
(lp1477
S':'
asbag69
(g90
g71
NtRp1478
(dp1479
g74
(dp1480
sg83
g1465
sg76
(lp1481
g69
(g70
g71
NtRp1482
(dp1483
g74
(dp1484
g82
I4
ssg83
g1478
sg76
(lp1485
S'54642'
p1486
asbasbasbag69
(g85
g71
NtRp1487
(dp1488
g74
(dp1489
sg83
g1045
sg76
(lp1490
g69
(g90
g71
NtRp1491
(dp1492
g74
(dp1493
g94
g95
ssg83
g1487
sg76
(lp1494
S'request_method'
p1495
asbag69
(g90
g71
NtRp1496
(dp1497
g74
(dp1498
g101
g102
ssg83
g1487
sg76
(lp1499
S':'
asbag69
(g90
g71
NtRp1500
(dp1501
g74
(dp1502
sg83
g1487
sg76
(lp1503
g69
(g70
g71
NtRp1504
(dp1505
g74
(dp1506
g82
I4
ssg83
g1500
sg76
(lp1507
S'GET'
p1508
asbasbasbag69
(g85
g71
NtRp1509
(dp1510
g74
(dp1511
sg83
g1045
sg76
(lp1512
g69
(g90
g71
NtRp1513
(dp1514
g74
(dp1515
g94
g95
ssg83
g1509
sg76
(lp1516
S'request_uri'
p1517
asbag69
(g90
g71
NtRp1518
(dp1519
g74
(dp1520
g101
g102
ssg83
g1509
sg76
(lp1521
S':'
asbag69
(g90
g71
NtRp1522
(dp1523
g74
(dp1524
sg83
g1509
sg76
(lp1525
g69
(g70
g71
NtRp1526
(dp1527
g74
(dp1528
g82
I4
ssg83
g1522
sg76
(lp1529
g1422
asbasbasbag69
(g85
g71
NtRp1530
(dp1531
g74
(dp1532
sg83
g1045
sg76
(lp1533
g69
(g90
g71
NtRp1534
(dp1535
g74
(dp1536
g94
g95
ssg83
g1530
sg76
(lp1537
S'script_name'
p1538
asbag69
(g90
g71
NtRp1539
(dp1540
g74
(dp1541
g101
g102
ssg83
g1530
sg76
(lp1542
S':'
asbag69
(g90
g71
NtRp1543
(dp1544
g74
(dp1545
sg83
g1530
sg76
(lp1546
g69
(g70
g71
NtRp1547
(dp1548
g74
(dp1549
g82
I4
ssg83
g1543
sg76
(lp1550
S''
asbasbasbag69
(g85
g71
NtRp1551
(dp1552
g74
(dp1553
sg83
g1045
sg76
(lp1554
g69
(g90
g71
NtRp1555
(dp1556
g74
(dp1557
g94
g95
ssg83
g1551
sg76
(lp1558
S'server_name'
p1559
asbag69
(g90
g71
NtRp1560
(dp1561
g74
(dp1562
g101
g102
ssg83
g1551
sg76
(lp1563
S':'
asbag69
(g90
g71
NtRp1564
(dp1565
g74
(dp1566
sg83
g1551
sg76
(lp1567
g69
(g70
g71
NtRp1568
(dp1569
g74
(dp1570
g82
I4
ssg83
g1564
sg76
(lp1571
S'Karls-MacBook-Pro.local'
p1572
asbasbasbag69
(g85
g71
NtRp1573
(dp1574
g74
(dp1575
sg83
g1045
sg76
(lp1576
g69
(g90
g71
NtRp1577
(dp1578
g74
(dp1579
g94
g95
ssg83
g1573
sg76
(lp1580
S'server_port'
p1581
asbag69
(g90
g71
NtRp1582
(dp1583
g74
(dp1584
g101
g102
ssg83
g1573
sg76
(lp1585
S':'
asbag69
(g90
g71
NtRp1586
(dp1587
g74
(dp1588
sg83
g1573
sg76
(lp1589
g69
(g70
g71
NtRp1590
(dp1591
g74
(dp1592
g82
I4
ssg83
g1586
sg76
(lp1593
S'8000'
p1594
asbasbasbag69
(g85
g71
NtRp1595
(dp1596
g74
(dp1597
sg83
g1045
sg76
(lp1598
g69
(g90
g71
NtRp1599
(dp1600
g74
(dp1601
g94
g95
ssg83
g1595
sg76
(lp1602
S'server_protocol'
p1603
asbag69
(g90
g71
NtRp1604
(dp1605
g74
(dp1606
g101
g102
ssg83
g1595
sg76
(lp1607
S':'
asbag69
(g90
g71
NtRp1608
(dp1609
g74
(dp1610
sg83
g1595
sg76
(lp1611
g69
(g70
g71
NtRp1612
(dp1613
g74
(dp1614
g82
I4
ssg83
g1608
sg76
(lp1615
S'HTTP/1.1'
p1616
asbasbasbag69
(g85
g71
NtRp1617
(dp1618
g74
(dp1619
sg83
g1045
sg76
(lp1620
g69
(g90
g71
NtRp1621
(dp1622
g74
(dp1623
g94
g95
ssg83
g1617
sg76
(lp1624
S'server_software'
p1625
asbag69
(g90
g71
NtRp1626
(dp1627
g74
(dp1628
g101
g102
ssg83
g1617
sg76
(lp1629
S':'
asbag69
(g90
g71
NtRp1630
(dp1631
g74
(dp1632
sg83
g1617
sg76
(lp1633
g69
(g70
g71
NtRp1634
(dp1635
g74
(dp1636
g82
I4
ssg83
g1630
sg76
(lp1637
S'Rocket 1.2.4'
p1638
asbasbasbag69
(g85
g71
NtRp1639
(dp1640
g74
(dp1641
sg83
g1045
sg76
(lp1642
g69
(g90
g71
NtRp1643
(dp1644
g74
(dp1645
g94
g95
ssg83
g1639
sg76
(lp1646
S'web2py_crontype'
p1647
asbag69
(g90
g71
NtRp1648
(dp1649
g74
(dp1650
g101
g102
ssg83
g1639
sg76
(lp1651
S':'
asbag69
(g90
g71
NtRp1652
(dp1653
g74
(dp1654
sg83
g1639
sg76
(lp1655
g69
(g70
g71
NtRp1656
(dp1657
g74
(dp1658
g82
I4
ssg83
g1652
sg76
(lp1659
S'hard'
p1660
asbasbasbag69
(g85
g71
NtRp1661
(dp1662
g74
(dp1663
sg83
g1045
sg76
(lp1664
g69
(g90
g71
NtRp1665
(dp1666
g74
(dp1667
g94
g95
ssg83
g1661
sg76
(lp1668
S'web2py_path'
p1669
asbag69
(g90
g71
NtRp1670
(dp1671
g74
(dp1672
g101
g102
ssg83
g1661
sg76
(lp1673
S':'
asbag69
(g90
g71
NtRp1674
(dp1675
g74
(dp1676
sg83
g1661
sg76
(lp1677
g69
(g70
g71
NtRp1678
(dp1679
g74
(dp1680
g82
I4
ssg83
g1674
sg76
(lp1681
g1092
asbasbasbag69
(g85
g71
NtRp1682
(dp1683
g74
(dp1684
sg83
g1045
sg76
(lp1685
g69
(g90
g71
NtRp1686
(dp1687
g74
(dp1688
g94
g95
ssg83
g1682
sg76
(lp1689
S'web2py_version'
p1690
asbag69
(g90
g71
NtRp1691
(dp1692
g74
(dp1693
g101
g102
ssg83
g1682
sg76
(lp1694
S':'
asbag69
(g90
g71
NtRp1695
(dp1696
g74
(dp1697
sg83
g1682
sg76
(lp1698
g69
(g70
g71
NtRp1699
(dp1700
g74
(dp1701
g82
I4
ssg83
g1695
sg76
(lp1702
g69
(g78
g71
NtRp1703
(dp1704
g74
(dp1705
g82
I3
ssg83
Nsg76
(lp1706
g69
(g85
g71
NtRp1707
(dp1708
g74
(dp1709
sg83
g1703
sg76
(lp1710
g69
(g90
g71
NtRp1711
(dp1712
g74
(dp1713
sg83
g1707
sg76
(lp1714
g69
(g70
g71
NtRp1715
(dp1716
g74
(dp1717
g82
I3
ssg83
g1711
sg76
(lp1718
S'2'
asbasbasbag69
(g85
g71
NtRp1719
(dp1720
g74
(dp1721
sg83
g1703
sg76
(lp1722
g69
(g90
g71
NtRp1723
(dp1724
g74
(dp1725
sg83
g1719
sg76
(lp1726
g69
(g70
g71
NtRp1727
(dp1728
g74
(dp1729
g82
I3
ssg83
g1723
sg76
(lp1730
S'0'
asbasbasbag69
(g85
g71
NtRp1731
(dp1732
g74
(dp1733
sg83
g1703
sg76
(lp1734
g69
(g90
g71
NtRp1735
(dp1736
g74
(dp1737
sg83
g1731
sg76
(lp1738
g69
(g70
g71
NtRp1739
(dp1740
g74
(dp1741
g82
I3
ssg83
g1735
sg76
(lp1742
S'9'
asbasbasbag69
(g85
g71
NtRp1743
(dp1744
g74
(dp1745
sg83
g1703
sg76
(lp1746
g69
(g90
g71
NtRp1747
(dp1748
g74
(dp1749
sg83
g1743
sg76
(lp1750
g69
(g70
g71
NtRp1751
(dp1752
g74
(dp1753
g82
I3
ssg83
g1747
sg76
(lp1754
S'datetime.datetime(2012, 9, 13, 23, 51, 30)'
p1755
asbasbasbag69
(g85
g71
NtRp1756
(dp1757
g74
(dp1758
sg83
g1703
sg76
(lp1759
g69
(g90
g71
NtRp1760
(dp1761
g74
(dp1762
sg83
g1756
sg76
(lp1763
g69
(g70
g71
NtRp1764
(dp1765
g74
(dp1766
g82
I3
ssg83
g1760
sg76
(lp1767
S'stable'
p1768
asbasbasbasbasbasbasbag69
(g85
g71
NtRp1769
(dp1770
g74
(dp1771
sg83
g1045
sg76
(lp1772
g69
(g90
g71
NtRp1773
(dp1774
g74
(dp1775
g94
g95
ssg83
g1769
sg76
(lp1776
S'wsgi_errors'
p1777
asbag69
(g90
g71
NtRp1778
(dp1779
g74
(dp1780
g101
g102
ssg83
g1769
sg76
(lp1781
S':'
asbag69
(g90
g71
NtRp1782
(dp1783
g74
(dp1784
sg83
g1769
sg76
(lp1785
g69
(g70
g71
NtRp1786
(dp1787
g74
(dp1788
g82
I4
ssg83
g1782
sg76
(lp1789
S"<open file '<stderr>', mode 'w' at 0x100284270>"
p1790
asbasbasbag69
(g85
g71
NtRp1791
(dp1792
g74
(dp1793
sg83
g1045
sg76
(lp1794
g69
(g90
g71
NtRp1795
(dp1796
g74
(dp1797
g94
g95
ssg83
g1791
sg76
(lp1798
S'wsgi_file_wrapper'
p1799
asbag69
(g90
g71
NtRp1800
(dp1801
g74
(dp1802
g101
g102
ssg83
g1791
sg76
(lp1803
S':'
asbag69
(g90
g71
NtRp1804
(dp1805
g74
(dp1806
sg83
g1791
sg76
(lp1807
g69
(g70
g71
NtRp1808
(dp1809
g74
(dp1810
g82
I4
ssg83
g1804
sg76
(lp1811
S'<class wsgiref.util.FileWrapper at 0x101c53bb0>'
p1812
asbasbasbag69
(g85
g71
NtRp1813
(dp1814
g74
(dp1815
sg83
g1045
sg76
(lp1816
g69
(g90
g71
NtRp1817
(dp1818
g74
(dp1819
g94
g95
ssg83
g1813
sg76
(lp1820
S'wsgi_input'
p1821
asbag69
(g90
g71
NtRp1822
(dp1823
g74
(dp1824
g101
g102
ssg83
g1813
sg76
(lp1825
S':'
asbag69
(g90
g71
NtRp1826
(dp1827
g74
(dp1828
sg83
g1813
sg76
(lp1829
g69
(g70
g71
NtRp1830
(dp1831
g74
(dp1832
g82
I4
ssg83
g1826
sg76
(lp1833
S'<socket._fileobject object at 0x105894a50>'
p1834
asbasbasbag69
(g85
g71
NtRp1835
(dp1836
g74
(dp1837
sg83
g1045
sg76
(lp1838
g69
(g90
g71
NtRp1839
(dp1840
g74
(dp1841
g94
g95
ssg83
g1835
sg76
(lp1842
S'wsgi_multiprocess'
p1843
asbag69
(g90
g71
NtRp1844
(dp1845
g74
(dp1846
g101
g102
ssg83
g1835
sg76
(lp1847
S':'
asbag69
(g90
g71
NtRp1848
(dp1849
g74
(dp1850
sg83
g1835
sg76
(lp1851
g69
(g70
g71
NtRp1852
(dp1853
g74
(dp1854
g82
I4
ssg83
g1848
sg76
(lp1855
g112
asbasbasbag69
(g85
g71
NtRp1856
(dp1857
g74
(dp1858
sg83
g1045
sg76
(lp1859
g69
(g90
g71
NtRp1860
(dp1861
g74
(dp1862
g94
g95
ssg83
g1856
sg76
(lp1863
S'wsgi_multithread'
p1864
asbag69
(g90
g71
NtRp1865
(dp1866
g74
(dp1867
g101
g102
ssg83
g1856
sg76
(lp1868
S':'
asbag69
(g90
g71
NtRp1869
(dp1870
g74
(dp1871
sg83
g1856
sg76
(lp1872
g69
(g70
g71
NtRp1873
(dp1874
g74
(dp1875
g82
I4
ssg83
g1869
sg76
(lp1876
S'True'
p1877
asbasbasbag69
(g85
g71
NtRp1878
(dp1879
g74
(dp1880
sg83
g1045
sg76
(lp1881
g69
(g90
g71
NtRp1882
(dp1883
g74
(dp1884
g94
g95
ssg83
g1878
sg76
(lp1885
S'wsgi_run_once'
p1886
asbag69
(g90
g71
NtRp1887
(dp1888
g74
(dp1889
g101
g102
ssg83
g1878
sg76
(lp1890
S':'
asbag69
(g90
g71
NtRp1891
(dp1892
g74
(dp1893
sg83
g1878
sg76
(lp1894
g69
(g70
g71
NtRp1895
(dp1896
g74
(dp1897
g82
I4
ssg83
g1891
sg76
(lp1898
g112
asbasbasbag69
(g85
g71
NtRp1899
(dp1900
g74
(dp1901
sg83
g1045
sg76
(lp1902
g69
(g90
g71
NtRp1903
(dp1904
g74
(dp1905
g94
g95
ssg83
g1899
sg76
(lp1906
S'wsgi_url_scheme'
p1907
asbag69
(g90
g71
NtRp1908
(dp1909
g74
(dp1910
g101
g102
ssg83
g1899
sg76
(lp1911
S':'
asbag69
(g90
g71
NtRp1912
(dp1913
g74
(dp1914
sg83
g1899
sg76
(lp1915
g69
(g70
g71
NtRp1916
(dp1917
g74
(dp1918
g82
I4
ssg83
g1912
sg76
(lp1919
S'http'
p1920
asbasbasbag69
(g85
g71
NtRp1921
(dp1922
g74
(dp1923
sg83
g1045
sg76
(lp1924
g69
(g90
g71
NtRp1925
(dp1926
g74
(dp1927
g94
g95
ssg83
g1921
sg76
(lp1928
S'wsgi_version'
p1929
asbag69
(g90
g71
NtRp1930
(dp1931
g74
(dp1932
g101
g102
ssg83
g1921
sg76
(lp1933
S':'
asbag69
(g90
g71
NtRp1934
(dp1935
g74
(dp1936
sg83
g1921
sg76
(lp1937
g69
(g70
g71
NtRp1938
(dp1939
g74
(dp1940
g82
I4
ssg83
g1934
sg76
(lp1941
g69
(g78
g71
NtRp1942
(dp1943
g74
(dp1944
g82
I3
ssg83
Nsg76
(lp1945
g69
(g85
g71
NtRp1946
(dp1947
g74
(dp1948
sg83
g1942
sg76
(lp1949
g69
(g90
g71
NtRp1950
(dp1951
g74
(dp1952
sg83
g1946
sg76
(lp1953
g69
(g70
g71
NtRp1954
(dp1955
g74
(dp1956
g82
I3
ssg83
g1950
sg76
(lp1957
S'1'
asbasbasbag69
(g85
g71
NtRp1958
(dp1959
g74
(dp1960
sg83
g1942
sg76
(lp1961
g69
(g90
g71
NtRp1962
(dp1963
g74
(dp1964
sg83
g1958
sg76
(lp1965
g69
(g70
g71
NtRp1966
(dp1967
g74
(dp1968
g82
I3
ssg83
g1962
sg76
(lp1969
S'0'
asbasbasbasbasbasbasbasbasbasbasbag69
(g85
g71
NtRp1970
(dp1971
g74
(dp1972
sg83
g79
sg76
(lp1973
g69
(g90
g71
NtRp1974
(dp1975
g74
(dp1976
g94
g95
ssg83
g1970
sg76
(lp1977
S'extension'
p1978
asbag69
(g90
g71
NtRp1979
(dp1980
g74
(dp1981
g101
g102
ssg83
g1970
sg76
(lp1982
S':'
asbag69
(g90
g71
NtRp1983
(dp1984
g74
(dp1985
sg83
g1970
sg76
(lp1986
g69
(g70
g71
NtRp1987
(dp1988
g74
(dp1989
g82
I5
ssg83
g1983
sg76
(lp1990
S'html'
p1991
asbasbasbag69
(g85
g71
NtRp1992
(dp1993
g74
(dp1994
sg83
g79
sg76
(lp1995
g69
(g90
g71
NtRp1996
(dp1997
g74
(dp1998
g94
g95
ssg83
g1992
sg76
(lp1999
S'folder'
p2000
asbag69
(g90
g71
NtRp2001
(dp2002
g74
(dp2003
g101
g102
ssg83
g1992
sg76
(lp2004
S':'
asbag69
(g90
g71
NtRp2005
(dp2006
g74
(dp2007
sg83
g1992
sg76
(lp2008
g69
(g70
g71
NtRp2009
(dp2010
g74
(dp2011
g82
I5
ssg83
g2005
sg76
(lp2012
S'/Users/Karl/code/web2py/applications/newsFeed/'
p2013
asbasbasbag69
(g85
g71
NtRp2014
(dp2015
g74
(dp2016
sg83
g79
sg76
(lp2017
g69
(g90
g71
NtRp2018
(dp2019
g74
(dp2020
g94
g95
ssg83
g2014
sg76
(lp2021
S'function'
p2022
asbag69
(g90
g71
NtRp2023
(dp2024
g74
(dp2025
g101
g102
ssg83
g2014
sg76
(lp2026
S':'
asbag69
(g90
g71
NtRp2027
(dp2028
g74
(dp2029
sg83
g2014
sg76
(lp2030
g69
(g70
g71
NtRp2031
(dp2032
g74
(dp2033
g82
I5
ssg83
g2027
sg76
(lp2034
S'index'
p2035
asbasbasbag69
(g85
g71
NtRp2036
(dp2037
g74
(dp2038
sg83
g79
sg76
(lp2039
g69
(g90
g71
NtRp2040
(dp2041
g74
(dp2042
g94
g95
ssg83
g2036
sg76
(lp2043
S'get_vars'
p2044
asbag69
(g90
g71
NtRp2045
(dp2046
g74
(dp2047
g101
g102
ssg83
g2036
sg76
(lp2048
S':'
asbag69
(g90
g71
NtRp2049
(dp2050
g74
(dp2051
sg83
g2036
sg76
(lp2052
g69
(g70
g71
NtRp2053
(dp2054
g74
(dp2055
g82
I5
ssg83
g2049
sg76
(lp2056
g69
(g78
g71
NtRp2057
(dp2058
g74
(dp2059
g82
I4
ssg83
Nsg76
(lp2060
sbasbasbasbag69
(g85
g71
NtRp2061
(dp2062
g74
(dp2063
sg83
g79
sg76
(lp2064
g69
(g90
g71
NtRp2065
(dp2066
g74
(dp2067
g94
g95
ssg83
g2061
sg76
(lp2068
S'global_settings'
p2069
asbag69
(g90
g71
NtRp2070
(dp2071
g74
(dp2072
g101
g102
ssg83
g2061
sg76
(lp2073
S':'
asbag69
(g90
g71
NtRp2074
(dp2075
g74
(dp2076
sg83
g2061
sg76
(lp2077
g69
(g70
g71
NtRp2078
(dp2079
g74
(dp2080
g82
I5
ssg83
g2074
sg76
(lp2081
g69
(g78
g71
NtRp2082
(dp2083
g74
(dp2084
g82
I4
ssg83
Nsg76
(lp2085
g69
(g85
g71
NtRp2086
(dp2087
g74
(dp2088
sg83
g2082
sg76
(lp2089
g69
(g90
g71
NtRp2090
(dp2091
g74
(dp2092
g94
g95
ssg83
g2086
sg76
(lp2093
g1057
asbag69
(g90
g71
NtRp2094
(dp2095
g74
(dp2096
g101
g102
ssg83
g2086
sg76
(lp2097
S':'
asbag69
(g90
g71
NtRp2098
(dp2099
g74
(dp2100
sg83
g2086
sg76
(lp2101
g69
(g70
g71
NtRp2102
(dp2103
g74
(dp2104
g82
I4
ssg83
g2098
sg76
(lp2105
S"set(['/Users/Karl/code/web2py/applications/newsFeed/', '/Users/Karl/code/web2py/applications/admin/', '/Users/Karl/code/web2py/applications/welcome/'])"
p2106
asbasbasbag69
(g85
g71
NtRp2107
(dp2108
g74
(dp2109
sg83
g2082
sg76
(lp2110
g69
(g90
g71
NtRp2111
(dp2112
g74
(dp2113
g94
g95
ssg83
g2107
sg76
(lp2114
g1079
asbag69
(g90
g71
NtRp2115
(dp2116
g74
(dp2117
g101
g102
ssg83
g2107
sg76
(lp2118
S':'
asbag69
(g90
g71
NtRp2119
(dp2120
g74
(dp2121
sg83
g2107
sg76
(lp2122
g69
(g70
g71
NtRp2123
(dp2124
g74
(dp2125
g82
I4
ssg83
g2119
sg76
(lp2126
g1092
asbasbasbag69
(g85
g71
NtRp2127
(dp2128
g74
(dp2129
sg83
g2082
sg76
(lp2130
g69
(g90
g71
NtRp2131
(dp2132
g74
(dp2133
g94
g95
ssg83
g2127
sg76
(lp2134
g1101
asbag69
(g90
g71
NtRp2135
(dp2136
g74
(dp2137
g101
g102
ssg83
g2127
sg76
(lp2138
S':'
asbag69
(g90
g71
NtRp2139
(dp2140
g74
(dp2141
sg83
g2127
sg76
(lp2142
g69
(g70
g71
NtRp2143
(dp2144
g74
(dp2145
g82
I4
ssg83
g2139
sg76
(lp2146
g69
(g78
g71
NtRp2147
(dp2148
g74
(dp2149
g82
I3
ssg83
Nsg76
(lp2150
sbasbasbasbag69
(g85
g71
NtRp2151
(dp2152
g74
(dp2153
sg83
g2082
sg76
(lp2154
g69
(g90
g71
NtRp2155
(dp2156
g74
(dp2157
g94
g95
ssg83
g2151
sg76
(lp2158
g1126
asbag69
(g90
g71
NtRp2159
(dp2160
g74
(dp2161
g101
g102
ssg83
g2151
sg76
(lp2162
S':'
asbag69
(g90
g71
NtRp2163
(dp2164
g74
(dp2165
sg83
g2151
sg76
(lp2166
g69
(g70
g71
NtRp2167
(dp2168
g74
(dp2169
g82
I4
ssg83
g2163
sg76
(lp2170
S"<Values at 0x101caf200: {'verbose': False, 'ip': '127.0.0.1', 'with_scheduler': False, 'ips': ['172.25.51.201'], 'shutdown_timeout': 5, 'taskbar': False, 'port': 8000, 'maxthreads': None, 'softcron': False, 'server_name': 'Karls-MacBook-Pro.local', 'bpython': False, 'nogui': False, 'nocron': False, 'extcron': False, 'run_system_tests': False, 'test': None, 'folder': '/Users/Karl/code/web2py', 'config': '', 'import_models': False, 'winservice': '', 'shell': None, 'run': '', 'log_filename': 'httpserver.log', 'debuglevel': 30, 'args': [''], 'socket_timeout': 5, 'ssl_ca_certificate': None, 'scheduler': None, 'profiler_filename': None, 'ssl_private_key': '', 'scheduler_groups': None, 'password': '<ask>', 'request_queue_size': 5, 'ssl_certificate': '', 'cronjob': False, 'numthreads': None, 'quiet': False, 'interfaces': None, 'minthreads': None, 'timeout': 10, 'plain': False, 'nobanner': False, 'pid_filename': 'httpserver.pid'}>"
p2171
asbasbasbag69
(g85
g71
NtRp2172
(dp2173
g74
(dp2174
sg83
g2082
sg76
(lp2175
g69
(g90
g71
NtRp2176
(dp2177
g74
(dp2178
g94
g95
ssg83
g2172
sg76
(lp2179
g1148
asbag69
(g90
g71
NtRp2180
(dp2181
g74
(dp2182
g101
g102
ssg83
g2172
sg76
(lp2183
S':'
asbag69
(g90
g71
NtRp2184
(dp2185
g74
(dp2186
sg83
g2172
sg76
(lp2187
g69
(g70
g71
NtRp2188
(dp2189
g74
(dp2190
g82
I4
ssg83
g2184
sg76
(lp2191
S'set([])'
p2192
asbasbasbag69
(g85
g71
NtRp2193
(dp2194
g74
(dp2195
sg83
g2082
sg76
(lp2196
g69
(g90
g71
NtRp2197
(dp2198
g74
(dp2199
g94
g95
ssg83
g2193
sg76
(lp2200
g1170
asbag69
(g90
g71
NtRp2201
(dp2202
g74
(dp2203
g101
g102
ssg83
g2193
sg76
(lp2204
S':'
asbag69
(g90
g71
NtRp2205
(dp2206
g74
(dp2207
sg83
g2193
sg76
(lp2208
g69
(g70
g71
NtRp2209
(dp2210
g74
(dp2211
g82
I4
ssg83
g2205
sg76
(lp2212
g112
asbasbasbag69
(g85
g71
NtRp2213
(dp2214
g74
(dp2215
sg83
g2082
sg76
(lp2216
g69
(g90
g71
NtRp2217
(dp2218
g74
(dp2219
g94
g95
ssg83
g2213
sg76
(lp2220
g1191
asbag69
(g90
g71
NtRp2221
(dp2222
g74
(dp2223
g101
g102
ssg83
g2213
sg76
(lp2224
S':'
asbag69
(g90
g71
NtRp2225
(dp2226
g74
(dp2227
sg83
g2213
sg76
(lp2228
g69
(g70
g71
NtRp2229
(dp2230
g74
(dp2231
g82
I4
ssg83
g2225
sg76
(lp2232
g1204
asbasbasbag69
(g85
g71
NtRp2233
(dp2234
g74
(dp2235
sg83
g2082
sg76
(lp2236
g69
(g90
g71
NtRp2237
(dp2238
g74
(dp2239
g94
g95
ssg83
g2233
sg76
(lp2240
g1367
asbag69
(g90
g71
NtRp2241
(dp2242
g74
(dp2243
g101
g102
ssg83
g2233
sg76
(lp2244
S':'
asbag69
(g90
g71
NtRp2245
(dp2246
g74
(dp2247
sg83
g2233
sg76
(lp2248
g69
(g70
g71
NtRp2249
(dp2250
g74
(dp2251
g82
I4
ssg83
g2245
sg76
(lp2252
g112
asbasbasbag69
(g85
g71
NtRp2253
(dp2254
g74
(dp2255
sg83
g2082
sg76
(lp2256
g69
(g90
g71
NtRp2257
(dp2258
g74
(dp2259
g94
g95
ssg83
g2253
sg76
(lp2260
g1388
asbag69
(g90
g71
NtRp2261
(dp2262
g74
(dp2263
g101
g102
ssg83
g2253
sg76
(lp2264
S':'
asbag69
(g90
g71
NtRp2265
(dp2266
g74
(dp2267
sg83
g2253
sg76
(lp2268
g69
(g70
g71
NtRp2269
(dp2270
g74
(dp2271
g82
I4
ssg83
g2265
sg76
(lp2272
g112
asbasbasbag69
(g85
g71
NtRp2273
(dp2274
g74
(dp2275
sg83
g2082
sg76
(lp2276
g69
(g90
g71
NtRp2277
(dp2278
g74
(dp2279
g94
g95
ssg83
g2273
sg76
(lp2280
g1647
asbag69
(g90
g71
NtRp2281
(dp2282
g74
(dp2283
g101
g102
ssg83
g2273
sg76
(lp2284
S':'
asbag69
(g90
g71
NtRp2285
(dp2286
g74
(dp2287
sg83
g2273
sg76
(lp2288
g69
(g70
g71
NtRp2289
(dp2290
g74
(dp2291
g82
I4
ssg83
g2285
sg76
(lp2292
g1660
asbasbasbag69
(g85
g71
NtRp2293
(dp2294
g74
(dp2295
sg83
g2082
sg76
(lp2296
g69
(g90
g71
NtRp2297
(dp2298
g74
(dp2299
g94
g95
ssg83
g2293
sg76
(lp2300
g1690
asbag69
(g90
g71
NtRp2301
(dp2302
g74
(dp2303
g101
g102
ssg83
g2293
sg76
(lp2304
S':'
asbag69
(g90
g71
NtRp2305
(dp2306
g74
(dp2307
sg83
g2293
sg76
(lp2308
g69
(g70
g71
NtRp2309
(dp2310
g74
(dp2311
g82
I4
ssg83
g2305
sg76
(lp2312
g69
(g78
g71
NtRp2313
(dp2314
g74
(dp2315
g82
I3
ssg83
Nsg76
(lp2316
g69
(g85
g71
NtRp2317
(dp2318
g74
(dp2319
sg83
g2313
sg76
(lp2320
g69
(g90
g71
NtRp2321
(dp2322
g74
(dp2323
sg83
g2317
sg76
(lp2324
g69
(g70
g71
NtRp2325
(dp2326
g74
(dp2327
g82
I3
ssg83
g2321
sg76
(lp2328
S'2'
asbasbasbag69
(g85
g71
NtRp2329
(dp2330
g74
(dp2331
sg83
g2313
sg76
(lp2332
g69
(g90
g71
NtRp2333
(dp2334
g74
(dp2335
sg83
g2329
sg76
(lp2336
g69
(g70
g71
NtRp2337
(dp2338
g74
(dp2339
g82
I3
ssg83
g2333
sg76
(lp2340
S'0'
asbasbasbag69
(g85
g71
NtRp2341
(dp2342
g74
(dp2343
sg83
g2313
sg76
(lp2344
g69
(g90
g71
NtRp2345
(dp2346
g74
(dp2347
sg83
g2341
sg76
(lp2348
g69
(g70
g71
NtRp2349
(dp2350
g74
(dp2351
g82
I3
ssg83
g2345
sg76
(lp2352
S'9'
asbasbasbag69
(g85
g71
NtRp2353
(dp2354
g74
(dp2355
sg83
g2313
sg76
(lp2356
g69
(g90
g71
NtRp2357
(dp2358
g74
(dp2359
sg83
g2353
sg76
(lp2360
g69
(g70
g71
NtRp2361
(dp2362
g74
(dp2363
g82
I3
ssg83
g2357
sg76
(lp2364
S'datetime.datetime(2012, 9, 13, 23, 51, 30)'
p2365
asbasbasbag69
(g85
g71
NtRp2366
(dp2367
g74
(dp2368
sg83
g2313
sg76
(lp2369
g69
(g90
g71
NtRp2370
(dp2371
g74
(dp2372
sg83
g2366
sg76
(lp2373
g69
(g70
g71
NtRp2374
(dp2375
g74
(dp2376
g82
I3
ssg83
g2370
sg76
(lp2377
g1768
asbasbasbasbasbasbasbasbasbasbasbag69
(g85
g71
NtRp2378
(dp2379
g74
(dp2380
sg83
g79
sg76
(lp2381
g69
(g90
g71
NtRp2382
(dp2383
g74
(dp2384
g94
g95
ssg83
g2378
sg76
(lp2385
S'is_https'
p2386
asbag69
(g90
g71
NtRp2387
(dp2388
g74
(dp2389
g101
g102
ssg83
g2378
sg76
(lp2390
S':'
asbag69
(g90
g71
NtRp2391
(dp2392
g74
(dp2393
sg83
g2378
sg76
(lp2394
g69
(g70
g71
NtRp2395
(dp2396
g74
(dp2397
g82
I5
ssg83
g2391
sg76
(lp2398
g112
asbasbasbag69
(g85
g71
NtRp2399
(dp2400
g74
(dp2401
sg83
g79
sg76
(lp2402
g69
(g90
g71
NtRp2403
(dp2404
g74
(dp2405
g94
g95
ssg83
g2399
sg76
(lp2406
S'is_local'
p2407
asbag69
(g90
g71
NtRp2408
(dp2409
g74
(dp2410
g101
g102
ssg83
g2399
sg76
(lp2411
S':'
asbag69
(g90
g71
NtRp2412
(dp2413
g74
(dp2414
sg83
g2399
sg76
(lp2415
g69
(g70
g71
NtRp2416
(dp2417
g74
(dp2418
g82
I5
ssg83
g2412
sg76
(lp2419
g1877
asbasbasbag69
(g85
g71
NtRp2420
(dp2421
g74
(dp2422
sg83
g79
sg76
(lp2423
g69
(g90
g71
NtRp2424
(dp2425
g74
(dp2426
g94
g95
ssg83
g2420
sg76
(lp2427
S'is_restful'
p2428
asbag69
(g90
g71
NtRp2429
(dp2430
g74
(dp2431
g101
g102
ssg83
g2420
sg76
(lp2432
S':'
asbag69
(g90
g71
NtRp2433
(dp2434
g74
(dp2435
sg83
g2420
sg76
(lp2436
g69
(g70
g71
NtRp2437
(dp2438
g74
(dp2439
g82
I5
ssg83
g2433
sg76
(lp2440
g112
asbasbasbag69
(g85
g71
NtRp2441
(dp2442
g74
(dp2443
sg83
g79
sg76
(lp2444
g69
(g90
g71
NtRp2445
(dp2446
g74
(dp2447
g94
g95
ssg83
g2441
sg76
(lp2448
S'now'
p2449
asbag69
(g90
g71
NtRp2450
(dp2451
g74
(dp2452
g101
g102
ssg83
g2441
sg76
(lp2453
S':'
asbag69
(g90
g71
NtRp2454
(dp2455
g74
(dp2456
sg83
g2441
sg76
(lp2457
g69
(g70
g71
NtRp2458
(dp2459
g74
(dp2460
g82
I5
ssg83
g2454
sg76
(lp2461
S'datetime.datetime(2012, 10, 30, 15, 57, 3, 66042)'
p2462
asbasbasbag69
(g85
g71
NtRp2463
(dp2464
g74
(dp2465
sg83
g79
sg76
(lp2466
g69
(g90
g71
NtRp2467
(dp2468
g74
(dp2469
g94
g95
ssg83
g2463
sg76
(lp2470
S'post_vars'
p2471
asbag69
(g90
g71
NtRp2472
(dp2473
g74
(dp2474
g101
g102
ssg83
g2463
sg76
(lp2475
S':'
asbag69
(g90
g71
NtRp2476
(dp2477
g74
(dp2478
sg83
g2463
sg76
(lp2479
g69
(g70
g71
NtRp2480
(dp2481
g74
(dp2482
g82
I5
ssg83
g2476
sg76
(lp2483
g69
(g78
g71
NtRp2484
(dp2485
g74
(dp2486
g82
I4
ssg83
Nsg76
(lp2487
sbasbasbasbag69
(g85
g71
NtRp2488
(dp2489
g74
(dp2490
sg83
g79
sg76
(lp2491
g69
(g90
g71
NtRp2492
(dp2493
g74
(dp2494
g94
g95
ssg83
g2488
sg76
(lp2495
S'raw_args'
p2496
asbag69
(g90
g71
NtRp2497
(dp2498
g74
(dp2499
g101
g102
ssg83
g2488
sg76
(lp2500
S':'
asbag69
(g90
g71
NtRp2501
(dp2502
g74
(dp2503
sg83
g2488
sg76
(lp2504
g69
(g70
g71
NtRp2505
(dp2506
g74
(dp2507
g82
I5
ssg83
g2501
sg76
(lp2508
S'None'
p2509
asbasbasbag69
(g85
g71
NtRp2510
(dp2511
g74
(dp2512
sg83
g79
sg76
(lp2513
g69
(g90
g71
NtRp2514
(dp2515
g74
(dp2516
g94
g95
ssg83
g2510
sg76
(lp2517
S'raw_extension'
p2518
asbag69
(g90
g71
NtRp2519
(dp2520
g74
(dp2521
g101
g102
ssg83
g2510
sg76
(lp2522
S':'
asbag69
(g90
g71
NtRp2523
(dp2524
g74
(dp2525
sg83
g2510
sg76
(lp2526
g69
(g70
g71
NtRp2527
(dp2528
g74
(dp2529
g82
I5
ssg83
g2523
sg76
(lp2530
S'None'
p2531
asbasbasbag69
(g85
g71
NtRp2532
(dp2533
g74
(dp2534
sg83
g79
sg76
(lp2535
g69
(g90
g71
NtRp2536
(dp2537
g74
(dp2538
g94
g95
ssg83
g2532
sg76
(lp2539
S'url'
p2540
asbag69
(g90
g71
NtRp2541
(dp2542
g74
(dp2543
g101
g102
ssg83
g2532
sg76
(lp2544
S':'
asbag69
(g90
g71
NtRp2545
(dp2546
g74
(dp2547
sg83
g2532
sg76
(lp2548
g69
(g70
g71
NtRp2549
(dp2550
g74
(dp2551
g82
I5
ssg83
g2545
sg76
(lp2552
g1422
asbasbasbag69
(g85
g71
NtRp2553
(dp2554
g74
(dp2555
sg83
g79
sg76
(lp2556
g69
(g90
g71
NtRp2557
(dp2558
g74
(dp2559
g94
g95
ssg83
g2553
sg76
(lp2560
S'utcnow'
p2561
asbag69
(g90
g71
NtRp2562
(dp2563
g74
(dp2564
g101
g102
ssg83
g2553
sg76
(lp2565
S':'
asbag69
(g90
g71
NtRp2566
(dp2567
g74
(dp2568
sg83
g2553
sg76
(lp2569
g69
(g70
g71
NtRp2570
(dp2571
g74
(dp2572
g82
I5
ssg83
g2566
sg76
(lp2573
S'datetime.datetime(2012, 10, 30, 19, 57, 3, 66051)'
p2574
asbasbasbag69
(g85
g71
NtRp2575
(dp2576
g74
(dp2577
sg83
g79
sg76
(lp2578
g69
(g90
g71
NtRp2579
(dp2580
g74
(dp2581
g94
g95
ssg83
g2575
sg76
(lp2582
S'uuid'
p2583
asbag69
(g90
g71
NtRp2584
(dp2585
g74
(dp2586
g101
g102
ssg83
g2575
sg76
(lp2587
S':'
asbag69
(g90
g71
NtRp2588
(dp2589
g74
(dp2590
sg83
g2575
sg76
(lp2591
g69
(g70
g71
NtRp2592
(dp2593
g74
(dp2594
g82
I5
ssg83
g2588
sg76
(lp2595
S'newsFeed/127.0.0.1.2012-10-30.15-57-03.3bb314ce-a3bc-4b33-b142-6137b356b6d8'
p2596
asbasbasbag69
(g85
g71
NtRp2597
(dp2598
g74
(dp2599
sg83
g79
sg76
(lp2600
g69
(g90
g71
NtRp2601
(dp2602
g74
(dp2603
g94
g95
ssg83
g2597
sg76
(lp2604
S'vars'
p2605
asbag69
(g90
g71
NtRp2606
(dp2607
g74
(dp2608
g101
g102
ssg83
g2597
sg76
(lp2609
S':'
asbag69
(g90
g71
NtRp2610
(dp2611
g74
(dp2612
sg83
g2597
sg76
(lp2613
g69
(g70
g71
NtRp2614
(dp2615
g74
(dp2616
g82
I5
ssg83
g2610
sg76
(lp2617
g69
(g78
g71
NtRp2618
(dp2619
g74
(dp2620
g82
I4
ssg83
Nsg76
(lp2621
sbasbasbasbag69
(g85
g71
NtRp2622
(dp2623
g74
(dp2624
sg83
g79
sg76
(lp2625
g69
(g90
g71
NtRp2626
(dp2627
g74
(dp2628
g94
g95
ssg83
g2622
sg76
(lp2629
S'wsgi'
p2630
asbag69
(g90
g71
NtRp2631
(dp2632
g74
(dp2633
g101
g102
ssg83
g2622
sg76
(lp2634
S':'
asbag69
(g90
g71
NtRp2635
(dp2636
g74
(dp2637
sg83
g2622
sg76
(lp2638
g69
(g70
g71
NtRp2639
(dp2640
g74
(dp2641
g82
I5
ssg83
g2635
sg76
(lp2642
g69
(g78
g71
NtRp2643
(dp2644
g74
(dp2645
g82
I4
ssg83
Nsg76
(lp2646
g69
(g85
g71
NtRp2647
(dp2648
g74
(dp2649
sg83
g2643
sg76
(lp2650
g69
(g90
g71
NtRp2651
(dp2652
g74
(dp2653
g94
g95
ssg83
g2647
sg76
(lp2654
S'environ'
p2655
asbag69
(g90
g71
NtRp2656
(dp2657
g74
(dp2658
g101
g102
ssg83
g2647
sg76
(lp2659
S':'
asbag69
(g90
g71
NtRp2660
(dp2661
g74
(dp2662
sg83
g2647
sg76
(lp2663
g69
(g70
g71
NtRp2664
(dp2665
g74
(dp2666
g82
I4
ssg83
g2660
sg76
(lp2667
g69
(g78
g71
NtRp2668
(dp2669
g74
(dp2670
g82
I3
ssg83
Nsg76
(lp2671
g69
(g85
g71
NtRp2672
(dp2673
g74
(dp2674
sg83
g2668
sg76
(lp2675
g69
(g90
g71
NtRp2676
(dp2677
g74
(dp2678
g94
g95
ssg83
g2672
sg76
(lp2679
S'HTTP_ACCEPT'
p2680
asbag69
(g90
g71
NtRp2681
(dp2682
g74
(dp2683
g101
g102
ssg83
g2672
sg76
(lp2684
S':'
asbag69
(g90
g71
NtRp2685
(dp2686
g74
(dp2687
sg83
g2672
sg76
(lp2688
g69
(g70
g71
NtRp2689
(dp2690
g74
(dp2691
g82
I3
ssg83
g2685
sg76
(lp2692
g1226
asbasbasbag69
(g85
g71
NtRp2693
(dp2694
g74
(dp2695
sg83
g2668
sg76
(lp2696
g69
(g90
g71
NtRp2697
(dp2698
g74
(dp2699
g94
g95
ssg83
g2693
sg76
(lp2700
S'HTTP_ACCEPT_ENCODING'
p2701
asbag69
(g90
g71
NtRp2702
(dp2703
g74
(dp2704
g101
g102
ssg83
g2693
sg76
(lp2705
S':'
asbag69
(g90
g71
NtRp2706
(dp2707
g74
(dp2708
sg83
g2693
sg76
(lp2709
g69
(g70
g71
NtRp2710
(dp2711
g74
(dp2712
g82
I3
ssg83
g2706
sg76
(lp2713
g1248
asbasbasbag69
(g85
g71
NtRp2714
(dp2715
g74
(dp2716
sg83
g2668
sg76
(lp2717
g69
(g90
g71
NtRp2718
(dp2719
g74
(dp2720
g94
g95
ssg83
g2714
sg76
(lp2721
S'HTTP_ACCEPT_LANGUAGE'
p2722
asbag69
(g90
g71
NtRp2723
(dp2724
g74
(dp2725
g101
g102
ssg83
g2714
sg76
(lp2726
S':'
asbag69
(g90
g71
NtRp2727
(dp2728
g74
(dp2729
sg83
g2714
sg76
(lp2730
g69
(g70
g71
NtRp2731
(dp2732
g74
(dp2733
g82
I3
ssg83
g2727
sg76
(lp2734
g1270
asbasbasbag69
(g85
g71
NtRp2735
(dp2736
g74
(dp2737
sg83
g2668
sg76
(lp2738
g69
(g90
g71
NtRp2739
(dp2740
g74
(dp2741
g94
g95
ssg83
g2735
sg76
(lp2742
S'HTTP_CONNECTION'
p2743
asbag69
(g90
g71
NtRp2744
(dp2745
g74
(dp2746
g101
g102
ssg83
g2735
sg76
(lp2747
S':'
asbag69
(g90
g71
NtRp2748
(dp2749
g74
(dp2750
sg83
g2735
sg76
(lp2751
g69
(g70
g71
NtRp2752
(dp2753
g74
(dp2754
g82
I3
ssg83
g2748
sg76
(lp2755
g1292
asbasbasbag69
(g85
g71
NtRp2756
(dp2757
g74
(dp2758
sg83
g2668
sg76
(lp2759
g69
(g90
g71
NtRp2760
(dp2761
g74
(dp2762
g94
g95
ssg83
g2756
sg76
(lp2763
S'HTTP_COOKIE'
p2764
asbag69
(g90
g71
NtRp2765
(dp2766
g74
(dp2767
g101
g102
ssg83
g2756
sg76
(lp2768
S':'
asbag69
(g90
g71
NtRp2769
(dp2770
g74
(dp2771
sg83
g2756
sg76
(lp2772
g69
(g70
g71
NtRp2773
(dp2774
g74
(dp2775
g82
I3
ssg83
g2769
sg76
(lp2776
g1314
asbasbasbag69
(g85
g71
NtRp2777
(dp2778
g74
(dp2779
sg83
g2668
sg76
(lp2780
g69
(g90
g71
NtRp2781
(dp2782
g74
(dp2783
g94
g95
ssg83
g2777
sg76
(lp2784
S'HTTP_HOST'
p2785
asbag69
(g90
g71
NtRp2786
(dp2787
g74
(dp2788
g101
g102
ssg83
g2777
sg76
(lp2789
S':'
asbag69
(g90
g71
NtRp2790
(dp2791
g74
(dp2792
sg83
g2777
sg76
(lp2793
g69
(g70
g71
NtRp2794
(dp2795
g74
(dp2796
g82
I3
ssg83
g2790
sg76
(lp2797
g1336
asbasbasbag69
(g85
g71
NtRp2798
(dp2799
g74
(dp2800
sg83
g2668
sg76
(lp2801
g69
(g90
g71
NtRp2802
(dp2803
g74
(dp2804
g94
g95
ssg83
g2798
sg76
(lp2805
S'HTTP_USER_AGENT'
p2806
asbag69
(g90
g71
NtRp2807
(dp2808
g74
(dp2809
g101
g102
ssg83
g2798
sg76
(lp2810
S':'
asbag69
(g90
g71
NtRp2811
(dp2812
g74
(dp2813
sg83
g2798
sg76
(lp2814
g69
(g70
g71
NtRp2815
(dp2816
g74
(dp2817
g82
I3
ssg83
g2811
sg76
(lp2818
g1358
asbasbasbag69
(g85
g71
NtRp2819
(dp2820
g74
(dp2821
sg83
g2668
sg76
(lp2822
g69
(g90
g71
NtRp2823
(dp2824
g74
(dp2825
g94
g95
ssg83
g2819
sg76
(lp2826
S'PATH_INFO'
p2827
asbag69
(g90
g71
NtRp2828
(dp2829
g74
(dp2830
g101
g102
ssg83
g2819
sg76
(lp2831
S':'
asbag69
(g90
g71
NtRp2832
(dp2833
g74
(dp2834
sg83
g2819
sg76
(lp2835
g69
(g70
g71
NtRp2836
(dp2837
g74
(dp2838
g82
I3
ssg83
g2832
sg76
(lp2839
g1422
asbasbasbag69
(g85
g71
NtRp2840
(dp2841
g74
(dp2842
sg83
g2668
sg76
(lp2843
g69
(g90
g71
NtRp2844
(dp2845
g74
(dp2846
g94
g95
ssg83
g2840
sg76
(lp2847
S'QUERY_STRING'
p2848
asbag69
(g90
g71
NtRp2849
(dp2850
g74
(dp2851
g101
g102
ssg83
g2840
sg76
(lp2852
S':'
asbag69
(g90
g71
NtRp2853
(dp2854
g74
(dp2855
sg83
g2840
sg76
(lp2856
g69
(g70
g71
NtRp2857
(dp2858
g74
(dp2859
g82
I3
ssg83
g2853
sg76
(lp2860
S''
asbasbasbag69
(g85
g71
NtRp2861
(dp2862
g74
(dp2863
sg83
g2668
sg76
(lp2864
g69
(g90
g71
NtRp2865
(dp2866
g74
(dp2867
g94
g95
ssg83
g2861
sg76
(lp2868
S'REMOTE_ADDR'
p2869
asbag69
(g90
g71
NtRp2870
(dp2871
g74
(dp2872
g101
g102
ssg83
g2861
sg76
(lp2873
S':'
asbag69
(g90
g71
NtRp2874
(dp2875
g74
(dp2876
sg83
g2861
sg76
(lp2877
g69
(g70
g71
NtRp2878
(dp2879
g74
(dp2880
g82
I3
ssg83
g2874
sg76
(lp2881
g224
asbasbasbag69
(g85
g71
NtRp2882
(dp2883
g74
(dp2884
sg83
g2668
sg76
(lp2885
g69
(g90
g71
NtRp2886
(dp2887
g74
(dp2888
g94
g95
ssg83
g2882
sg76
(lp2889
S'REMOTE_PORT'
p2890
asbag69
(g90
g71
NtRp2891
(dp2892
g74
(dp2893
g101
g102
ssg83
g2882
sg76
(lp2894
S':'
asbag69
(g90
g71
NtRp2895
(dp2896
g74
(dp2897
sg83
g2882
sg76
(lp2898
g69
(g70
g71
NtRp2899
(dp2900
g74
(dp2901
g82
I3
ssg83
g2895
sg76
(lp2902
g1486
asbasbasbag69
(g85
g71
NtRp2903
(dp2904
g74
(dp2905
sg83
g2668
sg76
(lp2906
g69
(g90
g71
NtRp2907
(dp2908
g74
(dp2909
g94
g95
ssg83
g2903
sg76
(lp2910
S'REQUEST_METHOD'
p2911
asbag69
(g90
g71
NtRp2912
(dp2913
g74
(dp2914
g101
g102
ssg83
g2903
sg76
(lp2915
S':'
asbag69
(g90
g71
NtRp2916
(dp2917
g74
(dp2918
sg83
g2903
sg76
(lp2919
g69
(g70
g71
NtRp2920
(dp2921
g74
(dp2922
g82
I3
ssg83
g2916
sg76
(lp2923
g1508
asbasbasbag69
(g85
g71
NtRp2924
(dp2925
g74
(dp2926
sg83
g2668
sg76
(lp2927
g69
(g90
g71
NtRp2928
(dp2929
g74
(dp2930
g94
g95
ssg83
g2924
sg76
(lp2931
S'REQUEST_URI'
p2932
asbag69
(g90
g71
NtRp2933
(dp2934
g74
(dp2935
g101
g102
ssg83
g2924
sg76
(lp2936
S':'
asbag69
(g90
g71
NtRp2937
(dp2938
g74
(dp2939
sg83
g2924
sg76
(lp2940
g69
(g70
g71
NtRp2941
(dp2942
g74
(dp2943
g82
I3
ssg83
g2937
sg76
(lp2944
g1422
asbasbasbag69
(g85
g71
NtRp2945
(dp2946
g74
(dp2947
sg83
g2668
sg76
(lp2948
g69
(g90
g71
NtRp2949
(dp2950
g74
(dp2951
g94
g95
ssg83
g2945
sg76
(lp2952
S'SCRIPT_NAME'
p2953
asbag69
(g90
g71
NtRp2954
(dp2955
g74
(dp2956
g101
g102
ssg83
g2945
sg76
(lp2957
S':'
asbag69
(g90
g71
NtRp2958
(dp2959
g74
(dp2960
sg83
g2945
sg76
(lp2961
g69
(g70
g71
NtRp2962
(dp2963
g74
(dp2964
g82
I3
ssg83
g2958
sg76
(lp2965
S''
asbasbasbag69
(g85
g71
NtRp2966
(dp2967
g74
(dp2968
sg83
g2668
sg76
(lp2969
g69
(g90
g71
NtRp2970
(dp2971
g74
(dp2972
g94
g95
ssg83
g2966
sg76
(lp2973
S'SERVER_NAME'
p2974
asbag69
(g90
g71
NtRp2975
(dp2976
g74
(dp2977
g101
g102
ssg83
g2966
sg76
(lp2978
S':'
asbag69
(g90
g71
NtRp2979
(dp2980
g74
(dp2981
sg83
g2966
sg76
(lp2982
g69
(g70
g71
NtRp2983
(dp2984
g74
(dp2985
g82
I3
ssg83
g2979
sg76
(lp2986
g1572
asbasbasbag69
(g85
g71
NtRp2987
(dp2988
g74
(dp2989
sg83
g2668
sg76
(lp2990
g69
(g90
g71
NtRp2991
(dp2992
g74
(dp2993
g94
g95
ssg83
g2987
sg76
(lp2994
S'SERVER_PORT'
p2995
asbag69
(g90
g71
NtRp2996
(dp2997
g74
(dp2998
g101
g102
ssg83
g2987
sg76
(lp2999
S':'
asbag69
(g90
g71
NtRp3000
(dp3001
g74
(dp3002
sg83
g2987
sg76
(lp3003
g69
(g70
g71
NtRp3004
(dp3005
g74
(dp3006
g82
I3
ssg83
g3000
sg76
(lp3007
g1594
asbasbasbag69
(g85
g71
NtRp3008
(dp3009
g74
(dp3010
sg83
g2668
sg76
(lp3011
g69
(g90
g71
NtRp3012
(dp3013
g74
(dp3014
g94
g95
ssg83
g3008
sg76
(lp3015
S'SERVER_PROTOCOL'
p3016
asbag69
(g90
g71
NtRp3017
(dp3018
g74
(dp3019
g101
g102
ssg83
g3008
sg76
(lp3020
S':'
asbag69
(g90
g71
NtRp3021
(dp3022
g74
(dp3023
sg83
g3008
sg76
(lp3024
g69
(g70
g71
NtRp3025
(dp3026
g74
(dp3027
g82
I3
ssg83
g3021
sg76
(lp3028
g1616
asbasbasbag69
(g85
g71
NtRp3029
(dp3030
g74
(dp3031
sg83
g2668
sg76
(lp3032
g69
(g90
g71
NtRp3033
(dp3034
g74
(dp3035
g94
g95
ssg83
g3029
sg76
(lp3036
S'SERVER_SOFTWARE'
p3037
asbag69
(g90
g71
NtRp3038
(dp3039
g74
(dp3040
g101
g102
ssg83
g3029
sg76
(lp3041
S':'
asbag69
(g90
g71
NtRp3042
(dp3043
g74
(dp3044
sg83
g3029
sg76
(lp3045
g69
(g70
g71
NtRp3046
(dp3047
g74
(dp3048
g82
I3
ssg83
g3042
sg76
(lp3049
g1638
asbasbasbag69
(g85
g71
NtRp3050
(dp3051
g74
(dp3052
sg83
g2668
sg76
(lp3053
g69
(g90
g71
NtRp3054
(dp3055
g74
(dp3056
g94
g95
ssg83
g3050
sg76
(lp3057
S'wsgi.errors'
p3058
asbag69
(g90
g71
NtRp3059
(dp3060
g74
(dp3061
g101
g102
ssg83
g3050
sg76
(lp3062
S':'
asbag69
(g90
g71
NtRp3063
(dp3064
g74
(dp3065
sg83
g3050
sg76
(lp3066
g69
(g70
g71
NtRp3067
(dp3068
g74
(dp3069
g82
I3
ssg83
g3063
sg76
(lp3070
S"<open file '<stderr>', mode 'w' at 0x100284270>"
p3071
asbasbasbag69
(g85
g71
NtRp3072
(dp3073
g74
(dp3074
sg83
g2668
sg76
(lp3075
g69
(g90
g71
NtRp3076
(dp3077
g74
(dp3078
g94
g95
ssg83
g3072
sg76
(lp3079
S'wsgi.file_wrapper'
p3080
asbag69
(g90
g71
NtRp3081
(dp3082
g74
(dp3083
g101
g102
ssg83
g3072
sg76
(lp3084
S':'
asbag69
(g90
g71
NtRp3085
(dp3086
g74
(dp3087
sg83
g3072
sg76
(lp3088
g69
(g70
g71
NtRp3089
(dp3090
g74
(dp3091
g82
I3
ssg83
g3085
sg76
(lp3092
S'<class wsgiref.util.FileWrapper at 0x101c53bb0>'
p3093
asbasbasbag69
(g85
g71
NtRp3094
(dp3095
g74
(dp3096
sg83
g2668
sg76
(lp3097
g69
(g90
g71
NtRp3098
(dp3099
g74
(dp3100
g94
g95
ssg83
g3094
sg76
(lp3101
S'wsgi.input'
p3102
asbag69
(g90
g71
NtRp3103
(dp3104
g74
(dp3105
g101
g102
ssg83
g3094
sg76
(lp3106
S':'
asbag69
(g90
g71
NtRp3107
(dp3108
g74
(dp3109
sg83
g3094
sg76
(lp3110
g69
(g70
g71
NtRp3111
(dp3112
g74
(dp3113
g82
I3
ssg83
g3107
sg76
(lp3114
S'<cStringIO.StringO object at 0x10890e180>'
p3115
asbasbasbag69
(g85
g71
NtRp3116
(dp3117
g74
(dp3118
sg83
g2668
sg76
(lp3119
g69
(g90
g71
NtRp3120
(dp3121
g74
(dp3122
g94
g95
ssg83
g3116
sg76
(lp3123
S'wsgi.multiprocess'
p3124
asbag69
(g90
g71
NtRp3125
(dp3126
g74
(dp3127
g101
g102
ssg83
g3116
sg76
(lp3128
S':'
asbag69
(g90
g71
NtRp3129
(dp3130
g74
(dp3131
sg83
g3116
sg76
(lp3132
g69
(g70
g71
NtRp3133
(dp3134
g74
(dp3135
g82
I3
ssg83
g3129
sg76
(lp3136
g112
asbasbasbag69
(g85
g71
NtRp3137
(dp3138
g74
(dp3139
sg83
g2668
sg76
(lp3140
g69
(g90
g71
NtRp3141
(dp3142
g74
(dp3143
g94
g95
ssg83
g3137
sg76
(lp3144
S'wsgi.multithread'
p3145
asbag69
(g90
g71
NtRp3146
(dp3147
g74
(dp3148
g101
g102
ssg83
g3137
sg76
(lp3149
S':'
asbag69
(g90
g71
NtRp3150
(dp3151
g74
(dp3152
sg83
g3137
sg76
(lp3153
g69
(g70
g71
NtRp3154
(dp3155
g74
(dp3156
g82
I3
ssg83
g3150
sg76
(lp3157
g1877
asbasbasbag69
(g85
g71
NtRp3158
(dp3159
g74
(dp3160
sg83
g2668
sg76
(lp3161
g69
(g90
g71
NtRp3162
(dp3163
g74
(dp3164
g94
g95
ssg83
g3158
sg76
(lp3165
S'wsgi.run_once'
p3166
asbag69
(g90
g71
NtRp3167
(dp3168
g74
(dp3169
g101
g102
ssg83
g3158
sg76
(lp3170
S':'
asbag69
(g90
g71
NtRp3171
(dp3172
g74
(dp3173
sg83
g3158
sg76
(lp3174
g69
(g70
g71
NtRp3175
(dp3176
g74
(dp3177
g82
I3
ssg83
g3171
sg76
(lp3178
g112
asbasbasbag69
(g85
g71
NtRp3179
(dp3180
g74
(dp3181
sg83
g2668
sg76
(lp3182
g69
(g90
g71
NtRp3183
(dp3184
g74
(dp3185
g94
g95
ssg83
g3179
sg76
(lp3186
S'wsgi.url_scheme'
p3187
asbag69
(g90
g71
NtRp3188
(dp3189
g74
(dp3190
g101
g102
ssg83
g3179
sg76
(lp3191
S':'
asbag69
(g90
g71
NtRp3192
(dp3193
g74
(dp3194
sg83
g3179
sg76
(lp3195
g69
(g70
g71
NtRp3196
(dp3197
g74
(dp3198
g82
I3
ssg83
g3192
sg76
(lp3199
g1920
asbasbasbag69
(g85
g71
NtRp3200
(dp3201
g74
(dp3202
sg83
g2668
sg76
(lp3203
g69
(g90
g71
NtRp3204
(dp3205
g74
(dp3206
g94
g95
ssg83
g3200
sg76
(lp3207
S'wsgi.version'
p3208
asbag69
(g90
g71
NtRp3209
(dp3210
g74
(dp3211
g101
g102
ssg83
g3200
sg76
(lp3212
S':'
asbag69
(g90
g71
NtRp3213
(dp3214
g74
(dp3215
sg83
g3200
sg76
(lp3216
g69
(g70
g71
NtRp3217
(dp3218
g74
(dp3219
g82
I3
ssg83
g3213
sg76
(lp3220
S'1'
asbasbasbasbasbasbasbasbasbasbasbasbasbsS'frames'
p3221
(lp3222
(dp3223
S'file'
p3224
S'/Users/Karl/code/web2py/gluon/restricted.py'
p3225
sS'dump'
p3226
(dp3227
S'code'
p3228
S"'def index():\\n    images = db().select(db.image.A...uest, db)\\nresponse._vars=response._caller(index)\\n'"
p3229
sS'layer'
p3230
S"'/Users/Karl/code/web2py/applications/newsFeed/controllers/default.py'"
p3231
sS'global compile2'
p3232
S'<function compile2>'
p3233
sS'ccode'
p3234
S'undefined'
p3235
ssS'lnum'
p3236
I208
sS'lines'
p3237
(dp3238
I203
S"    environment['__name__'] = '__restricted__'"
p3239
sI204
S'    try:'
p3240
sI205
S'        if type(code) == types.CodeType:'
p3241
sI206
S'            ccode = code'
p3242
sI207
S'        else:'
p3243
sI208
S'            ccode = compile2(code,layer)'
p3244
sI209
S'        exec ccode in environment'
p3245
sI210
S'    except HTTP:'
p3246
sI211
S'        raise'
p3247
sI212
S'    except RestrictedError:'
p3248
ssS'call'
p3249
S"(code='def index():\\n    images = db().select(db.image.A...uest, db)\\nresponse._vars=response._caller(index)\\n', environment={'A': <class 'gluon.html.A'>, 'B': <class 'gluon.html.B'>, 'BEAUTIFY': <class 'gluon.html.BEAUTIFY'>, 'BODY': <class 'gluon.html.BODY'>, 'BR': <class 'gluon.html.BR'>, 'BUTTON': <class 'gluon.html.BUTTON'>, 'CAT': <class 'gluon.html.CAT'>, 'CENTER': <class 'gluon.html.CENTER'>, 'CLEANUP': <class 'gluon.validators.CLEANUP'>, 'CODE': <class 'gluon.html.CODE'>, ...}, layer='/Users/Karl/code/web2py/applications/newsFeed/controllers/default.py')"
p3250
sS'func'
p3251
S'restricted'
p3252
sa(dp3253
g3224
S'/Users/Karl/code/web2py/gluon/restricted.py'
p3254
sg3226
(dp3255
S'builtincompile'
p3256
S'<built-in function compile>'
p3257
sS'code'
p3258
S"'def index():\\n    images = db().select(db.image.A...uest, db)\\nresponse._vars=response._caller(index)\\n'"
p3259
sS'code.rstrip'
p3260
S'<built-in method rstrip of str object>'
p3261
sS').replace'
p3262
g3235
sS'layer'
p3263
S"'/Users/Karl/code/web2py/applications/newsFeed/controllers/default.py'"
p3264
ssg3236
I193
sg3237
(dp3265
I192
S'    """'
p3266
sI193
S"    return compile(code.rstrip().replace('\\r\\n','\\n')+'\\n', layer, 'exec')"
p3267
sI194
S''
sI195
S"def restricted(code, environment=None, layer='Unknown'):"
p3268
sI196
S'    """'
p3269
sI197
S'    runs code in environment and returns the output. if an exception occurs'
p3270
sI188
S''
sI189
S'def compile2(code,layer):'
p3271
sI190
S'    """'
p3272
sI191
S"    The +'\\n' is necessary else compile fails when code ends in a comment."
p3273
ssg3249
S"(code='def index():\\n    images = db().select(db.image.A...uest, db)\\nresponse._vars=response._caller(index)\\n', layer='/Users/Karl/code/web2py/applications/newsFeed/controllers/default.py')"
p3274
sg3251
S'compile2'
p3275
sasS'pyver'
p3276
S'Python 2.7.3: /Library/Frameworks/Python.framework/Versions/2.7/Resources/Python.app/Contents/MacOS/Python'
p3277
sS'session'
p3278
g69
(g70
g71
NtRp3279
(dp3280
g74
(dp3281
sg76
(lp3282
g69
(g78
g71
NtRp3283
(dp3284
g74
(dp3285
g82
I5
ssg83
Nsg76
(lp3286
sbasbsS'etype'
p3287
S"<type 'exceptions.SyntaxError'>"
p3288
sS'date'
p3289
S'Tue Oct 30 15:57:03 2012'
p3290
sS'response'
p3291
g69
(g70
g71
NtRp3292
(dp3293
g74
(dp3294
sg76
(lp3295
g69
(g78
g71
NtRp3296
(dp3297
g74
(dp3298
g82
I5
ssg83
Nsg76
(lp3299
g69
(g85
g71
NtRp3300
(dp3301
g74
(dp3302
sg83
g3296
sg76
(lp3303
g69
(g90
g71
NtRp3304
(dp3305
g74
(dp3306
g94
g95
ssg83
g3300
sg76
(lp3307
g167
asbag69
(g90
g71
NtRp3308
(dp3309
g74
(dp3310
g101
g102
ssg83
g3300
sg76
(lp3311
S':'
asbag69
(g90
g71
NtRp3312
(dp3313
g74
(dp3314
sg83
g3300
sg76
(lp3315
g69
(g70
g71
NtRp3316
(dp3317
g74
(dp3318
g82
I5
ssg83
g3312
sg76
(lp3319
S'<cStringIO.StringO object at 0x10a7b0b90>'
p3320
asbasbasbag69
(g85
g71
NtRp3321
(dp3322
g74
(dp3323
sg83
g3296
sg76
(lp3324
g69
(g90
g71
NtRp3325
(dp3326
g74
(dp3327
g94
g95
ssg83
g3321
sg76
(lp3328
g255
asbag69
(g90
g71
NtRp3329
(dp3330
g74
(dp3331
g101
g102
ssg83
g3321
sg76
(lp3332
S':'
asbag69
(g90
g71
NtRp3333
(dp3334
g74
(dp3335
sg83
g3321
sg76
(lp3336
g69
(g70
g71
NtRp3337
(dp3338
g74
(dp3339
g82
I5
ssg83
g3333
sg76
(lp3340
g69
(g78
g71
NtRp3341
(dp3342
g74
(dp3343
g82
I4
ssg83
Nsg76
(lp3344
g69
(g85
g71
NtRp3345
(dp3346
g74
(dp3347
sg83
g3341
sg76
(lp3348
g69
(g90
g71
NtRp3349
(dp3350
g74
(dp3351
g94
g95
ssg83
g3345
sg76
(lp3352
S'session_id_newsfeed'
p3353
asbag69
(g90
g71
NtRp3354
(dp3355
g74
(dp3356
g101
g102
ssg83
g3345
sg76
(lp3357
S':'
asbag69
(g90
g71
NtRp3358
(dp3359
g74
(dp3360
sg83
g3345
sg76
(lp3361
g69
(g70
g71
NtRp3362
(dp3363
g74
(dp3364
g82
I4
ssg83
g3358
sg76
(lp3365
g487
ag69
(g78
g71
NtRp3366
(dp3367
g74
(dp3368
g82
I3
ssg83
Nsg76
(lp3369
g69
(g85
g71
NtRp3370
(dp3371
g74
(dp3372
sg83
g3366
sg76
(lp3373
g69
(g90
g71
NtRp3374
(dp3375
g74
(dp3376
g94
g95
ssg83
g3370
sg76
(lp3377
g306
asbag69
(g90
g71
NtRp3378
(dp3379
g74
(dp3380
g101
g102
ssg83
g3370
sg76
(lp3381
S':'
asbag69
(g90
g71
NtRp3382
(dp3383
g74
(dp3384
sg83
g3370
sg76
(lp3385
g69
(g70
g71
NtRp3386
(dp3387
g74
(dp3388
g82
I3
ssg83
g3382
sg76
(lp3389
S''
asbasbasbag69
(g85
g71
NtRp3390
(dp3391
g74
(dp3392
sg83
g3366
sg76
(lp3393
g69
(g90
g71
NtRp3394
(dp3395
g74
(dp3396
g94
g95
ssg83
g3390
sg76
(lp3397
g327
asbag69
(g90
g71
NtRp3398
(dp3399
g74
(dp3400
g101
g102
ssg83
g3390
sg76
(lp3401
S':'
asbag69
(g90
g71
NtRp3402
(dp3403
g74
(dp3404
sg83
g3390
sg76
(lp3405
g69
(g70
g71
NtRp3406
(dp3407
g74
(dp3408
g82
I3
ssg83
g3402
sg76
(lp3409
S''
asbasbasbag69
(g85
g71
NtRp3410
(dp3411
g74
(dp3412
sg83
g3366
sg76
(lp3413
g69
(g90
g71
NtRp3414
(dp3415
g74
(dp3416
g94
g95
ssg83
g3410
sg76
(lp3417
g348
asbag69
(g90
g71
NtRp3418
(dp3419
g74
(dp3420
g101
g102
ssg83
g3410
sg76
(lp3421
S':'
asbag69
(g90
g71
NtRp3422
(dp3423
g74
(dp3424
sg83
g3410
sg76
(lp3425
g69
(g70
g71
NtRp3426
(dp3427
g74
(dp3428
g82
I3
ssg83
g3422
sg76
(lp3429
S''
asbasbasbag69
(g85
g71
NtRp3430
(dp3431
g74
(dp3432
sg83
g3366
sg76
(lp3433
g69
(g90
g71
NtRp3434
(dp3435
g74
(dp3436
g94
g95
ssg83
g3430
sg76
(lp3437
g369
asbag69
(g90
g71
NtRp3438
(dp3439
g74
(dp3440
g101
g102
ssg83
g3430
sg76
(lp3441
S':'
asbag69
(g90
g71
NtRp3442
(dp3443
g74
(dp3444
sg83
g3430
sg76
(lp3445
g69
(g70
g71
NtRp3446
(dp3447
g74
(dp3448
g82
I3
ssg83
g3442
sg76
(lp3449
S''
asbasbasbag69
(g85
g71
NtRp3450
(dp3451
g74
(dp3452
sg83
g3366
sg76
(lp3453
g69
(g90
g71
NtRp3454
(dp3455
g74
(dp3456
g94
g95
ssg83
g3450
sg76
(lp3457
g390
asbag69
(g90
g71
NtRp3458
(dp3459
g74
(dp3460
g101
g102
ssg83
g3450
sg76
(lp3461
S':'
asbag69
(g90
g71
NtRp3462
(dp3463
g74
(dp3464
sg83
g3450
sg76
(lp3465
g69
(g70
g71
NtRp3466
(dp3467
g74
(dp3468
g82
I3
ssg83
g3462
sg76
(lp3469
S''
asbasbasbag69
(g85
g71
NtRp3470
(dp3471
g74
(dp3472
sg83
g3366
sg76
(lp3473
g69
(g90
g71
NtRp3474
(dp3475
g74
(dp3476
g94
g95
ssg83
g3470
sg76
(lp3477
g411
asbag69
(g90
g71
NtRp3478
(dp3479
g74
(dp3480
g101
g102
ssg83
g3470
sg76
(lp3481
S':'
asbag69
(g90
g71
NtRp3482
(dp3483
g74
(dp3484
sg83
g3470
sg76
(lp3485
g69
(g70
g71
NtRp3486
(dp3487
g74
(dp3488
g82
I3
ssg83
g3482
sg76
(lp3489
S'/'
asbasbasbag69
(g85
g71
NtRp3490
(dp3491
g74
(dp3492
sg83
g3366
sg76
(lp3493
g69
(g90
g71
NtRp3494
(dp3495
g74
(dp3496
g94
g95
ssg83
g3490
sg76
(lp3497
g432
asbag69
(g90
g71
NtRp3498
(dp3499
g74
(dp3500
g101
g102
ssg83
g3490
sg76
(lp3501
S':'
asbag69
(g90
g71
NtRp3502
(dp3503
g74
(dp3504
sg83
g3490
sg76
(lp3505
g69
(g70
g71
NtRp3506
(dp3507
g74
(dp3508
g82
I3
ssg83
g3502
sg76
(lp3509
S''
asbasbasbag69
(g85
g71
NtRp3510
(dp3511
g74
(dp3512
sg83
g3366
sg76
(lp3513
g69
(g90
g71
NtRp3514
(dp3515
g74
(dp3516
g94
g95
ssg83
g3510
sg76
(lp3517
g453
asbag69
(g90
g71
NtRp3518
(dp3519
g74
(dp3520
g101
g102
ssg83
g3510
sg76
(lp3521
S':'
asbag69
(g90
g71
NtRp3522
(dp3523
g74
(dp3524
sg83
g3510
sg76
(lp3525
g69
(g70
g71
NtRp3526
(dp3527
g74
(dp3528
g82
I3
ssg83
g3522
sg76
(lp3529
S''
asbasbasbasbasbasbasbasbasbasbasbag69
(g85
g71
NtRp3530
(dp3531
g74
(dp3532
sg83
g3296
sg76
(lp3533
g69
(g90
g71
NtRp3534
(dp3535
g74
(dp3536
g94
g95
ssg83
g3530
sg76
(lp3537
S'delimiters'
p3538
asbag69
(g90
g71
NtRp3539
(dp3540
g74
(dp3541
g101
g102
ssg83
g3530
sg76
(lp3542
S':'
asbag69
(g90
g71
NtRp3543
(dp3544
g74
(dp3545
sg83
g3530
sg76
(lp3546
g69
(g70
g71
NtRp3547
(dp3548
g74
(dp3549
g82
I5
ssg83
g3543
sg76
(lp3550
g69
(g78
g71
NtRp3551
(dp3552
g74
(dp3553
g82
I4
ssg83
Nsg76
(lp3554
g69
(g85
g71
NtRp3555
(dp3556
g74
(dp3557
sg83
g3551
sg76
(lp3558
g69
(g90
g71
NtRp3559
(dp3560
g74
(dp3561
sg83
g3555
sg76
(lp3562
g69
(g70
g71
NtRp3563
(dp3564
g74
(dp3565
g82
I4
ssg83
g3559
sg76
(lp3566
S'{{'
p3567
asbasbasbag69
(g85
g71
NtRp3568
(dp3569
g74
(dp3570
sg83
g3551
sg76
(lp3571
g69
(g90
g71
NtRp3572
(dp3573
g74
(dp3574
sg83
g3568
sg76
(lp3575
g69
(g70
g71
NtRp3576
(dp3577
g74
(dp3578
g82
I4
ssg83
g3572
sg76
(lp3579
S'}}'
p3580
asbasbasbasbasbasbasbag69
(g85
g71
NtRp3581
(dp3582
g74
(dp3583
sg83
g3296
sg76
(lp3584
g69
(g90
g71
NtRp3585
(dp3586
g74
(dp3587
g94
g95
ssg83
g3581
sg76
(lp3588
S'files'
p3589
asbag69
(g90
g71
NtRp3590
(dp3591
g74
(dp3592
g101
g102
ssg83
g3581
sg76
(lp3593
S':'
asbag69
(g90
g71
NtRp3594
(dp3595
g74
(dp3596
sg83
g3581
sg76
(lp3597
g69
(g70
g71
NtRp3598
(dp3599
g74
(dp3600
g82
I5
ssg83
g3594
sg76
(lp3601
g69
(g78
g71
NtRp3602
(dp3603
g74
(dp3604
g82
I4
ssg83
Nsg76
(lp3605
sbasbasbasbag69
(g85
g71
NtRp3606
(dp3607
g74
(dp3608
sg83
g3296
sg76
(lp3609
g69
(g90
g71
NtRp3610
(dp3611
g74
(dp3612
g94
g95
ssg83
g3606
sg76
(lp3613
S'flash'
p3614
asbag69
(g90
g71
NtRp3615
(dp3616
g74
(dp3617
g101
g102
ssg83
g3606
sg76
(lp3618
S':'
asbag69
(g90
g71
NtRp3619
(dp3620
g74
(dp3621
sg83
g3606
sg76
(lp3622
g69
(g70
g71
NtRp3623
(dp3624
g74
(dp3625
g82
I5
ssg83
g3619
sg76
(lp3626
S''
asbasbasbag69
(g85
g71
NtRp3627
(dp3628
g74
(dp3629
sg83
g3296
sg76
(lp3630
g69
(g90
g71
NtRp3631
(dp3632
g74
(dp3633
g94
g95
ssg83
g3627
sg76
(lp3634
S'generic_patterns'
p3635
asbag69
(g90
g71
NtRp3636
(dp3637
g74
(dp3638
g101
g102
ssg83
g3627
sg76
(lp3639
S':'
asbag69
(g90
g71
NtRp3640
(dp3641
g74
(dp3642
sg83
g3627
sg76
(lp3643
g69
(g70
g71
NtRp3644
(dp3645
g74
(dp3646
g82
I5
ssg83
g3640
sg76
(lp3647
g69
(g78
g71
NtRp3648
(dp3649
g74
(dp3650
g82
I4
ssg83
Nsg76
(lp3651
sbasbasbasbag69
(g85
g71
NtRp3652
(dp3653
g74
(dp3654
sg83
g3296
sg76
(lp3655
g69
(g90
g71
NtRp3656
(dp3657
g74
(dp3658
g94
g95
ssg83
g3652
sg76
(lp3659
S'google_analytics_id'
p3660
asbag69
(g90
g71
NtRp3661
(dp3662
g74
(dp3663
g101
g102
ssg83
g3652
sg76
(lp3664
S':'
asbag69
(g90
g71
NtRp3665
(dp3666
g74
(dp3667
sg83
g3652
sg76
(lp3668
g69
(g70
g71
NtRp3669
(dp3670
g74
(dp3671
g82
I5
ssg83
g3665
sg76
(lp3672
S'None'
p3673
asbasbasbag69
(g85
g71
NtRp3674
(dp3675
g74
(dp3676
sg83
g3296
sg76
(lp3677
g69
(g90
g71
NtRp3678
(dp3679
g74
(dp3680
g94
g95
ssg83
g3674
sg76
(lp3681
S'headers'
p3682
asbag69
(g90
g71
NtRp3683
(dp3684
g74
(dp3685
g101
g102
ssg83
g3674
sg76
(lp3686
S':'
asbag69
(g90
g71
NtRp3687
(dp3688
g74
(dp3689
sg83
g3674
sg76
(lp3690
g69
(g70
g71
NtRp3691
(dp3692
g74
(dp3693
g82
I5
ssg83
g3687
sg76
(lp3694
g69
(g78
g71
NtRp3695
(dp3696
g74
(dp3697
g82
I4
ssg83
Nsg76
(lp3698
g69
(g85
g71
NtRp3699
(dp3700
g74
(dp3701
sg83
g3695
sg76
(lp3702
g69
(g90
g71
NtRp3703
(dp3704
g74
(dp3705
g94
g95
ssg83
g3699
sg76
(lp3706
S'X-Powered-By'
p3707
asbag69
(g90
g71
NtRp3708
(dp3709
g74
(dp3710
g101
g102
ssg83
g3699
sg76
(lp3711
S':'
asbag69
(g90
g71
NtRp3712
(dp3713
g74
(dp3714
sg83
g3699
sg76
(lp3715
g69
(g70
g71
NtRp3716
(dp3717
g74
(dp3718
g82
I4
ssg83
g3712
sg76
(lp3719
S'web2py'
p3720
asbasbasbasbasbasbasbag69
(g85
g71
NtRp3721
(dp3722
g74
(dp3723
sg83
g3296
sg76
(lp3724
g69
(g90
g71
NtRp3725
(dp3726
g74
(dp3727
g94
g95
ssg83
g3721
sg76
(lp3728
S'menu'
p3729
asbag69
(g90
g71
NtRp3730
(dp3731
g74
(dp3732
g101
g102
ssg83
g3721
sg76
(lp3733
S':'
asbag69
(g90
g71
NtRp3734
(dp3735
g74
(dp3736
sg83
g3721
sg76
(lp3737
g69
(g70
g71
NtRp3738
(dp3739
g74
(dp3740
g82
I5
ssg83
g3734
sg76
(lp3741
g69
(g78
g71
NtRp3742
(dp3743
g74
(dp3744
g82
I4
ssg83
Nsg76
(lp3745
g69
(g85
g71
NtRp3746
(dp3747
g74
(dp3748
sg83
g3742
sg76
(lp3749
g69
(g90
g71
NtRp3750
(dp3751
g74
(dp3752
sg83
g3746
sg76
(lp3753
g69
(g70
g71
NtRp3754
(dp3755
g74
(dp3756
g82
I4
ssg83
g3750
sg76
(lp3757
g69
(g78
g71
NtRp3758
(dp3759
g74
(dp3760
g82
I3
ssg83
Nsg76
(lp3761
g69
(g85
g71
NtRp3762
(dp3763
g74
(dp3764
sg83
g3758
sg76
(lp3765
g69
(g90
g71
NtRp3766
(dp3767
g74
(dp3768
sg83
g3762
sg76
(lp3769
g69
(g70
g71
NtRp3770
(dp3771
g74
(dp3772
g82
I3
ssg83
g3766
sg76
(lp3773
cgluon.languages
lazyT_unpickle
p3774
(S's\x04\x00\x00\x00Home'
tRp3775
asbasbasbag69
(g85
g71
NtRp3776
(dp3777
g74
(dp3778
sg83
g3758
sg76
(lp3779
g69
(g90
g71
NtRp3780
(dp3781
g74
(dp3782
sg83
g3776
sg76
(lp3783
g69
(g70
g71
NtRp3784
(dp3785
g74
(dp3786
g82
I3
ssg83
g3780
sg76
(lp3787
g112
asbasbasbag69
(g85
g71
NtRp3788
(dp3789
g74
(dp3790
sg83
g3758
sg76
(lp3791
g69
(g90
g71
NtRp3792
(dp3793
g74
(dp3794
sg83
g3788
sg76
(lp3795
g69
(g70
g71
NtRp3796
(dp3797
g74
(dp3798
g82
I3
ssg83
g3792
sg76
(lp3799
S'/newsFeed/default/index'
p3800
asbasbasbag69
(g85
g71
NtRp3801
(dp3802
g74
(dp3803
sg83
g3758
sg76
(lp3804
g69
(g90
g71
NtRp3805
(dp3806
g74
(dp3807
sg83
g3801
sg76
(lp3808
g69
(g70
g71
NtRp3809
(dp3810
g74
(dp3811
g82
I3
ssg83
g3805
sg76
(lp3812
g69
(g78
g71
NtRp3813
(dp3814
g74
(dp3815
g82
I2
ssg83
Nsg76
(lp3816
sbasbasbasbasbasbasbasbag69
(g85
g71
NtRp3817
(dp3818
g74
(dp3819
sg83
g3742
sg76
(lp3820
g69
(g90
g71
NtRp3821
(dp3822
g74
(dp3823
sg83
g3817
sg76
(lp3824
g69
(g70
g71
NtRp3825
(dp3826
g74
(dp3827
g82
I4
ssg83
g3821
sg76
(lp3828
g69
(g78
g71
NtRp3829
(dp3830
g74
(dp3831
g82
I3
ssg83
Nsg76
(lp3832
g69
(g85
g71
NtRp3833
(dp3834
g74
(dp3835
sg83
g3829
sg76
(lp3836
g69
(g90
g71
NtRp3837
(dp3838
g74
(dp3839
sg83
g3833
sg76
(lp3840
g69
(g70
g71
NtRp3841
(dp3842
g74
(dp3843
g82
I3
ssg83
g3837
sg76
(lp3844
g69
(cgluon.html
SPAN
p3845
g71
NtRp3846
(dp3847
g74
(dp3848
g94
S'color:yellow'
p3849
ssg83
Nsg76
(lp3850
g3720
asbasbasbasbag69
(g85
g71
NtRp3851
(dp3852
g74
(dp3853
sg83
g3829
sg76
(lp3854
g69
(g90
g71
NtRp3855
(dp3856
g74
(dp3857
sg83
g3851
sg76
(lp3858
g69
(g70
g71
NtRp3859
(dp3860
g74
(dp3861
g82
I3
ssg83
g3855
sg76
(lp3862
g112
asbasbasbag69
(g85
g71
NtRp3863
(dp3864
g74
(dp3865
sg83
g3829
sg76
(lp3866
g69
(g90
g71
NtRp3867
(dp3868
g74
(dp3869
sg83
g3863
sg76
(lp3870
g69
(g70
g71
NtRp3871
(dp3872
g74
(dp3873
g82
I3
ssg83
g3867
sg76
(lp3874
S'http://web2py.com'
p3875
asbasbasbag69
(g85
g71
NtRp3876
(dp3877
g74
(dp3878
sg83
g3829
sg76
(lp3879
g69
(g90
g71
NtRp3880
(dp3881
g74
(dp3882
sg83
g3876
sg76
(lp3883
g69
(g70
g71
NtRp3884
(dp3885
g74
(dp3886
g82
I3
ssg83
g3880
sg76
(lp3887
g69
(g78
g71
NtRp3888
(dp3889
g74
(dp3890
g82
I2
ssg83
Nsg76
(lp3891
g69
(g85
g71
NtRp3892
(dp3893
g74
(dp3894
sg83
g3888
sg76
(lp3895
g69
(g90
g71
NtRp3896
(dp3897
g74
(dp3898
sg83
g3892
sg76
(lp3899
g69
(g70
g71
NtRp3900
(dp3901
g74
(dp3902
g82
I2
ssg83
g3896
sg76
(lp3903
g69
(g78
g71
NtRp3904
(dp3905
g74
(dp3906
g82
I1
ssg83
Nsg76
(lp3907
g69
(g85
g71
NtRp3908
(dp3909
g74
(dp3910
sg83
g3904
sg76
(lp3911
g69
(g90
g71
NtRp3912
(dp3913
g74
(dp3914
sg83
g3908
sg76
(lp3915
g69
(g70
g71
NtRp3916
(dp3917
g74
(dp3918
g82
I1
ssg83
g3912
sg76
(lp3919
g3774
(S's\x08\x00\x00\x00My Sites'
tRp3920
asbasbasbag69
(g85
g71
NtRp3921
(dp3922
g74
(dp3923
sg83
g3904
sg76
(lp3924
g69
(g90
g71
NtRp3925
(dp3926
g74
(dp3927
sg83
g3921
sg76
(lp3928
g69
(g70
g71
NtRp3929
(dp3930
g74
(dp3931
g82
I1
ssg83
g3925
sg76
(lp3932
I00
asbasbasbag69
(g85
g71
NtRp3933
(dp3934
g74
(dp3935
sg83
g3904
sg76
(lp3936
g69
(g90
g71
NtRp3937
(dp3938
g74
(dp3939
sg83
g3933
sg76
(lp3940
g69
(g70
g71
NtRp3941
(dp3942
g74
(dp3943
g82
I1
ssg83
g3937
sg76
(lp3944
S'/admin/default/site'
p3945
asbasbasbasbasbasbasbag69
(g85
g71
NtRp3946
(dp3947
g74
(dp3948
sg83
g3888
sg76
(lp3949
g69
(g90
g71
NtRp3950
(dp3951
g74
(dp3952
sg83
g3946
sg76
(lp3953
g69
(g70
g71
NtRp3954
(dp3955
g74
(dp3956
g82
I2
ssg83
g3950
sg76
(lp3957
g69
(g78
g71
NtRp3958
(dp3959
g74
(dp3960
g82
I1
ssg83
Nsg76
(lp3961
g69
(g85
g71
NtRp3962
(dp3963
g74
(dp3964
sg83
g3958
sg76
(lp3965
g69
(g90
g71
NtRp3966
(dp3967
g74
(dp3968
sg83
g3962
sg76
(lp3969
g69
(g70
g71
NtRp3970
(dp3971
g74
(dp3972
g82
I1
ssg83
g3966
sg76
(lp3973
g3774
(S's\x08\x00\x00\x00This App'
tRp3974
asbasbasbag69
(g85
g71
NtRp3975
(dp3976
g74
(dp3977
sg83
g3958
sg76
(lp3978
g69
(g90
g71
NtRp3979
(dp3980
g74
(dp3981
sg83
g3975
sg76
(lp3982
g69
(g70
g71
NtRp3983
(dp3984
g74
(dp3985
g82
I1
ssg83
g3979
sg76
(lp3986
I00
asbasbasbag69
(g85
g71
NtRp3987
(dp3988
g74
(dp3989
sg83
g3958
sg76
(lp3990
g69
(g90
g71
NtRp3991
(dp3992
g74
(dp3993
sg83
g3987
sg76
(lp3994
g69
(g70
g71
NtRp3995
(dp3996
g74
(dp3997
g82
I1
ssg83
g3991
sg76
(lp3998
S'/admin/default/design/newsFeed'
p3999
asbasbasbag69
(g85
g71
NtRp4000
(dp4001
g74
(dp4002
sg83
g3958
sg76
(lp4003
g69
(g90
g71
NtRp4004
(dp4005
g74
(dp4006
sg83
g4000
sg76
(lp4007
g69
(g70
g71
NtRp4008
(dp4009
g74
(dp4010
g82
I1
ssg83
g4004
sg76
(lp4011
(lp4012
(g3774
(S's\n\x00\x00\x00Controller'
tRp4013
I00
S'/admin/default/edit/newsFeed/controllers/default.py'
tp4014
a(g3774
(S's\x04\x00\x00\x00View'
tRp4015
I00
S'/admin/default/edit/newsFeed/views/default/index.html'
tp4016
a(g3774
(S's\x06\x00\x00\x00Layout'
tRp4017
I00
S'/admin/default/edit/newsFeed/views/layout.html'
tp4018
a(g3774
(S's\n\x00\x00\x00Stylesheet'
tRp4019
I00
S'/admin/default/edit/newsFeed/static/css/web2py.css'
tp4020
a(g3774
(S's\x08\x00\x00\x00DB Model'
tRp4021
I00
S'/admin/default/edit/newsFeed/models/db.py'
tp4022
a(g3774
(S's\n\x00\x00\x00Menu Model'
tRp4023
I00
S'/admin/default/edit/newsFeed/models/menu.py'
tp4024
a(g3774
(S's\x08\x00\x00\x00Database'
tRp4025
I00
S'/newsFeed/appadmin/index'
tp4026
a(g3774
(S's\x06\x00\x00\x00Errors'
tRp4027
I00
S'/admin/default/errors/newsFeed'
tp4028
a(g3774
(S's\x05\x00\x00\x00About'
tRp4029
I00
S'/admin/default/about/newsFeed'
tp4030
aasbasbasbasbasbasbasbag69
(g85
g71
NtRp4031
(dp4032
g74
(dp4033
sg83
g3888
sg76
(lp4034
g69
(g90
g71
NtRp4035
(dp4036
g74
(dp4037
sg83
g4031
sg76
(lp4038
g69
(g70
g71
NtRp4039
(dp4040
g74
(dp4041
g82
I2
ssg83
g4035
sg76
(lp4042
g69
(g78
g71
NtRp4043
(dp4044
g74
(dp4045
g82
I1
ssg83
Nsg76
(lp4046
g69
(g85
g71
NtRp4047
(dp4048
g74
(dp4049
sg83
g4043
sg76
(lp4050
g69
(g90
g71
NtRp4051
(dp4052
g74
(dp4053
sg83
g4047
sg76
(lp4054
g69
(g70
g71
NtRp4055
(dp4056
g74
(dp4057
g82
I1
ssg83
g4051
sg76
(lp4058
S'web2py.com'
p4059
asbasbasbag69
(g85
g71
NtRp4060
(dp4061
g74
(dp4062
sg83
g4043
sg76
(lp4063
g69
(g90
g71
NtRp4064
(dp4065
g74
(dp4066
sg83
g4060
sg76
(lp4067
g69
(g70
g71
NtRp4068
(dp4069
g74
(dp4070
g82
I1
ssg83
g4064
sg76
(lp4071
I00
asbasbasbag69
(g85
g71
NtRp4072
(dp4073
g74
(dp4074
sg83
g4043
sg76
(lp4075
g69
(g90
g71
NtRp4076
(dp4077
g74
(dp4078
sg83
g4072
sg76
(lp4079
g69
(g70
g71
NtRp4080
(dp4081
g74
(dp4082
g82
I1
ssg83
g4076
sg76
(lp4083
S'http://www.web2py.com'
p4084
asbasbasbag69
(g85
g71
NtRp4085
(dp4086
g74
(dp4087
sg83
g4043
sg76
(lp4088
g69
(g90
g71
NtRp4089
(dp4090
g74
(dp4091
sg83
g4085
sg76
(lp4092
g69
(g70
g71
NtRp4093
(dp4094
g74
(dp4095
g82
I1
ssg83
g4089
sg76
(lp4096
(lp4097
(g3774
(S's\x08\x00\x00\x00Download'
tRp4098
I00
S'http://www.web2py.com/examples/default/download'
p4099
tp4100
a(g3774
(S's\x07\x00\x00\x00Support'
tRp4101
I00
S'http://www.web2py.com/examples/default/support'
p4102
tp4103
a(g3774
(S's\x04\x00\x00\x00Demo'
tRp4104
I00
S'http://web2py.com/demo_admin'
p4105
tp4106
a(g3774
(S's\x0e\x00\x00\x00Quick Examples'
tRp4107
I00
S'http://web2py.com/examples/default/examples'
p4108
tp4109
a(g3774
(S's\x03\x00\x00\x00FAQ'
tRp4110
I00
S'http://web2py.com/AlterEgo'
p4111
tp4112
a(g3774
(S's\x06\x00\x00\x00Videos'
tRp4113
I00
S'http://www.web2py.com/examples/default/videos/'
p4114
tp4115
a(g3774
(S's\x11\x00\x00\x00Free Applications'
tRp4116
I00
S'http://web2py.com/appliances'
p4117
tp4118
a(g3774
(S's\x07\x00\x00\x00Plugins'
tRp4119
I00
S'http://web2py.com/plugins'
p4120
tp4121
a(g3774
(S's\x07\x00\x00\x00Layouts'
tRp4122
I00
S'http://web2py.com/layouts'
p4123
tp4124
a(g3774
(S's\x07\x00\x00\x00Recipes'
tRp4125
I00
S'http://web2pyslices.com/'
p4126
tp4127
a(g3774
(S's\x08\x00\x00\x00Semantic'
tRp4128
I00
S'http://web2py.com/semantic'
p4129
tp4130
aasbasbasbasbasbasbasbag69
(g85
g71
NtRp4131
(dp4132
g74
(dp4133
sg83
g3888
sg76
(lp4134
g69
(g90
g71
NtRp4135
(dp4136
g74
(dp4137
sg83
g4131
sg76
(lp4138
g69
(g70
g71
NtRp4139
(dp4140
g74
(dp4141
g82
I2
ssg83
g4135
sg76
(lp4142
g69
(g78
g71
NtRp4143
(dp4144
g74
(dp4145
g82
I1
ssg83
Nsg76
(lp4146
g69
(g85
g71
NtRp4147
(dp4148
g74
(dp4149
sg83
g4143
sg76
(lp4150
g69
(g90
g71
NtRp4151
(dp4152
g74
(dp4153
sg83
g4147
sg76
(lp4154
g69
(g70
g71
NtRp4155
(dp4156
g74
(dp4157
g82
I1
ssg83
g4151
sg76
(lp4158
g3774
(S's\r\x00\x00\x00Documentation'
tRp4159
asbasbasbag69
(g85
g71
NtRp4160
(dp4161
g74
(dp4162
sg83
g4143
sg76
(lp4163
g69
(g90
g71
NtRp4164
(dp4165
g74
(dp4166
sg83
g4160
sg76
(lp4167
g69
(g70
g71
NtRp4168
(dp4169
g74
(dp4170
g82
I1
ssg83
g4164
sg76
(lp4171
I00
asbasbasbag69
(g85
g71
NtRp4172
(dp4173
g74
(dp4174
sg83
g4143
sg76
(lp4175
g69
(g90
g71
NtRp4176
(dp4177
g74
(dp4178
sg83
g4172
sg76
(lp4179
g69
(g70
g71
NtRp4180
(dp4181
g74
(dp4182
g82
I1
ssg83
g4176
sg76
(lp4183
S'http://www.web2py.com/book'
p4184
asbasbasbag69
(g85
g71
NtRp4185
(dp4186
g74
(dp4187
sg83
g4143
sg76
(lp4188
g69
(g90
g71
NtRp4189
(dp4190
g74
(dp4191
sg83
g4185
sg76
(lp4192
g69
(g70
g71
NtRp4193
(dp4194
g74
(dp4195
g82
I1
ssg83
g4189
sg76
(lp4196
(lp4197
(g3774
(S's\x07\x00\x00\x00Preface'
tRp4198
I00
S'http://www.web2py.com/book/default/chapter/00'
p4199
tp4200
a(g3774
(S's\x0c\x00\x00\x00Introduction'
tRp4201
I00
S'http://www.web2py.com/book/default/chapter/01'
p4202
tp4203
a(g3774
(S's\x06\x00\x00\x00Python'
tRp4204
I00
S'http://www.web2py.com/book/default/chapter/02'
p4205
tp4206
a(g3774
(S's\x08\x00\x00\x00Overview'
tRp4207
I00
S'http://www.web2py.com/book/default/chapter/03'
p4208
tp4209
a(g3774
(S's\x08\x00\x00\x00The Core'
tRp4210
I00
S'http://www.web2py.com/book/default/chapter/04'
p4211
tp4212
a(g3774
(S's\t\x00\x00\x00The Views'
tRp4213
I00
S'http://www.web2py.com/book/default/chapter/05'
p4214
tp4215
a(g3774
(S's\x08\x00\x00\x00Database'
tRp4216
I00
S'http://www.web2py.com/book/default/chapter/06'
p4217
tp4218
a(g3774
(S's\x14\x00\x00\x00Forms and Validators'
tRp4219
I00
S'http://www.web2py.com/book/default/chapter/07'
p4220
tp4221
a(g3774
(S's\r\x00\x00\x00Email and SMS'
tRp4222
I00
S'http://www.web2py.com/book/default/chapter/08'
p4223
tp4224
a(g3774
(S's\x0e\x00\x00\x00Access Control'
tRp4225
I00
S'http://www.web2py.com/book/default/chapter/09'
p4226
tp4227
a(g3774
(S's\x08\x00\x00\x00Services'
tRp4228
I00
S'http://www.web2py.com/book/default/chapter/10'
p4229
tp4230
a(g3774
(S's\x0c\x00\x00\x00Ajax Recipes'
tRp4231
I00
S'http://www.web2py.com/book/default/chapter/11'
p4232
tp4233
a(g3774
(S's\x16\x00\x00\x00Components and Plugins'
tRp4234
I00
S'http://www.web2py.com/book/default/chapter/12'
p4235
tp4236
a(g3774
(S's\x12\x00\x00\x00Deployment Recipes'
tRp4237
I00
S'http://www.web2py.com/book/default/chapter/13'
p4238
tp4239
a(g3774
(S's\r\x00\x00\x00Other Recipes'
tRp4240
I00
S'http://www.web2py.com/book/default/chapter/14'
p4241
tp4242
a(g3774
(S's\r\x00\x00\x00Buy this book'
tRp4243
I00
S'http://stores.lulu.com/web2py'
p4244
tp4245
aasbasbasbasbasbasbasbag69
(g85
g71
NtRp4246
(dp4247
g74
(dp4248
sg83
g3888
sg76
(lp4249
g69
(g90
g71
NtRp4250
(dp4251
g74
(dp4252
sg83
g4246
sg76
(lp4253
g69
(g70
g71
NtRp4254
(dp4255
g74
(dp4256
g82
I2
ssg83
g4250
sg76
(lp4257
g69
(g78
g71
NtRp4258
(dp4259
g74
(dp4260
g82
I1
ssg83
Nsg76
(lp4261
g69
(g85
g71
NtRp4262
(dp4263
g74
(dp4264
sg83
g4258
sg76
(lp4265
g69
(g90
g71
NtRp4266
(dp4267
g74
(dp4268
sg83
g4262
sg76
(lp4269
g69
(g70
g71
NtRp4270
(dp4271
g74
(dp4272
g82
I1
ssg83
g4266
sg76
(lp4273
g3774
(S's\t\x00\x00\x00Community'
tRp4274
asbasbasbag69
(g85
g71
NtRp4275
(dp4276
g74
(dp4277
sg83
g4258
sg76
(lp4278
g69
(g90
g71
NtRp4279
(dp4280
g74
(dp4281
sg83
g4275
sg76
(lp4282
g69
(g70
g71
NtRp4283
(dp4284
g74
(dp4285
g82
I1
ssg83
g4279
sg76
(lp4286
I00
asbasbasbag69
(g85
g71
NtRp4287
(dp4288
g74
(dp4289
sg83
g4258
sg76
(lp4290
g69
(g90
g71
NtRp4291
(dp4292
g74
(dp4293
sg83
g4287
sg76
(lp4294
g69
(g70
g71
NtRp4295
(dp4296
g74
(dp4297
g82
I1
ssg83
g4291
sg76
(lp4298
Nasbasbasbag69
(g85
g71
NtRp4299
(dp4300
g74
(dp4301
sg83
g4258
sg76
(lp4302
g69
(g90
g71
NtRp4303
(dp4304
g74
(dp4305
sg83
g4299
sg76
(lp4306
g69
(g70
g71
NtRp4307
(dp4308
g74
(dp4309
g82
I1
ssg83
g4303
sg76
(lp4310
(lp4311
(g3774
(S's\x06\x00\x00\x00Groups'
tRp4312
I00
S'http://www.web2py.com/examples/default/usergroups'
p4313
tp4314
a(g3774
(S's\x07\x00\x00\x00Twitter'
tRp4315
I00
S'http://twitter.com/web2py'
p4316
tp4317
a(g3774
(S's\t\x00\x00\x00Live Chat'
tRp4318
I00
S'http://webchat.freenode.net/?channels=web2py'
p4319
tp4320
aasbasbasbasbasbasbasbag69
(g85
g71
NtRp4321
(dp4322
g74
(dp4323
sg83
g3888
sg76
(lp4324
g69
(g90
g71
NtRp4325
(dp4326
g74
(dp4327
sg83
g4321
sg76
(lp4328
g69
(g70
g71
NtRp4329
(dp4330
g74
(dp4331
g82
I2
ssg83
g4325
sg76
(lp4332
g69
(g78
g71
NtRp4333
(dp4334
g74
(dp4335
g82
I1
ssg83
Nsg76
(lp4336
g69
(g85
g71
NtRp4337
(dp4338
g74
(dp4339
sg83
g4333
sg76
(lp4340
g69
(g90
g71
NtRp4341
(dp4342
g74
(dp4343
sg83
g4337
sg76
(lp4344
g69
(g70
g71
NtRp4345
(dp4346
g74
(dp4347
g82
I1
ssg83
g4341
sg76
(lp4348
g3774
(S's\x07\x00\x00\x00Plugins'
tRp4349
asbasbasbag69
(g85
g71
NtRp4350
(dp4351
g74
(dp4352
sg83
g4333
sg76
(lp4353
g69
(g90
g71
NtRp4354
(dp4355
g74
(dp4356
sg83
g4350
sg76
(lp4357
g69
(g70
g71
NtRp4358
(dp4359
g74
(dp4360
g82
I1
ssg83
g4354
sg76
(lp4361
I00
asbasbasbag69
(g85
g71
NtRp4362
(dp4363
g74
(dp4364
sg83
g4333
sg76
(lp4365
g69
(g90
g71
NtRp4366
(dp4367
g74
(dp4368
sg83
g4362
sg76
(lp4369
g69
(g70
g71
NtRp4370
(dp4371
g74
(dp4372
g82
I1
ssg83
g4366
sg76
(lp4373
Nasbasbasbag69
(g85
g71
NtRp4374
(dp4375
g74
(dp4376
sg83
g4333
sg76
(lp4377
g69
(g90
g71
NtRp4378
(dp4379
g74
(dp4380
sg83
g4374
sg76
(lp4381
g69
(g70
g71
NtRp4382
(dp4383
g74
(dp4384
g82
I1
ssg83
g4378
sg76
(lp4385
(lp4386
(S'plugin_wiki'
p4387
I00
S'http://web2py.com/examples/default/download'
p4388
tp4389
a(g3774
(S's\r\x00\x00\x00Other Plugins'
tRp4390
I00
g4120
tp4391
a(g3774
(S's\x0e\x00\x00\x00Layout Plugins'
tRp4392
I00
g4123
tp4393
aasbasbasbasbasbasbasbasbasbasbasbasbasbasbasbasbasbasbasbag69
(g85
g71
NtRp4394
(dp4395
g74
(dp4396
sg83
g3296
sg76
(lp4397
g69
(g90
g71
NtRp4398
(dp4399
g74
(dp4400
g94
g95
ssg83
g4394
sg76
(lp4401
S'meta'
p4402
asbag69
(g90
g71
NtRp4403
(dp4404
g74
(dp4405
g101
g102
ssg83
g4394
sg76
(lp4406
S':'
asbag69
(g90
g71
NtRp4407
(dp4408
g74
(dp4409
sg83
g4394
sg76
(lp4410
g69
(g70
g71
NtRp4411
(dp4412
g74
(dp4413
g82
I5
ssg83
g4407
sg76
(lp4414
g69
(g78
g71
NtRp4415
(dp4416
g74
(dp4417
g82
I4
ssg83
Nsg76
(lp4418
g69
(g85
g71
NtRp4419
(dp4420
g74
(dp4421
sg83
g4415
sg76
(lp4422
g69
(g90
g71
NtRp4423
(dp4424
g74
(dp4425
g94
g95
ssg83
g4419
sg76
(lp4426
S'author'
p4427
asbag69
(g90
g71
NtRp4428
(dp4429
g74
(dp4430
g101
g102
ssg83
g4419
sg76
(lp4431
S':'
asbag69
(g90
g71
NtRp4432
(dp4433
g74
(dp4434
sg83
g4419
sg76
(lp4435
g69
(g70
g71
NtRp4436
(dp4437
g74
(dp4438
g82
I4
ssg83
g4432
sg76
(lp4439
S'Your Name <you@example.com>'
p4440
asbasbasbag69
(g85
g71
NtRp4441
(dp4442
g74
(dp4443
sg83
g4415
sg76
(lp4444
g69
(g90
g71
NtRp4445
(dp4446
g74
(dp4447
g94
g95
ssg83
g4441
sg76
(lp4448
S'description'
p4449
asbag69
(g90
g71
NtRp4450
(dp4451
g74
(dp4452
g101
g102
ssg83
g4441
sg76
(lp4453
S':'
asbag69
(g90
g71
NtRp4454
(dp4455
g74
(dp4456
sg83
g4441
sg76
(lp4457
g69
(g70
g71
NtRp4458
(dp4459
g74
(dp4460
g82
I4
ssg83
g4454
sg76
(lp4461
S'a cool new app'
p4462
asbasbasbag69
(g85
g71
NtRp4463
(dp4464
g74
(dp4465
sg83
g4415
sg76
(lp4466
g69
(g90
g71
NtRp4467
(dp4468
g74
(dp4469
g94
g95
ssg83
g4463
sg76
(lp4470
S'generator'
p4471
asbag69
(g90
g71
NtRp4472
(dp4473
g74
(dp4474
g101
g102
ssg83
g4463
sg76
(lp4475
S':'
asbag69
(g90
g71
NtRp4476
(dp4477
g74
(dp4478
sg83
g4463
sg76
(lp4479
g69
(g70
g71
NtRp4480
(dp4481
g74
(dp4482
g82
I4
ssg83
g4476
sg76
(lp4483
S'Web2py Web Framework'
p4484
asbasbasbag69
(g85
g71
NtRp4485
(dp4486
g74
(dp4487
sg83
g4415
sg76
(lp4488
g69
(g90
g71
NtRp4489
(dp4490
g74
(dp4491
g94
g95
ssg83
g4485
sg76
(lp4492
S'keywords'
p4493
asbag69
(g90
g71
NtRp4494
(dp4495
g74
(dp4496
g101
g102
ssg83
g4485
sg76
(lp4497
S':'
asbag69
(g90
g71
NtRp4498
(dp4499
g74
(dp4500
sg83
g4485
sg76
(lp4501
g69
(g70
g71
NtRp4502
(dp4503
g74
(dp4504
g82
I4
ssg83
g4498
sg76
(lp4505
S'web2py, python, framework'
p4506
asbasbasbasbasbasbasbag69
(g85
g71
NtRp4507
(dp4508
g74
(dp4509
sg83
g3296
sg76
(lp4510
g69
(g90
g71
NtRp4511
(dp4512
g74
(dp4513
g94
g95
ssg83
g4507
sg76
(lp4514
S'models_to_run'
p4515
asbag69
(g90
g71
NtRp4516
(dp4517
g74
(dp4518
g101
g102
ssg83
g4507
sg76
(lp4519
S':'
asbag69
(g90
g71
NtRp4520
(dp4521
g74
(dp4522
sg83
g4507
sg76
(lp4523
g69
(g70
g71
NtRp4524
(dp4525
g74
(dp4526
g82
I5
ssg83
g4520
sg76
(lp4527
g69
(g78
g71
NtRp4528
(dp4529
g74
(dp4530
g82
I4
ssg83
Nsg76
(lp4531
g69
(g85
g71
NtRp4532
(dp4533
g74
(dp4534
sg83
g4528
sg76
(lp4535
g69
(g90
g71
NtRp4536
(dp4537
g74
(dp4538
sg83
g4532
sg76
(lp4539
g69
(g70
g71
NtRp4540
(dp4541
g74
(dp4542
g82
I4
ssg83
g4536
sg76
(lp4543
S'^\\w+\\.py$'
p4544
asbasbasbag69
(g85
g71
NtRp4545
(dp4546
g74
(dp4547
sg83
g4528
sg76
(lp4548
g69
(g90
g71
NtRp4549
(dp4550
g74
(dp4551
sg83
g4545
sg76
(lp4552
g69
(g70
g71
NtRp4553
(dp4554
g74
(dp4555
g82
I4
ssg83
g4549
sg76
(lp4556
S'^default/\\w+\\.py$'
p4557
asbasbasbag69
(g85
g71
NtRp4558
(dp4559
g74
(dp4560
sg83
g4528
sg76
(lp4561
g69
(g90
g71
NtRp4562
(dp4563
g74
(dp4564
sg83
g4558
sg76
(lp4565
g69
(g70
g71
NtRp4566
(dp4567
g74
(dp4568
g82
I4
ssg83
g4562
sg76
(lp4569
S'^default/index/\\w+\\.py$'
p4570
asbasbasbasbasbasbasbag69
(g85
g71
NtRp4571
(dp4572
g74
(dp4573
sg83
g3296
sg76
(lp4574
g69
(g90
g71
NtRp4575
(dp4576
g74
(dp4577
g94
g95
ssg83
g4571
sg76
(lp4578
S'postprocessing'
p4579
asbag69
(g90
g71
NtRp4580
(dp4581
g74
(dp4582
g101
g102
ssg83
g4571
sg76
(lp4583
S':'
asbag69
(g90
g71
NtRp4584
(dp4585
g74
(dp4586
sg83
g4571
sg76
(lp4587
g69
(g70
g71
NtRp4588
(dp4589
g74
(dp4590
g82
I5
ssg83
g4584
sg76
(lp4591
g69
(g78
g71
NtRp4592
(dp4593
g74
(dp4594
g82
I4
ssg83
Nsg76
(lp4595
sbasbasbasbag69
(g85
g71
NtRp4596
(dp4597
g74
(dp4598
sg83
g3296
sg76
(lp4599
g69
(g90
g71
NtRp4600
(dp4601
g74
(dp4602
g94
g95
ssg83
g4596
sg76
(lp4603
S'session_file'
p4604
asbag69
(g90
g71
NtRp4605
(dp4606
g74
(dp4607
g101
g102
ssg83
g4596
sg76
(lp4608
S':'
asbag69
(g90
g71
NtRp4609
(dp4610
g74
(dp4611
sg83
g4596
sg76
(lp4612
g69
(g70
g71
NtRp4613
(dp4614
g74
(dp4615
g82
I5
ssg83
g4609
sg76
(lp4616
S"<open file '/Users/Karl/code/web2py/applications/newsFeed/sessions/127.0.0.1-cf681d17-4d34-47c3-b25e-cb18b12cf401', mode 'rb+' at 0x10891f150>"
p4617
asbasbasbag69
(g85
g71
NtRp4618
(dp4619
g74
(dp4620
sg83
g3296
sg76
(lp4621
g69
(g90
g71
NtRp4622
(dp4623
g74
(dp4624
g94
g95
ssg83
g4618
sg76
(lp4625
S'session_filename'
p4626
asbag69
(g90
g71
NtRp4627
(dp4628
g74
(dp4629
g101
g102
ssg83
g4618
sg76
(lp4630
S':'
asbag69
(g90
g71
NtRp4631
(dp4632
g74
(dp4633
sg83
g4618
sg76
(lp4634
g69
(g70
g71
NtRp4635
(dp4636
g74
(dp4637
g82
I5
ssg83
g4631
sg76
(lp4638
S'/Users/Karl/code/web2py/applications/newsFeed/sessions/127.0.0.1-cf681d17-4d34-47c3-b25e-cb18b12cf401'
p4639
asbasbasbag69
(g85
g71
NtRp4640
(dp4641
g74
(dp4642
sg83
g3296
sg76
(lp4643
g69
(g90
g71
NtRp4644
(dp4645
g74
(dp4646
g94
g95
ssg83
g4640
sg76
(lp4647
S'session_id'
p4648
asbag69
(g90
g71
NtRp4649
(dp4650
g74
(dp4651
g101
g102
ssg83
g4640
sg76
(lp4652
S':'
asbag69
(g90
g71
NtRp4653
(dp4654
g74
(dp4655
sg83
g4640
sg76
(lp4656
g69
(g70
g71
NtRp4657
(dp4658
g74
(dp4659
g82
I5
ssg83
g4653
sg76
(lp4660
g487
asbasbasbag69
(g85
g71
NtRp4661
(dp4662
g74
(dp4663
sg83
g3296
sg76
(lp4664
g69
(g90
g71
NtRp4665
(dp4666
g74
(dp4667
g94
g95
ssg83
g4661
sg76
(lp4668
S'session_id_name'
p4669
asbag69
(g90
g71
NtRp4670
(dp4671
g74
(dp4672
g101
g102
ssg83
g4661
sg76
(lp4673
S':'
asbag69
(g90
g71
NtRp4674
(dp4675
g74
(dp4676
sg83
g4661
sg76
(lp4677
g69
(g70
g71
NtRp4678
(dp4679
g74
(dp4680
g82
I5
ssg83
g4674
sg76
(lp4681
g3353
asbasbasbag69
(g85
g71
NtRp4682
(dp4683
g74
(dp4684
sg83
g3296
sg76
(lp4685
g69
(g90
g71
NtRp4686
(dp4687
g74
(dp4688
g94
g95
ssg83
g4682
sg76
(lp4689
S'session_locked'
p4690
asbag69
(g90
g71
NtRp4691
(dp4692
g74
(dp4693
g101
g102
ssg83
g4682
sg76
(lp4694
S':'
asbag69
(g90
g71
NtRp4695
(dp4696
g74
(dp4697
sg83
g4682
sg76
(lp4698
g69
(g70
g71
NtRp4699
(dp4700
g74
(dp4701
g82
I5
ssg83
g4695
sg76
(lp4702
g1877
asbasbasbag69
(g85
g71
NtRp4703
(dp4704
g74
(dp4705
sg83
g3296
sg76
(lp4706
g69
(g90
g71
NtRp4707
(dp4708
g74
(dp4709
g94
g95
ssg83
g4703
sg76
(lp4710
S'session_new'
p4711
asbag69
(g90
g71
NtRp4712
(dp4713
g74
(dp4714
g101
g102
ssg83
g4703
sg76
(lp4715
S':'
asbag69
(g90
g71
NtRp4716
(dp4717
g74
(dp4718
sg83
g4703
sg76
(lp4719
g69
(g70
g71
NtRp4720
(dp4721
g74
(dp4722
g82
I5
ssg83
g4716
sg76
(lp4723
g112
asbasbasbag69
(g85
g71
NtRp4724
(dp4725
g74
(dp4726
sg83
g3296
sg76
(lp4727
g69
(g90
g71
NtRp4728
(dp4729
g74
(dp4730
g94
g95
ssg83
g4724
sg76
(lp4731
S'status'
p4732
asbag69
(g90
g71
NtRp4733
(dp4734
g74
(dp4735
g101
g102
ssg83
g4724
sg76
(lp4736
S':'
asbag69
(g90
g71
NtRp4737
(dp4738
g74
(dp4739
sg83
g4724
sg76
(lp4740
g69
(g70
g71
NtRp4741
(dp4742
g74
(dp4743
g82
I5
ssg83
g4737
sg76
(lp4744
S'200'
p4745
asbasbasbag69
(g85
g71
NtRp4746
(dp4747
g74
(dp4748
sg83
g3296
sg76
(lp4749
g69
(g90
g71
NtRp4750
(dp4751
g74
(dp4752
g94
g95
ssg83
g4746
sg76
(lp4753
S'subtitle'
p4754
asbag69
(g90
g71
NtRp4755
(dp4756
g74
(dp4757
g101
g102
ssg83
g4746
sg76
(lp4758
S':'
asbag69
(g90
g71
NtRp4759
(dp4760
g74
(dp4761
sg83
g4746
sg76
(lp4762
g69
(g70
g71
NtRp4763
(dp4764
g74
(dp4765
g82
I5
ssg83
g4759
sg76
(lp4766
g3774
(S's\r\x00\x00\x00customize me!'
tRp4767
asbasbasbag69
(g85
g71
NtRp4768
(dp4769
g74
(dp4770
sg83
g3296
sg76
(lp4771
g69
(g90
g71
NtRp4772
(dp4773
g74
(dp4774
g94
g95
ssg83
g4768
sg76
(lp4775
S'title'
p4776
asbag69
(g90
g71
NtRp4777
(dp4778
g74
(dp4779
g101
g102
ssg83
g4768
sg76
(lp4780
S':'
asbag69
(g90
g71
NtRp4781
(dp4782
g74
(dp4783
sg83
g4768
sg76
(lp4784
g69
(g70
g71
NtRp4785
(dp4786
g74
(dp4787
g82
I5
ssg83
g4781
sg76
(lp4788
S'Newsfeed'
p4789
asbasbasbag69
(g85
g71
NtRp4790
(dp4791
g74
(dp4792
sg83
g3296
sg76
(lp4793
g69
(g90
g71
NtRp4794
(dp4795
g74
(dp4796
g94
g95
ssg83
g4790
sg76
(lp4797
S'view'
p4798
asbag69
(g90
g71
NtRp4799
(dp4800
g74
(dp4801
g101
g102
ssg83
g4790
sg76
(lp4802
S':'
asbag69
(g90
g71
NtRp4803
(dp4804
g74
(dp4805
sg83
g4790
sg76
(lp4806
g69
(g70
g71
NtRp4807
(dp4808
g74
(dp4809
g82
I5
ssg83
g4803
sg76
(lp4810
S'default/index.html'
p4811
asbasbasbasbasbsS'locals'
p4812
(dp4813
g4
S"'/Users/Karl/code/web2py/applications/newsFeed/controllers/default.py'"
p4814
sg6
S"'def index():\\n    images = db().select(db.image.A...uest, db)\\nresponse._vars=response._caller(index)\\n'"
p4815
sssS'traceback'
p4816
S'Traceback (most recent call last):\n  File "/Users/Karl/code/web2py/gluon/restricted.py", line 208, in restricted\n    ccode = compile2(code,layer)\n  File "/Users/Karl/code/web2py/gluon/restricted.py", line 193, in compile2\n    return compile(code.rstrip().replace(\'\\r\\n\',\'\\n\')+\'\\n\', layer, \'exec\')\n  File "/Users/Karl/code/web2py/applications/newsFeed/controllers/default.py", line 11\n    return dict(image=image, comments=comments, form=form)\nSyntaxError: \'return\' outside function\n'
p4817
s.