(dp1
S'output'
p2
S"<type 'exceptions.SyntaxError'> 'return' outside function (default.py, line 11)"
p3
sS'layer'
p4
S'/Users/Karl/code/web2py/applications/newsFeed/controllers/default.py'
p5
sS'code'
p6
S"def index():\n    images = db().select(db.image.ALL, orderby=db.image.title)\n    return dict(images=images)\ndef show():\n    image = db(db.image.id==request.args(0)).select().first()\n    db.comment.image_id.default = image.id\nform = SQLFORM(db.comment)\nif form.process().accepted:\n    response.flash = 'your comment is posted'\ncomments = db(db.comment.image_id==image.id).select()\nreturn dict(image=image, comments=comments, form=form)\ndef download():\n    return response.download(request, db)\nresponse._vars=response._caller(index)\n"
p7
sS'snapshot'
p8
(dp9
S'exception'
p10
(dp11
S'__getslice__'
p12
S"<method-wrapper '__getslice__' of exceptions.SyntaxError object>"
p13
sS'text'
p14
S"'return dict(image=image, comments=comments, form=form)\\n'"
p15
sS'__str__'
p16
S"<method-wrapper '__str__' of exceptions.SyntaxError object>"
p17
sS'__reduce__'
p18
S'<built-in method __reduce__ of exceptions.SyntaxError object>'
p19
sS'__dict__'
p20
S'{}'
p21
sS'__sizeof__'
p22
S'<built-in method __sizeof__ of exceptions.SyntaxError object>'
p23
sS'__init__'
p24
S"<method-wrapper '__init__' of exceptions.SyntaxError object>"
p25
sS'__setattr__'
p26
S"<method-wrapper '__setattr__' of exceptions.SyntaxError object>"
p27
sS'__reduce_ex__'
p28
S'<built-in method __reduce_ex__ of exceptions.SyntaxError object>'
p29
sS'__new__'
p30
S'<built-in method __new__ of type object>'
p31
sS'__format__'
p32
S'<built-in method __format__ of exceptions.SyntaxError object>'
p33
sS'__class__'
p34
S"<type 'exceptions.SyntaxError'>"
p35
sS'filename'
p36
S"'/Users/Karl/code/web2py/applications/newsFeed/controllers/default.py'"
p37
sS'lineno'
p38
S'11'
p39
sS'msg'
p40
S'"\'return\' outside function"'
p41
sS'__doc__'
p42
S"'Invalid syntax.'"
p43
sS'__getitem__'
p44
S"<method-wrapper '__getitem__' of exceptions.SyntaxError object>"
p45
sS'__setstate__'
p46
S'<built-in method __setstate__ of exceptions.SyntaxError object>'
p47
sS'__getattribute__'
p48
S"<method-wrapper '__getattribute__' of exceptions.SyntaxError object>"
p49
sS'print_file_and_line'
p50
S'None'
p51
sS'args'
p52
S'("\'return\' outside function", (\'/Users/Karl/code/web2py/applications/newsFeed/controllers/default.py\', 11, None, \'return dict(image=image, comments=comments, form=form)\\n\'))'
p53
sS'__subclasshook__'
p54
S'<built-in method __subclasshook__ of type object>'
p55
sS'offset'
p56
S'None'
p57
sS'__unicode__'
p58
S'<built-in method __unicode__ of exceptions.SyntaxError object>'
p59
sS'__delattr__'
p60
S"<method-wrapper '__delattr__' of exceptions.SyntaxError object>"
p61
sS'__repr__'
p62
S"<method-wrapper '__repr__' of exceptions.SyntaxError object>"
p63
sS'__hash__'
p64
S"<method-wrapper '__hash__' of exceptions.SyntaxError object>"
p65
ssS'evalue'
p66
S"'return' outside function (default.py, line 11)"
p67
sS'request'
p68
ccopy_reg
_reconstructor
p69
(cgluon.html
BEAUTIFY
p70
c__builtin__
object
p71
NtRp72
(dp73
S'attributes'
p74
(dp75
sS'components'
p76
(lp77
g69
(cgluon.html
TABLE
p78
g71
NtRp79
(dp80
g74
(dp81
S'level'
p82
I5
ssS'parent'
p83
Nsg76
(lp84
g69
(cgluon.html
TR
p85
g71
NtRp86
(dp87
g74
(dp88
sg83
g79
sg76
(lp89
g69
(cgluon.html
TD
p90
g71
NtRp91
(dp92
g74
(dp93
S'_style'
p94
S'font-weight:bold;vertical-align:top'
p95
ssg83
g86
sg76
(lp96
S'ajax'
p97
asbag69
(g90
g71
NtRp98
(dp99
g74
(dp100
S'_valign'
p101
S'top'
p102
ssg83
g86
sg76
(lp103
S':'
asbag69
(g90
g71
NtRp104
(dp105
g74
(dp106
sg83
g86
sg76
(lp107
g69
(g70
g71
NtRp108
(dp109
g74
(dp110
g82
I5
ssg83
g104
sg76
(lp111
S'False'
p112
asbasbasbag69
(g85
g71
NtRp113
(dp114
g74
(dp115
sg83
g79
sg76
(lp116
g69
(g90
g71
NtRp117
(dp118
g74
(dp119
g94
g95
ssg83
g113
sg76
(lp120
S'application'
p121
asbag69
(g90
g71
NtRp122
(dp123
g74
(dp124
g101
g102
ssg83
g113
sg76
(lp125
S':'
asbag69
(g90
g71
NtRp126
(dp127
g74
(dp128
sg83
g113
sg76
(lp129
g69
(g70
g71
NtRp130
(dp131
g74
(dp132
g82
I5
ssg83
g126
sg76
(lp133
S'newsFeed'
p134
asbasbasbag69
(g85
g71
NtRp135
(dp136
g74
(dp137
sg83
g79
sg76
(lp138
g69
(g90
g71
NtRp139
(dp140
g74
(dp141
g94
g95
ssg83
g135
sg76
(lp142
g52
asbag69
(g90
g71
NtRp143
(dp144
g74
(dp145
g101
g102
ssg83
g135
sg76
(lp146
S':'
asbag69
(g90
g71
NtRp147
(dp148
g74
(dp149
sg83
g135
sg76
(lp150
g69
(g70
g71
NtRp151
(dp152
g74
(dp153
g82
I5
ssg83
g147
sg76
(lp154
g69
(g78
g71
NtRp155
(dp156
g74
(dp157
g82
I4
ssg83
Nsg76
(lp158
sbasbasbasbag69
(g85
g71
NtRp159
(dp160
g74
(dp161
sg83
g79
sg76
(lp162
g69
(g90
g71
NtRp163
(dp164
g74
(dp165
g94
g95
ssg83
g159
sg76
(lp166
S'body'
p167
asbag69
(g90
g71
NtRp168
(dp169
g74
(dp170
g101
g102
ssg83
g159
sg76
(lp171
S':'
asbag69
(g90
g71
NtRp172
(dp173
g74
(dp174
sg83
g159
sg76
(lp175
g69
(g70
g71
NtRp176
(dp177
g74
(dp178
g82
I5
ssg83
g172
sg76
(lp179
S'<cStringIO.StringO object at 0x102340618>'
p180
asbasbasbag69
(g85
g71
NtRp181
(dp182
g74
(dp183
sg83
g79
sg76
(lp184
g69
(g90
g71
NtRp185
(dp186
g74
(dp187
g94
g95
ssg83
g181
sg76
(lp188
S'cid'
p189
asbag69
(g90
g71
NtRp190
(dp191
g74
(dp192
g101
g102
ssg83
g181
sg76
(lp193
S':'
asbag69
(g90
g71
NtRp194
(dp195
g74
(dp196
sg83
g181
sg76
(lp197
g69
(g70
g71
NtRp198
(dp199
g74
(dp200
g82
I5
ssg83
g194
sg76
(lp201
S'None'
p202
asbasbasbag69
(g85
g71
NtRp203
(dp204
g74
(dp205
sg83
g79
sg76
(lp206
g69
(g90
g71
NtRp207
(dp208
g74
(dp209
g94
g95
ssg83
g203
sg76
(lp210
S'client'
p211
asbag69
(g90
g71
NtRp212
(dp213
g74
(dp214
g101
g102
ssg83
g203
sg76
(lp215
S':'
asbag69
(g90
g71
NtRp216
(dp217
g74
(dp218
sg83
g203
sg76
(lp219
g69
(g70
g71
NtRp220
(dp221
g74
(dp222
g82
I5
ssg83
g216
sg76
(lp223
S'127.0.0.1'
p224
asbasbasbag69
(g85
g71
NtRp225
(dp226
g74
(dp227
sg83
g79
sg76
(lp228
g69
(g90
g71
NtRp229
(dp230
g74
(dp231
g94
g95
ssg83
g225
sg76
(lp232
S'controller'
p233
asbag69
(g90
g71
NtRp234
(dp235
g74
(dp236
g101
g102
ssg83
g225
sg76
(lp237
S':'
asbag69
(g90
g71
NtRp238
(dp239
g74
(dp240
sg83
g225
sg76
(lp241
g69
(g70
g71
NtRp242
(dp243
g74
(dp244
g82
I5
ssg83
g238
sg76
(lp245
S'default'
p246
asbasbasbag69
(g85
g71
NtRp247
(dp248
g74
(dp249
sg83
g79
sg76
(lp250
g69
(g90
g71
NtRp251
(dp252
g74
(dp253
g94
g95
ssg83
g247
sg76
(lp254
S'cookies'
p255
asbag69
(g90
g71
NtRp256
(dp257
g74
(dp258
g101
g102
ssg83
g247
sg76
(lp259
S':'
asbag69
(g90
g71
NtRp260
(dp261
g74
(dp262
sg83
g247
sg76
(lp263
g69
(g70
g71
NtRp264
(dp265
g74
(dp266
g82
I5
ssg83
g260
sg76
(lp267
g69
(g78
g71
NtRp268
(dp269
g74
(dp270
g82
I4
ssg83
Nsg76
(lp271
sbasbasbasbag69
(g85
g71
NtRp272
(dp273
g74
(dp274
sg83
g79
sg76
(lp275
g69
(g90
g71
NtRp276
(dp277
g74
(dp278
g94
g95
ssg83
g272
sg76
(lp279
S'env'
p280
asbag69
(g90
g71
NtRp281
(dp282
g74
(dp283
g101
g102
ssg83
g272
sg76
(lp284
S':'
asbag69
(g90
g71
NtRp285
(dp286
g74
(dp287
sg83
g272
sg76
(lp288
g69
(g70
g71
NtRp289
(dp290
g74
(dp291
g82
I5
ssg83
g285
sg76
(lp292
g69
(g78
g71
NtRp293
(dp294
g74
(dp295
g82
I4
ssg83
Nsg76
(lp296
g69
(g85
g71
NtRp297
(dp298
g74
(dp299
sg83
g293
sg76
(lp300
g69
(g90
g71
NtRp301
(dp302
g74
(dp303
g94
g95
ssg83
g297
sg76
(lp304
S'app_folders'
p305
asbag69
(g90
g71
NtRp306
(dp307
g74
(dp308
g101
g102
ssg83
g297
sg76
(lp309
S':'
asbag69
(g90
g71
NtRp310
(dp311
g74
(dp312
sg83
g297
sg76
(lp313
g69
(g70
g71
NtRp314
(dp315
g74
(dp316
g82
I4
ssg83
g310
sg76
(lp317
S"set(['/Users/Karl/code/web2py/applications/newsFeed/', '/Users/Karl/code/web2py/applications/welcome/'])"
p318
asbasbasbag69
(g85
g71
NtRp319
(dp320
g74
(dp321
sg83
g293
sg76
(lp322
g69
(g90
g71
NtRp323
(dp324
g74
(dp325
g94
g95
ssg83
g319
sg76
(lp326
S'applications_parent'
p327
asbag69
(g90
g71
NtRp328
(dp329
g74
(dp330
g101
g102
ssg83
g319
sg76
(lp331
S':'
asbag69
(g90
g71
NtRp332
(dp333
g74
(dp334
sg83
g319
sg76
(lp335
g69
(g70
g71
NtRp336
(dp337
g74
(dp338
g82
I4
ssg83
g332
sg76
(lp339
S'/Users/Karl/code/web2py'
p340
asbasbasbag69
(g85
g71
NtRp341
(dp342
g74
(dp343
sg83
g293
sg76
(lp344
g69
(g90
g71
NtRp345
(dp346
g74
(dp347
g94
g95
ssg83
g341
sg76
(lp348
S'cmd_args'
p349
asbag69
(g90
g71
NtRp350
(dp351
g74
(dp352
g101
g102
ssg83
g341
sg76
(lp353
S':'
asbag69
(g90
g71
NtRp354
(dp355
g74
(dp356
sg83
g341
sg76
(lp357
g69
(g70
g71
NtRp358
(dp359
g74
(dp360
g82
I4
ssg83
g354
sg76
(lp361
g69
(g78
g71
NtRp362
(dp363
g74
(dp364
g82
I3
ssg83
Nsg76
(lp365
sbasbasbasbag69
(g85
g71
NtRp366
(dp367
g74
(dp368
sg83
g293
sg76
(lp369
g69
(g90
g71
NtRp370
(dp371
g74
(dp372
g94
g95
ssg83
g366
sg76
(lp373
S'cmd_options'
p374
asbag69
(g90
g71
NtRp375
(dp376
g74
(dp377
g101
g102
ssg83
g366
sg76
(lp378
S':'
asbag69
(g90
g71
NtRp379
(dp380
g74
(dp381
sg83
g366
sg76
(lp382
g69
(g70
g71
NtRp383
(dp384
g74
(dp385
g82
I4
ssg83
g379
sg76
(lp386
S"<Values at 0x101caf200: {'verbose': False, 'ip': '127.0.0.1', 'with_scheduler': False, 'ips': ['172.25.51.201'], 'shutdown_timeout': 5, 'taskbar': False, 'port': 8000, 'maxthreads': None, 'softcron': False, 'server_name': 'Karls-MacBook-Pro.local', 'bpython': False, 'nogui': False, 'nocron': False, 'extcron': False, 'run_system_tests': False, 'test': None, 'folder': '/Users/Karl/code/web2py', 'config': '', 'import_models': False, 'winservice': '', 'shell': None, 'run': '', 'log_filename': 'httpserver.log', 'debuglevel': 30, 'args': [''], 'socket_timeout': 5, 'ssl_ca_certificate': None, 'scheduler': None, 'profiler_filename': None, 'ssl_private_key': '', 'scheduler_groups': None, 'password': '<ask>', 'request_queue_size': 5, 'ssl_certificate': '', 'cronjob': False, 'numthreads': None, 'quiet': False, 'interfaces': None, 'minthreads': None, 'timeout': 10, 'plain': False, 'nobanner': False, 'pid_filename': 'httpserver.pid'}>"
p387
asbasbasbag69
(g85
g71
NtRp388
(dp389
g74
(dp390
sg83
g293
sg76
(lp391
g69
(g90
g71
NtRp392
(dp393
g74
(dp394
g94
g95
ssg83
g388
sg76
(lp395
S'db_sessions'
p396
asbag69
(g90
g71
NtRp397
(dp398
g74
(dp399
g101
g102
ssg83
g388
sg76
(lp400
S':'
asbag69
(g90
g71
NtRp401
(dp402
g74
(dp403
sg83
g388
sg76
(lp404
g69
(g70
g71
NtRp405
(dp406
g74
(dp407
g82
I4
ssg83
g401
sg76
(lp408
S'set([])'
p409
asbasbasbag69
(g85
g71
NtRp410
(dp411
g74
(dp412
sg83
g293
sg76
(lp413
g69
(g90
g71
NtRp414
(dp415
g74
(dp416
g94
g95
ssg83
g410
sg76
(lp417
S'debugging'
p418
asbag69
(g90
g71
NtRp419
(dp420
g74
(dp421
g101
g102
ssg83
g410
sg76
(lp422
S':'
asbag69
(g90
g71
NtRp423
(dp424
g74
(dp425
sg83
g410
sg76
(lp426
g69
(g70
g71
NtRp427
(dp428
g74
(dp429
g82
I4
ssg83
g423
sg76
(lp430
g112
asbasbasbag69
(g85
g71
NtRp431
(dp432
g74
(dp433
sg83
g293
sg76
(lp434
g69
(g90
g71
NtRp435
(dp436
g74
(dp437
g94
g95
ssg83
g431
sg76
(lp438
S'gluon_parent'
p439
asbag69
(g90
g71
NtRp440
(dp441
g74
(dp442
g101
g102
ssg83
g431
sg76
(lp443
S':'
asbag69
(g90
g71
NtRp444
(dp445
g74
(dp446
sg83
g431
sg76
(lp447
g69
(g70
g71
NtRp448
(dp449
g74
(dp450
g82
I4
ssg83
g444
sg76
(lp451
S'/Users/Karl/code/web2py'
p452
asbasbasbag69
(g85
g71
NtRp453
(dp454
g74
(dp455
sg83
g293
sg76
(lp456
g69
(g90
g71
NtRp457
(dp458
g74
(dp459
g94
g95
ssg83
g453
sg76
(lp460
S'http_accept'
p461
asbag69
(g90
g71
NtRp462
(dp463
g74
(dp464
g101
g102
ssg83
g453
sg76
(lp465
S':'
asbag69
(g90
g71
NtRp466
(dp467
g74
(dp468
sg83
g453
sg76
(lp469
g69
(g70
g71
NtRp470
(dp471
g74
(dp472
g82
I4
ssg83
g466
sg76
(lp473
S'text/html,application/xhtml+xml,application/xml;q=0.9,*/*;q=0.8'
p474
asbasbasbag69
(g85
g71
NtRp475
(dp476
g74
(dp477
sg83
g293
sg76
(lp478
g69
(g90
g71
NtRp479
(dp480
g74
(dp481
g94
g95
ssg83
g475
sg76
(lp482
S'http_accept_encoding'
p483
asbag69
(g90
g71
NtRp484
(dp485
g74
(dp486
g101
g102
ssg83
g475
sg76
(lp487
S':'
asbag69
(g90
g71
NtRp488
(dp489
g74
(dp490
sg83
g475
sg76
(lp491
g69
(g70
g71
NtRp492
(dp493
g74
(dp494
g82
I4
ssg83
g488
sg76
(lp495
S'gzip, deflate'
p496
asbasbasbag69
(g85
g71
NtRp497
(dp498
g74
(dp499
sg83
g293
sg76
(lp500
g69
(g90
g71
NtRp501
(dp502
g74
(dp503
g94
g95
ssg83
g497
sg76
(lp504
S'http_accept_language'
p505
asbag69
(g90
g71
NtRp506
(dp507
g74
(dp508
g101
g102
ssg83
g497
sg76
(lp509
S':'
asbag69
(g90
g71
NtRp510
(dp511
g74
(dp512
sg83
g497
sg76
(lp513
g69
(g70
g71
NtRp514
(dp515
g74
(dp516
g82
I4
ssg83
g510
sg76
(lp517
S'en-us'
p518
asbasbasbag69
(g85
g71
NtRp519
(dp520
g74
(dp521
sg83
g293
sg76
(lp522
g69
(g90
g71
NtRp523
(dp524
g74
(dp525
g94
g95
ssg83
g519
sg76
(lp526
S'http_connection'
p527
asbag69
(g90
g71
NtRp528
(dp529
g74
(dp530
g101
g102
ssg83
g519
sg76
(lp531
S':'
asbag69
(g90
g71
NtRp532
(dp533
g74
(dp534
sg83
g519
sg76
(lp535
g69
(g70
g71
NtRp536
(dp537
g74
(dp538
g82
I4
ssg83
g532
sg76
(lp539
S'keep-alive'
p540
asbasbasbag69
(g85
g71
NtRp541
(dp542
g74
(dp543
sg83
g293
sg76
(lp544
g69
(g90
g71
NtRp545
(dp546
g74
(dp547
g94
g95
ssg83
g541
sg76
(lp548
S'http_host'
p549
asbag69
(g90
g71
NtRp550
(dp551
g74
(dp552
g101
g102
ssg83
g541
sg76
(lp553
S':'
asbag69
(g90
g71
NtRp554
(dp555
g74
(dp556
sg83
g541
sg76
(lp557
g69
(g70
g71
NtRp558
(dp559
g74
(dp560
g82
I4
ssg83
g554
sg76
(lp561
S'127.0.0.1:8000'
p562
asbasbasbag69
(g85
g71
NtRp563
(dp564
g74
(dp565
sg83
g293
sg76
(lp566
g69
(g90
g71
NtRp567
(dp568
g74
(dp569
g94
g95
ssg83
g563
sg76
(lp570
S'http_user_agent'
p571
asbag69
(g90
g71
NtRp572
(dp573
g74
(dp574
g101
g102
ssg83
g563
sg76
(lp575
S':'
asbag69
(g90
g71
NtRp576
(dp577
g74
(dp578
sg83
g563
sg76
(lp579
g69
(g70
g71
NtRp580
(dp581
g74
(dp582
g82
I4
ssg83
g576
sg76
(lp583
S'Mozilla/5.0 (Macintosh; Intel Mac OS X 10_8_2) AppleWebKit/536.26.14 (KHTML, like Gecko) Version/6.0.1 Safari/536.26.14'
p584
asbasbasbag69
(g85
g71
NtRp585
(dp586
g74
(dp587
sg83
g293
sg76
(lp588
g69
(g90
g71
NtRp589
(dp590
g74
(dp591
g94
g95
ssg83
g585
sg76
(lp592
S'http_x_purpose'
p593
asbag69
(g90
g71
NtRp594
(dp595
g74
(dp596
g101
g102
ssg83
g585
sg76
(lp597
S':'
asbag69
(g90
g71
NtRp598
(dp599
g74
(dp600
sg83
g585
sg76
(lp601
g69
(g70
g71
NtRp602
(dp603
g74
(dp604
g82
I4
ssg83
g598
sg76
(lp605
S'preview'
p606
asbasbasbag69
(g85
g71
NtRp607
(dp608
g74
(dp609
sg83
g293
sg76
(lp610
g69
(g90
g71
NtRp611
(dp612
g74
(dp613
g94
g95
ssg83
g607
sg76
(lp614
S'is_jython'
p615
asbag69
(g90
g71
NtRp616
(dp617
g74
(dp618
g101
g102
ssg83
g607
sg76
(lp619
S':'
asbag69
(g90
g71
NtRp620
(dp621
g74
(dp622
sg83
g607
sg76
(lp623
g69
(g70
g71
NtRp624
(dp625
g74
(dp626
g82
I4
ssg83
g620
sg76
(lp627
g112
asbasbasbag69
(g85
g71
NtRp628
(dp629
g74
(dp630
sg83
g293
sg76
(lp631
g69
(g90
g71
NtRp632
(dp633
g74
(dp634
g94
g95
ssg83
g628
sg76
(lp635
S'is_pypy'
p636
asbag69
(g90
g71
NtRp637
(dp638
g74
(dp639
g101
g102
ssg83
g628
sg76
(lp640
S':'
asbag69
(g90
g71
NtRp641
(dp642
g74
(dp643
sg83
g628
sg76
(lp644
g69
(g70
g71
NtRp645
(dp646
g74
(dp647
g82
I4
ssg83
g641
sg76
(lp648
g112
asbasbasbag69
(g85
g71
NtRp649
(dp650
g74
(dp651
sg83
g293
sg76
(lp652
g69
(g90
g71
NtRp653
(dp654
g74
(dp655
g94
g95
ssg83
g649
sg76
(lp656
S'path_info'
p657
asbag69
(g90
g71
NtRp658
(dp659
g74
(dp660
g101
g102
ssg83
g649
sg76
(lp661
S':'
asbag69
(g90
g71
NtRp662
(dp663
g74
(dp664
sg83
g649
sg76
(lp665
g69
(g70
g71
NtRp666
(dp667
g74
(dp668
g82
I4
ssg83
g662
sg76
(lp669
S'/newsFeed/default/index'
p670
asbasbasbag69
(g85
g71
NtRp671
(dp672
g74
(dp673
sg83
g293
sg76
(lp674
g69
(g90
g71
NtRp675
(dp676
g74
(dp677
g94
g95
ssg83
g671
sg76
(lp678
S'query_string'
p679
asbag69
(g90
g71
NtRp680
(dp681
g74
(dp682
g101
g102
ssg83
g671
sg76
(lp683
S':'
asbag69
(g90
g71
NtRp684
(dp685
g74
(dp686
sg83
g671
sg76
(lp687
g69
(g70
g71
NtRp688
(dp689
g74
(dp690
g82
I4
ssg83
g684
sg76
(lp691
S''
asbasbasbag69
(g85
g71
NtRp692
(dp693
g74
(dp694
sg83
g293
sg76
(lp695
g69
(g90
g71
NtRp696
(dp697
g74
(dp698
g94
g95
ssg83
g692
sg76
(lp699
S'remote_addr'
p700
asbag69
(g90
g71
NtRp701
(dp702
g74
(dp703
g101
g102
ssg83
g692
sg76
(lp704
S':'
asbag69
(g90
g71
NtRp705
(dp706
g74
(dp707
sg83
g692
sg76
(lp708
g69
(g70
g71
NtRp709
(dp710
g74
(dp711
g82
I4
ssg83
g705
sg76
(lp712
g224
asbasbasbag69
(g85
g71
NtRp713
(dp714
g74
(dp715
sg83
g293
sg76
(lp716
g69
(g90
g71
NtRp717
(dp718
g74
(dp719
g94
g95
ssg83
g713
sg76
(lp720
S'remote_port'
p721
asbag69
(g90
g71
NtRp722
(dp723
g74
(dp724
g101
g102
ssg83
g713
sg76
(lp725
S':'
asbag69
(g90
g71
NtRp726
(dp727
g74
(dp728
sg83
g713
sg76
(lp729
g69
(g70
g71
NtRp730
(dp731
g74
(dp732
g82
I4
ssg83
g726
sg76
(lp733
S'55693'
p734
asbasbasbag69
(g85
g71
NtRp735
(dp736
g74
(dp737
sg83
g293
sg76
(lp738
g69
(g90
g71
NtRp739
(dp740
g74
(dp741
g94
g95
ssg83
g735
sg76
(lp742
S'request_method'
p743
asbag69
(g90
g71
NtRp744
(dp745
g74
(dp746
g101
g102
ssg83
g735
sg76
(lp747
S':'
asbag69
(g90
g71
NtRp748
(dp749
g74
(dp750
sg83
g735
sg76
(lp751
g69
(g70
g71
NtRp752
(dp753
g74
(dp754
g82
I4
ssg83
g748
sg76
(lp755
S'GET'
p756
asbasbasbag69
(g85
g71
NtRp757
(dp758
g74
(dp759
sg83
g293
sg76
(lp760
g69
(g90
g71
NtRp761
(dp762
g74
(dp763
g94
g95
ssg83
g757
sg76
(lp764
S'request_uri'
p765
asbag69
(g90
g71
NtRp766
(dp767
g74
(dp768
g101
g102
ssg83
g757
sg76
(lp769
S':'
asbag69
(g90
g71
NtRp770
(dp771
g74
(dp772
sg83
g757
sg76
(lp773
g69
(g70
g71
NtRp774
(dp775
g74
(dp776
g82
I4
ssg83
g770
sg76
(lp777
g670
asbasbasbag69
(g85
g71
NtRp778
(dp779
g74
(dp780
sg83
g293
sg76
(lp781
g69
(g90
g71
NtRp782
(dp783
g74
(dp784
g94
g95
ssg83
g778
sg76
(lp785
S'script_name'
p786
asbag69
(g90
g71
NtRp787
(dp788
g74
(dp789
g101
g102
ssg83
g778
sg76
(lp790
S':'
asbag69
(g90
g71
NtRp791
(dp792
g74
(dp793
sg83
g778
sg76
(lp794
g69
(g70
g71
NtRp795
(dp796
g74
(dp797
g82
I4
ssg83
g791
sg76
(lp798
S''
asbasbasbag69
(g85
g71
NtRp799
(dp800
g74
(dp801
sg83
g293
sg76
(lp802
g69
(g90
g71
NtRp803
(dp804
g74
(dp805
g94
g95
ssg83
g799
sg76
(lp806
S'server_name'
p807
asbag69
(g90
g71
NtRp808
(dp809
g74
(dp810
g101
g102
ssg83
g799
sg76
(lp811
S':'
asbag69
(g90
g71
NtRp812
(dp813
g74
(dp814
sg83
g799
sg76
(lp815
g69
(g70
g71
NtRp816
(dp817
g74
(dp818
g82
I4
ssg83
g812
sg76
(lp819
S'Karls-MacBook-Pro.local'
p820
asbasbasbag69
(g85
g71
NtRp821
(dp822
g74
(dp823
sg83
g293
sg76
(lp824
g69
(g90
g71
NtRp825
(dp826
g74
(dp827
g94
g95
ssg83
g821
sg76
(lp828
S'server_port'
p829
asbag69
(g90
g71
NtRp830
(dp831
g74
(dp832
g101
g102
ssg83
g821
sg76
(lp833
S':'
asbag69
(g90
g71
NtRp834
(dp835
g74
(dp836
sg83
g821
sg76
(lp837
g69
(g70
g71
NtRp838
(dp839
g74
(dp840
g82
I4
ssg83
g834
sg76
(lp841
S'8000'
p842
asbasbasbag69
(g85
g71
NtRp843
(dp844
g74
(dp845
sg83
g293
sg76
(lp846
g69
(g90
g71
NtRp847
(dp848
g74
(dp849
g94
g95
ssg83
g843
sg76
(lp850
S'server_protocol'
p851
asbag69
(g90
g71
NtRp852
(dp853
g74
(dp854
g101
g102
ssg83
g843
sg76
(lp855
S':'
asbag69
(g90
g71
NtRp856
(dp857
g74
(dp858
sg83
g843
sg76
(lp859
g69
(g70
g71
NtRp860
(dp861
g74
(dp862
g82
I4
ssg83
g856
sg76
(lp863
S'HTTP/1.1'
p864
asbasbasbag69
(g85
g71
NtRp865
(dp866
g74
(dp867
sg83
g293
sg76
(lp868
g69
(g90
g71
NtRp869
(dp870
g74
(dp871
g94
g95
ssg83
g865
sg76
(lp872
S'server_software'
p873
asbag69
(g90
g71
NtRp874
(dp875
g74
(dp876
g101
g102
ssg83
g865
sg76
(lp877
S':'
asbag69
(g90
g71
NtRp878
(dp879
g74
(dp880
sg83
g865
sg76
(lp881
g69
(g70
g71
NtRp882
(dp883
g74
(dp884
g82
I4
ssg83
g878
sg76
(lp885
S'Rocket 1.2.4'
p886
asbasbasbag69
(g85
g71
NtRp887
(dp888
g74
(dp889
sg83
g293
sg76
(lp890
g69
(g90
g71
NtRp891
(dp892
g74
(dp893
g94
g95
ssg83
g887
sg76
(lp894
S'web2py_crontype'
p895
asbag69
(g90
g71
NtRp896
(dp897
g74
(dp898
g101
g102
ssg83
g887
sg76
(lp899
S':'
asbag69
(g90
g71
NtRp900
(dp901
g74
(dp902
sg83
g887
sg76
(lp903
g69
(g70
g71
NtRp904
(dp905
g74
(dp906
g82
I4
ssg83
g900
sg76
(lp907
S'hard'
p908
asbasbasbag69
(g85
g71
NtRp909
(dp910
g74
(dp911
sg83
g293
sg76
(lp912
g69
(g90
g71
NtRp913
(dp914
g74
(dp915
g94
g95
ssg83
g909
sg76
(lp916
S'web2py_path'
p917
asbag69
(g90
g71
NtRp918
(dp919
g74
(dp920
g101
g102
ssg83
g909
sg76
(lp921
S':'
asbag69
(g90
g71
NtRp922
(dp923
g74
(dp924
sg83
g909
sg76
(lp925
g69
(g70
g71
NtRp926
(dp927
g74
(dp928
g82
I4
ssg83
g922
sg76
(lp929
g340
asbasbasbag69
(g85
g71
NtRp930
(dp931
g74
(dp932
sg83
g293
sg76
(lp933
g69
(g90
g71
NtRp934
(dp935
g74
(dp936
g94
g95
ssg83
g930
sg76
(lp937
S'web2py_version'
p938
asbag69
(g90
g71
NtRp939
(dp940
g74
(dp941
g101
g102
ssg83
g930
sg76
(lp942
S':'
asbag69
(g90
g71
NtRp943
(dp944
g74
(dp945
sg83
g930
sg76
(lp946
g69
(g70
g71
NtRp947
(dp948
g74
(dp949
g82
I4
ssg83
g943
sg76
(lp950
g69
(g78
g71
NtRp951
(dp952
g74
(dp953
g82
I3
ssg83
Nsg76
(lp954
g69
(g85
g71
NtRp955
(dp956
g74
(dp957
sg83
g951
sg76
(lp958
g69
(g90
g71
NtRp959
(dp960
g74
(dp961
sg83
g955
sg76
(lp962
g69
(g70
g71
NtRp963
(dp964
g74
(dp965
g82
I3
ssg83
g959
sg76
(lp966
S'2'
asbasbasbag69
(g85
g71
NtRp967
(dp968
g74
(dp969
sg83
g951
sg76
(lp970
g69
(g90
g71
NtRp971
(dp972
g74
(dp973
sg83
g967
sg76
(lp974
g69
(g70
g71
NtRp975
(dp976
g74
(dp977
g82
I3
ssg83
g971
sg76
(lp978
S'0'
asbasbasbag69
(g85
g71
NtRp979
(dp980
g74
(dp981
sg83
g951
sg76
(lp982
g69
(g90
g71
NtRp983
(dp984
g74
(dp985
sg83
g979
sg76
(lp986
g69
(g70
g71
NtRp987
(dp988
g74
(dp989
g82
I3
ssg83
g983
sg76
(lp990
S'9'
asbasbasbag69
(g85
g71
NtRp991
(dp992
g74
(dp993
sg83
g951
sg76
(lp994
g69
(g90
g71
NtRp995
(dp996
g74
(dp997
sg83
g991
sg76
(lp998
g69
(g70
g71
NtRp999
(dp1000
g74
(dp1001
g82
I3
ssg83
g995
sg76
(lp1002
S'datetime.datetime(2012, 9, 13, 23, 51, 30)'
p1003
asbasbasbag69
(g85
g71
NtRp1004
(dp1005
g74
(dp1006
sg83
g951
sg76
(lp1007
g69
(g90
g71
NtRp1008
(dp1009
g74
(dp1010
sg83
g1004
sg76
(lp1011
g69
(g70
g71
NtRp1012
(dp1013
g74
(dp1014
g82
I3
ssg83
g1008
sg76
(lp1015
S'stable'
p1016
asbasbasbasbasbasbasbag69
(g85
g71
NtRp1017
(dp1018
g74
(dp1019
sg83
g293
sg76
(lp1020
g69
(g90
g71
NtRp1021
(dp1022
g74
(dp1023
g94
g95
ssg83
g1017
sg76
(lp1024
S'wsgi_errors'
p1025
asbag69
(g90
g71
NtRp1026
(dp1027
g74
(dp1028
g101
g102
ssg83
g1017
sg76
(lp1029
S':'
asbag69
(g90
g71
NtRp1030
(dp1031
g74
(dp1032
sg83
g1017
sg76
(lp1033
g69
(g70
g71
NtRp1034
(dp1035
g74
(dp1036
g82
I4
ssg83
g1030
sg76
(lp1037
S"<open file '<stderr>', mode 'w' at 0x100284270>"
p1038
asbasbasbag69
(g85
g71
NtRp1039
(dp1040
g74
(dp1041
sg83
g293
sg76
(lp1042
g69
(g90
g71
NtRp1043
(dp1044
g74
(dp1045
g94
g95
ssg83
g1039
sg76
(lp1046
S'wsgi_file_wrapper'
p1047
asbag69
(g90
g71
NtRp1048
(dp1049
g74
(dp1050
g101
g102
ssg83
g1039
sg76
(lp1051
S':'
asbag69
(g90
g71
NtRp1052
(dp1053
g74
(dp1054
sg83
g1039
sg76
(lp1055
g69
(g70
g71
NtRp1056
(dp1057
g74
(dp1058
g82
I4
ssg83
g1052
sg76
(lp1059
S'<class wsgiref.util.FileWrapper at 0x101c53bb0>'
p1060
asbasbasbag69
(g85
g71
NtRp1061
(dp1062
g74
(dp1063
sg83
g293
sg76
(lp1064
g69
(g90
g71
NtRp1065
(dp1066
g74
(dp1067
g94
g95
ssg83
g1061
sg76
(lp1068
S'wsgi_input'
p1069
asbag69
(g90
g71
NtRp1070
(dp1071
g74
(dp1072
g101
g102
ssg83
g1061
sg76
(lp1073
S':'
asbag69
(g90
g71
NtRp1074
(dp1075
g74
(dp1076
sg83
g1061
sg76
(lp1077
g69
(g70
g71
NtRp1078
(dp1079
g74
(dp1080
g82
I4
ssg83
g1074
sg76
(lp1081
S'<socket._fileobject object at 0x10235d0d0>'
p1082
asbasbasbag69
(g85
g71
NtRp1083
(dp1084
g74
(dp1085
sg83
g293
sg76
(lp1086
g69
(g90
g71
NtRp1087
(dp1088
g74
(dp1089
g94
g95
ssg83
g1083
sg76
(lp1090
S'wsgi_multiprocess'
p1091
asbag69
(g90
g71
NtRp1092
(dp1093
g74
(dp1094
g101
g102
ssg83
g1083
sg76
(lp1095
S':'
asbag69
(g90
g71
NtRp1096
(dp1097
g74
(dp1098
sg83
g1083
sg76
(lp1099
g69
(g70
g71
NtRp1100
(dp1101
g74
(dp1102
g82
I4
ssg83
g1096
sg76
(lp1103
g112
asbasbasbag69
(g85
g71
NtRp1104
(dp1105
g74
(dp1106
sg83
g293
sg76
(lp1107
g69
(g90
g71
NtRp1108
(dp1109
g74
(dp1110
g94
g95
ssg83
g1104
sg76
(lp1111
S'wsgi_multithread'
p1112
asbag69
(g90
g71
NtRp1113
(dp1114
g74
(dp1115
g101
g102
ssg83
g1104
sg76
(lp1116
S':'
asbag69
(g90
g71
NtRp1117
(dp1118
g74
(dp1119
sg83
g1104
sg76
(lp1120
g69
(g70
g71
NtRp1121
(dp1122
g74
(dp1123
g82
I4
ssg83
g1117
sg76
(lp1124
S'True'
p1125
asbasbasbag69
(g85
g71
NtRp1126
(dp1127
g74
(dp1128
sg83
g293
sg76
(lp1129
g69
(g90
g71
NtRp1130
(dp1131
g74
(dp1132
g94
g95
ssg83
g1126
sg76
(lp1133
S'wsgi_run_once'
p1134
asbag69
(g90
g71
NtRp1135
(dp1136
g74
(dp1137
g101
g102
ssg83
g1126
sg76
(lp1138
S':'
asbag69
(g90
g71
NtRp1139
(dp1140
g74
(dp1141
sg83
g1126
sg76
(lp1142
g69
(g70
g71
NtRp1143
(dp1144
g74
(dp1145
g82
I4
ssg83
g1139
sg76
(lp1146
g112
asbasbasbag69
(g85
g71
NtRp1147
(dp1148
g74
(dp1149
sg83
g293
sg76
(lp1150
g69
(g90
g71
NtRp1151
(dp1152
g74
(dp1153
g94
g95
ssg83
g1147
sg76
(lp1154
S'wsgi_url_scheme'
p1155
asbag69
(g90
g71
NtRp1156
(dp1157
g74
(dp1158
g101
g102
ssg83
g1147
sg76
(lp1159
S':'
asbag69
(g90
g71
NtRp1160
(dp1161
g74
(dp1162
sg83
g1147
sg76
(lp1163
g69
(g70
g71
NtRp1164
(dp1165
g74
(dp1166
g82
I4
ssg83
g1160
sg76
(lp1167
S'http'
p1168
asbasbasbag69
(g85
g71
NtRp1169
(dp1170
g74
(dp1171
sg83
g293
sg76
(lp1172
g69
(g90
g71
NtRp1173
(dp1174
g74
(dp1175
g94
g95
ssg83
g1169
sg76
(lp1176
S'wsgi_version'
p1177
asbag69
(g90
g71
NtRp1178
(dp1179
g74
(dp1180
g101
g102
ssg83
g1169
sg76
(lp1181
S':'
asbag69
(g90
g71
NtRp1182
(dp1183
g74
(dp1184
sg83
g1169
sg76
(lp1185
g69
(g70
g71
NtRp1186
(dp1187
g74
(dp1188
g82
I4
ssg83
g1182
sg76
(lp1189
g69
(g78
g71
NtRp1190
(dp1191
g74
(dp1192
g82
I3
ssg83
Nsg76
(lp1193
g69
(g85
g71
NtRp1194
(dp1195
g74
(dp1196
sg83
g1190
sg76
(lp1197
g69
(g90
g71
NtRp1198
(dp1199
g74
(dp1200
sg83
g1194
sg76
(lp1201
g69
(g70
g71
NtRp1202
(dp1203
g74
(dp1204
g82
I3
ssg83
g1198
sg76
(lp1205
S'1'
asbasbasbag69
(g85
g71
NtRp1206
(dp1207
g74
(dp1208
sg83
g1190
sg76
(lp1209
g69
(g90
g71
NtRp1210
(dp1211
g74
(dp1212
sg83
g1206
sg76
(lp1213
g69
(g70
g71
NtRp1214
(dp1215
g74
(dp1216
g82
I3
ssg83
g1210
sg76
(lp1217
S'0'
asbasbasbasbasbasbasbasbasbasbasbag69
(g85
g71
NtRp1218
(dp1219
g74
(dp1220
sg83
g79
sg76
(lp1221
g69
(g90
g71
NtRp1222
(dp1223
g74
(dp1224
g94
g95
ssg83
g1218
sg76
(lp1225
S'extension'
p1226
asbag69
(g90
g71
NtRp1227
(dp1228
g74
(dp1229
g101
g102
ssg83
g1218
sg76
(lp1230
S':'
asbag69
(g90
g71
NtRp1231
(dp1232
g74
(dp1233
sg83
g1218
sg76
(lp1234
g69
(g70
g71
NtRp1235
(dp1236
g74
(dp1237
g82
I5
ssg83
g1231
sg76
(lp1238
S'html'
p1239
asbasbasbag69
(g85
g71
NtRp1240
(dp1241
g74
(dp1242
sg83
g79
sg76
(lp1243
g69
(g90
g71
NtRp1244
(dp1245
g74
(dp1246
g94
g95
ssg83
g1240
sg76
(lp1247
S'folder'
p1248
asbag69
(g90
g71
NtRp1249
(dp1250
g74
(dp1251
g101
g102
ssg83
g1240
sg76
(lp1252
S':'
asbag69
(g90
g71
NtRp1253
(dp1254
g74
(dp1255
sg83
g1240
sg76
(lp1256
g69
(g70
g71
NtRp1257
(dp1258
g74
(dp1259
g82
I5
ssg83
g1253
sg76
(lp1260
S'/Users/Karl/code/web2py/applications/newsFeed/'
p1261
asbasbasbag69
(g85
g71
NtRp1262
(dp1263
g74
(dp1264
sg83
g79
sg76
(lp1265
g69
(g90
g71
NtRp1266
(dp1267
g74
(dp1268
g94
g95
ssg83
g1262
sg76
(lp1269
S'function'
p1270
asbag69
(g90
g71
NtRp1271
(dp1272
g74
(dp1273
g101
g102
ssg83
g1262
sg76
(lp1274
S':'
asbag69
(g90
g71
NtRp1275
(dp1276
g74
(dp1277
sg83
g1262
sg76
(lp1278
g69
(g70
g71
NtRp1279
(dp1280
g74
(dp1281
g82
I5
ssg83
g1275
sg76
(lp1282
S'index'
p1283
asbasbasbag69
(g85
g71
NtRp1284
(dp1285
g74
(dp1286
sg83
g79
sg76
(lp1287
g69
(g90
g71
NtRp1288
(dp1289
g74
(dp1290
g94
g95
ssg83
g1284
sg76
(lp1291
S'get_vars'
p1292
asbag69
(g90
g71
NtRp1293
(dp1294
g74
(dp1295
g101
g102
ssg83
g1284
sg76
(lp1296
S':'
asbag69
(g90
g71
NtRp1297
(dp1298
g74
(dp1299
sg83
g1284
sg76
(lp1300
g69
(g70
g71
NtRp1301
(dp1302
g74
(dp1303
g82
I5
ssg83
g1297
sg76
(lp1304
g69
(g78
g71
NtRp1305
(dp1306
g74
(dp1307
g82
I4
ssg83
Nsg76
(lp1308
sbasbasbasbag69
(g85
g71
NtRp1309
(dp1310
g74
(dp1311
sg83
g79
sg76
(lp1312
g69
(g90
g71
NtRp1313
(dp1314
g74
(dp1315
g94
g95
ssg83
g1309
sg76
(lp1316
S'global_settings'
p1317
asbag69
(g90
g71
NtRp1318
(dp1319
g74
(dp1320
g101
g102
ssg83
g1309
sg76
(lp1321
S':'
asbag69
(g90
g71
NtRp1322
(dp1323
g74
(dp1324
sg83
g1309
sg76
(lp1325
g69
(g70
g71
NtRp1326
(dp1327
g74
(dp1328
g82
I5
ssg83
g1322
sg76
(lp1329
g69
(g78
g71
NtRp1330
(dp1331
g74
(dp1332
g82
I4
ssg83
Nsg76
(lp1333
g69
(g85
g71
NtRp1334
(dp1335
g74
(dp1336
sg83
g1330
sg76
(lp1337
g69
(g90
g71
NtRp1338
(dp1339
g74
(dp1340
g94
g95
ssg83
g1334
sg76
(lp1341
g305
asbag69
(g90
g71
NtRp1342
(dp1343
g74
(dp1344
g101
g102
ssg83
g1334
sg76
(lp1345
S':'
asbag69
(g90
g71
NtRp1346
(dp1347
g74
(dp1348
sg83
g1334
sg76
(lp1349
g69
(g70
g71
NtRp1350
(dp1351
g74
(dp1352
g82
I4
ssg83
g1346
sg76
(lp1353
S"set(['/Users/Karl/code/web2py/applications/newsFeed/', '/Users/Karl/code/web2py/applications/welcome/'])"
p1354
asbasbasbag69
(g85
g71
NtRp1355
(dp1356
g74
(dp1357
sg83
g1330
sg76
(lp1358
g69
(g90
g71
NtRp1359
(dp1360
g74
(dp1361
g94
g95
ssg83
g1355
sg76
(lp1362
g327
asbag69
(g90
g71
NtRp1363
(dp1364
g74
(dp1365
g101
g102
ssg83
g1355
sg76
(lp1366
S':'
asbag69
(g90
g71
NtRp1367
(dp1368
g74
(dp1369
sg83
g1355
sg76
(lp1370
g69
(g70
g71
NtRp1371
(dp1372
g74
(dp1373
g82
I4
ssg83
g1367
sg76
(lp1374
g340
asbasbasbag69
(g85
g71
NtRp1375
(dp1376
g74
(dp1377
sg83
g1330
sg76
(lp1378
g69
(g90
g71
NtRp1379
(dp1380
g74
(dp1381
g94
g95
ssg83
g1375
sg76
(lp1382
g349
asbag69
(g90
g71
NtRp1383
(dp1384
g74
(dp1385
g101
g102
ssg83
g1375
sg76
(lp1386
S':'
asbag69
(g90
g71
NtRp1387
(dp1388
g74
(dp1389
sg83
g1375
sg76
(lp1390
g69
(g70
g71
NtRp1391
(dp1392
g74
(dp1393
g82
I4
ssg83
g1387
sg76
(lp1394
g69
(g78
g71
NtRp1395
(dp1396
g74
(dp1397
g82
I3
ssg83
Nsg76
(lp1398
sbasbasbasbag69
(g85
g71
NtRp1399
(dp1400
g74
(dp1401
sg83
g1330
sg76
(lp1402
g69
(g90
g71
NtRp1403
(dp1404
g74
(dp1405
g94
g95
ssg83
g1399
sg76
(lp1406
g374
asbag69
(g90
g71
NtRp1407
(dp1408
g74
(dp1409
g101
g102
ssg83
g1399
sg76
(lp1410
S':'
asbag69
(g90
g71
NtRp1411
(dp1412
g74
(dp1413
sg83
g1399
sg76
(lp1414
g69
(g70
g71
NtRp1415
(dp1416
g74
(dp1417
g82
I4
ssg83
g1411
sg76
(lp1418
S"<Values at 0x101caf200: {'verbose': False, 'ip': '127.0.0.1', 'with_scheduler': False, 'ips': ['172.25.51.201'], 'shutdown_timeout': 5, 'taskbar': False, 'port': 8000, 'maxthreads': None, 'softcron': False, 'server_name': 'Karls-MacBook-Pro.local', 'bpython': False, 'nogui': False, 'nocron': False, 'extcron': False, 'run_system_tests': False, 'test': None, 'folder': '/Users/Karl/code/web2py', 'config': '', 'import_models': False, 'winservice': '', 'shell': None, 'run': '', 'log_filename': 'httpserver.log', 'debuglevel': 30, 'args': [''], 'socket_timeout': 5, 'ssl_ca_certificate': None, 'scheduler': None, 'profiler_filename': None, 'ssl_private_key': '', 'scheduler_groups': None, 'password': '<ask>', 'request_queue_size': 5, 'ssl_certificate': '', 'cronjob': False, 'numthreads': None, 'quiet': False, 'interfaces': None, 'minthreads': None, 'timeout': 10, 'plain': False, 'nobanner': False, 'pid_filename': 'httpserver.pid'}>"
p1419
asbasbasbag69
(g85
g71
NtRp1420
(dp1421
g74
(dp1422
sg83
g1330
sg76
(lp1423
g69
(g90
g71
NtRp1424
(dp1425
g74
(dp1426
g94
g95
ssg83
g1420
sg76
(lp1427
g396
asbag69
(g90
g71
NtRp1428
(dp1429
g74
(dp1430
g101
g102
ssg83
g1420
sg76
(lp1431
S':'
asbag69
(g90
g71
NtRp1432
(dp1433
g74
(dp1434
sg83
g1420
sg76
(lp1435
g69
(g70
g71
NtRp1436
(dp1437
g74
(dp1438
g82
I4
ssg83
g1432
sg76
(lp1439
S'set([])'
p1440
asbasbasbag69
(g85
g71
NtRp1441
(dp1442
g74
(dp1443
sg83
g1330
sg76
(lp1444
g69
(g90
g71
NtRp1445
(dp1446
g74
(dp1447
g94
g95
ssg83
g1441
sg76
(lp1448
g418
asbag69
(g90
g71
NtRp1449
(dp1450
g74
(dp1451
g101
g102
ssg83
g1441
sg76
(lp1452
S':'
asbag69
(g90
g71
NtRp1453
(dp1454
g74
(dp1455
sg83
g1441
sg76
(lp1456
g69
(g70
g71
NtRp1457
(dp1458
g74
(dp1459
g82
I4
ssg83
g1453
sg76
(lp1460
g112
asbasbasbag69
(g85
g71
NtRp1461
(dp1462
g74
(dp1463
sg83
g1330
sg76
(lp1464
g69
(g90
g71
NtRp1465
(dp1466
g74
(dp1467
g94
g95
ssg83
g1461
sg76
(lp1468
g439
asbag69
(g90
g71
NtRp1469
(dp1470
g74
(dp1471
g101
g102
ssg83
g1461
sg76
(lp1472
S':'
asbag69
(g90
g71
NtRp1473
(dp1474
g74
(dp1475
sg83
g1461
sg76
(lp1476
g69
(g70
g71
NtRp1477
(dp1478
g74
(dp1479
g82
I4
ssg83
g1473
sg76
(lp1480
g452
asbasbasbag69
(g85
g71
NtRp1481
(dp1482
g74
(dp1483
sg83
g1330
sg76
(lp1484
g69
(g90
g71
NtRp1485
(dp1486
g74
(dp1487
g94
g95
ssg83
g1481
sg76
(lp1488
g615
asbag69
(g90
g71
NtRp1489
(dp1490
g74
(dp1491
g101
g102
ssg83
g1481
sg76
(lp1492
S':'
asbag69
(g90
g71
NtRp1493
(dp1494
g74
(dp1495
sg83
g1481
sg76
(lp1496
g69
(g70
g71
NtRp1497
(dp1498
g74
(dp1499
g82
I4
ssg83
g1493
sg76
(lp1500
g112
asbasbasbag69
(g85
g71
NtRp1501
(dp1502
g74
(dp1503
sg83
g1330
sg76
(lp1504
g69
(g90
g71
NtRp1505
(dp1506
g74
(dp1507
g94
g95
ssg83
g1501
sg76
(lp1508
g636
asbag69
(g90
g71
NtRp1509
(dp1510
g74
(dp1511
g101
g102
ssg83
g1501
sg76
(lp1512
S':'
asbag69
(g90
g71
NtRp1513
(dp1514
g74
(dp1515
sg83
g1501
sg76
(lp1516
g69
(g70
g71
NtRp1517
(dp1518
g74
(dp1519
g82
I4
ssg83
g1513
sg76
(lp1520
g112
asbasbasbag69
(g85
g71
NtRp1521
(dp1522
g74
(dp1523
sg83
g1330
sg76
(lp1524
g69
(g90
g71
NtRp1525
(dp1526
g74
(dp1527
g94
g95
ssg83
g1521
sg76
(lp1528
g895
asbag69
(g90
g71
NtRp1529
(dp1530
g74
(dp1531
g101
g102
ssg83
g1521
sg76
(lp1532
S':'
asbag69
(g90
g71
NtRp1533
(dp1534
g74
(dp1535
sg83
g1521
sg76
(lp1536
g69
(g70
g71
NtRp1537
(dp1538
g74
(dp1539
g82
I4
ssg83
g1533
sg76
(lp1540
g908
asbasbasbag69
(g85
g71
NtRp1541
(dp1542
g74
(dp1543
sg83
g1330
sg76
(lp1544
g69
(g90
g71
NtRp1545
(dp1546
g74
(dp1547
g94
g95
ssg83
g1541
sg76
(lp1548
g938
asbag69
(g90
g71
NtRp1549
(dp1550
g74
(dp1551
g101
g102
ssg83
g1541
sg76
(lp1552
S':'
asbag69
(g90
g71
NtRp1553
(dp1554
g74
(dp1555
sg83
g1541
sg76
(lp1556
g69
(g70
g71
NtRp1557
(dp1558
g74
(dp1559
g82
I4
ssg83
g1553
sg76
(lp1560
g69
(g78
g71
NtRp1561
(dp1562
g74
(dp1563
g82
I3
ssg83
Nsg76
(lp1564
g69
(g85
g71
NtRp1565
(dp1566
g74
(dp1567
sg83
g1561
sg76
(lp1568
g69
(g90
g71
NtRp1569
(dp1570
g74
(dp1571
sg83
g1565
sg76
(lp1572
g69
(g70
g71
NtRp1573
(dp1574
g74
(dp1575
g82
I3
ssg83
g1569
sg76
(lp1576
S'2'
asbasbasbag69
(g85
g71
NtRp1577
(dp1578
g74
(dp1579
sg83
g1561
sg76
(lp1580
g69
(g90
g71
NtRp1581
(dp1582
g74
(dp1583
sg83
g1577
sg76
(lp1584
g69
(g70
g71
NtRp1585
(dp1586
g74
(dp1587
g82
I3
ssg83
g1581
sg76
(lp1588
S'0'
asbasbasbag69
(g85
g71
NtRp1589
(dp1590
g74
(dp1591
sg83
g1561
sg76
(lp1592
g69
(g90
g71
NtRp1593
(dp1594
g74
(dp1595
sg83
g1589
sg76
(lp1596
g69
(g70
g71
NtRp1597
(dp1598
g74
(dp1599
g82
I3
ssg83
g1593
sg76
(lp1600
S'9'
asbasbasbag69
(g85
g71
NtRp1601
(dp1602
g74
(dp1603
sg83
g1561
sg76
(lp1604
g69
(g90
g71
NtRp1605
(dp1606
g74
(dp1607
sg83
g1601
sg76
(lp1608
g69
(g70
g71
NtRp1609
(dp1610
g74
(dp1611
g82
I3
ssg83
g1605
sg76
(lp1612
S'datetime.datetime(2012, 9, 13, 23, 51, 30)'
p1613
asbasbasbag69
(g85
g71
NtRp1614
(dp1615
g74
(dp1616
sg83
g1561
sg76
(lp1617
g69
(g90
g71
NtRp1618
(dp1619
g74
(dp1620
sg83
g1614
sg76
(lp1621
g69
(g70
g71
NtRp1622
(dp1623
g74
(dp1624
g82
I3
ssg83
g1618
sg76
(lp1625
g1016
asbasbasbasbasbasbasbasbasbasbasbag69
(g85
g71
NtRp1626
(dp1627
g74
(dp1628
sg83
g79
sg76
(lp1629
g69
(g90
g71
NtRp1630
(dp1631
g74
(dp1632
g94
g95
ssg83
g1626
sg76
(lp1633
S'is_https'
p1634
asbag69
(g90
g71
NtRp1635
(dp1636
g74
(dp1637
g101
g102
ssg83
g1626
sg76
(lp1638
S':'
asbag69
(g90
g71
NtRp1639
(dp1640
g74
(dp1641
sg83
g1626
sg76
(lp1642
g69
(g70
g71
NtRp1643
(dp1644
g74
(dp1645
g82
I5
ssg83
g1639
sg76
(lp1646
g112
asbasbasbag69
(g85
g71
NtRp1647
(dp1648
g74
(dp1649
sg83
g79
sg76
(lp1650
g69
(g90
g71
NtRp1651
(dp1652
g74
(dp1653
g94
g95
ssg83
g1647
sg76
(lp1654
S'is_local'
p1655
asbag69
(g90
g71
NtRp1656
(dp1657
g74
(dp1658
g101
g102
ssg83
g1647
sg76
(lp1659
S':'
asbag69
(g90
g71
NtRp1660
(dp1661
g74
(dp1662
sg83
g1647
sg76
(lp1663
g69
(g70
g71
NtRp1664
(dp1665
g74
(dp1666
g82
I5
ssg83
g1660
sg76
(lp1667
g1125
asbasbasbag69
(g85
g71
NtRp1668
(dp1669
g74
(dp1670
sg83
g79
sg76
(lp1671
g69
(g90
g71
NtRp1672
(dp1673
g74
(dp1674
g94
g95
ssg83
g1668
sg76
(lp1675
S'is_restful'
p1676
asbag69
(g90
g71
NtRp1677
(dp1678
g74
(dp1679
g101
g102
ssg83
g1668
sg76
(lp1680
S':'
asbag69
(g90
g71
NtRp1681
(dp1682
g74
(dp1683
sg83
g1668
sg76
(lp1684
g69
(g70
g71
NtRp1685
(dp1686
g74
(dp1687
g82
I5
ssg83
g1681
sg76
(lp1688
g112
asbasbasbag69
(g85
g71
NtRp1689
(dp1690
g74
(dp1691
sg83
g79
sg76
(lp1692
g69
(g90
g71
NtRp1693
(dp1694
g74
(dp1695
g94
g95
ssg83
g1689
sg76
(lp1696
S'now'
p1697
asbag69
(g90
g71
NtRp1698
(dp1699
g74
(dp1700
g101
g102
ssg83
g1689
sg76
(lp1701
S':'
asbag69
(g90
g71
NtRp1702
(dp1703
g74
(dp1704
sg83
g1689
sg76
(lp1705
g69
(g70
g71
NtRp1706
(dp1707
g74
(dp1708
g82
I5
ssg83
g1702
sg76
(lp1709
S'datetime.datetime(2012, 11, 1, 10, 48, 22, 947851)'
p1710
asbasbasbag69
(g85
g71
NtRp1711
(dp1712
g74
(dp1713
sg83
g79
sg76
(lp1714
g69
(g90
g71
NtRp1715
(dp1716
g74
(dp1717
g94
g95
ssg83
g1711
sg76
(lp1718
S'post_vars'
p1719
asbag69
(g90
g71
NtRp1720
(dp1721
g74
(dp1722
g101
g102
ssg83
g1711
sg76
(lp1723
S':'
asbag69
(g90
g71
NtRp1724
(dp1725
g74
(dp1726
sg83
g1711
sg76
(lp1727
g69
(g70
g71
NtRp1728
(dp1729
g74
(dp1730
g82
I5
ssg83
g1724
sg76
(lp1731
g69
(g78
g71
NtRp1732
(dp1733
g74
(dp1734
g82
I4
ssg83
Nsg76
(lp1735
sbasbasbasbag69
(g85
g71
NtRp1736
(dp1737
g74
(dp1738
sg83
g79
sg76
(lp1739
g69
(g90
g71
NtRp1740
(dp1741
g74
(dp1742
g94
g95
ssg83
g1736
sg76
(lp1743
S'raw_args'
p1744
asbag69
(g90
g71
NtRp1745
(dp1746
g74
(dp1747
g101
g102
ssg83
g1736
sg76
(lp1748
S':'
asbag69
(g90
g71
NtRp1749
(dp1750
g74
(dp1751
sg83
g1736
sg76
(lp1752
g69
(g70
g71
NtRp1753
(dp1754
g74
(dp1755
g82
I5
ssg83
g1749
sg76
(lp1756
S'None'
p1757
asbasbasbag69
(g85
g71
NtRp1758
(dp1759
g74
(dp1760
sg83
g79
sg76
(lp1761
g69
(g90
g71
NtRp1762
(dp1763
g74
(dp1764
g94
g95
ssg83
g1758
sg76
(lp1765
S'raw_extension'
p1766
asbag69
(g90
g71
NtRp1767
(dp1768
g74
(dp1769
g101
g102
ssg83
g1758
sg76
(lp1770
S':'
asbag69
(g90
g71
NtRp1771
(dp1772
g74
(dp1773
sg83
g1758
sg76
(lp1774
g69
(g70
g71
NtRp1775
(dp1776
g74
(dp1777
g82
I5
ssg83
g1771
sg76
(lp1778
S'None'
p1779
asbasbasbag69
(g85
g71
NtRp1780
(dp1781
g74
(dp1782
sg83
g79
sg76
(lp1783
g69
(g90
g71
NtRp1784
(dp1785
g74
(dp1786
g94
g95
ssg83
g1780
sg76
(lp1787
S'url'
p1788
asbag69
(g90
g71
NtRp1789
(dp1790
g74
(dp1791
g101
g102
ssg83
g1780
sg76
(lp1792
S':'
asbag69
(g90
g71
NtRp1793
(dp1794
g74
(dp1795
sg83
g1780
sg76
(lp1796
g69
(g70
g71
NtRp1797
(dp1798
g74
(dp1799
g82
I5
ssg83
g1793
sg76
(lp1800
g670
asbasbasbag69
(g85
g71
NtRp1801
(dp1802
g74
(dp1803
sg83
g79
sg76
(lp1804
g69
(g90
g71
NtRp1805
(dp1806
g74
(dp1807
g94
g95
ssg83
g1801
sg76
(lp1808
S'utcnow'
p1809
asbag69
(g90
g71
NtRp1810
(dp1811
g74
(dp1812
g101
g102
ssg83
g1801
sg76
(lp1813
S':'
asbag69
(g90
g71
NtRp1814
(dp1815
g74
(dp1816
sg83
g1801
sg76
(lp1817
g69
(g70
g71
NtRp1818
(dp1819
g74
(dp1820
g82
I5
ssg83
g1814
sg76
(lp1821
S'datetime.datetime(2012, 11, 1, 14, 48, 22, 947864)'
p1822
asbasbasbag69
(g85
g71
NtRp1823
(dp1824
g74
(dp1825
sg83
g79
sg76
(lp1826
g69
(g90
g71
NtRp1827
(dp1828
g74
(dp1829
g94
g95
ssg83
g1823
sg76
(lp1830
S'uuid'
p1831
asbag69
(g90
g71
NtRp1832
(dp1833
g74
(dp1834
g101
g102
ssg83
g1823
sg76
(lp1835
S':'
asbag69
(g90
g71
NtRp1836
(dp1837
g74
(dp1838
sg83
g1823
sg76
(lp1839
g69
(g70
g71
NtRp1840
(dp1841
g74
(dp1842
g82
I5
ssg83
g1836
sg76
(lp1843
S'newsFeed/127.0.0.1.2012-11-01.10-48-22.4748c565-c338-443f-b934-07c9f9f9101a'
p1844
asbasbasbag69
(g85
g71
NtRp1845
(dp1846
g74
(dp1847
sg83
g79
sg76
(lp1848
g69
(g90
g71
NtRp1849
(dp1850
g74
(dp1851
g94
g95
ssg83
g1845
sg76
(lp1852
S'vars'
p1853
asbag69
(g90
g71
NtRp1854
(dp1855
g74
(dp1856
g101
g102
ssg83
g1845
sg76
(lp1857
S':'
asbag69
(g90
g71
NtRp1858
(dp1859
g74
(dp1860
sg83
g1845
sg76
(lp1861
g69
(g70
g71
NtRp1862
(dp1863
g74
(dp1864
g82
I5
ssg83
g1858
sg76
(lp1865
g69
(g78
g71
NtRp1866
(dp1867
g74
(dp1868
g82
I4
ssg83
Nsg76
(lp1869
sbasbasbasbag69
(g85
g71
NtRp1870
(dp1871
g74
(dp1872
sg83
g79
sg76
(lp1873
g69
(g90
g71
NtRp1874
(dp1875
g74
(dp1876
g94
g95
ssg83
g1870
sg76
(lp1877
S'wsgi'
p1878
asbag69
(g90
g71
NtRp1879
(dp1880
g74
(dp1881
g101
g102
ssg83
g1870
sg76
(lp1882
S':'
asbag69
(g90
g71
NtRp1883
(dp1884
g74
(dp1885
sg83
g1870
sg76
(lp1886
g69
(g70
g71
NtRp1887
(dp1888
g74
(dp1889
g82
I5
ssg83
g1883
sg76
(lp1890
g69
(g78
g71
NtRp1891
(dp1892
g74
(dp1893
g82
I4
ssg83
Nsg76
(lp1894
g69
(g85
g71
NtRp1895
(dp1896
g74
(dp1897
sg83
g1891
sg76
(lp1898
g69
(g90
g71
NtRp1899
(dp1900
g74
(dp1901
g94
g95
ssg83
g1895
sg76
(lp1902
S'environ'
p1903
asbag69
(g90
g71
NtRp1904
(dp1905
g74
(dp1906
g101
g102
ssg83
g1895
sg76
(lp1907
S':'
asbag69
(g90
g71
NtRp1908
(dp1909
g74
(dp1910
sg83
g1895
sg76
(lp1911
g69
(g70
g71
NtRp1912
(dp1913
g74
(dp1914
g82
I4
ssg83
g1908
sg76
(lp1915
g69
(g78
g71
NtRp1916
(dp1917
g74
(dp1918
g82
I3
ssg83
Nsg76
(lp1919
g69
(g85
g71
NtRp1920
(dp1921
g74
(dp1922
sg83
g1916
sg76
(lp1923
g69
(g90
g71
NtRp1924
(dp1925
g74
(dp1926
g94
g95
ssg83
g1920
sg76
(lp1927
S'HTTP_ACCEPT'
p1928
asbag69
(g90
g71
NtRp1929
(dp1930
g74
(dp1931
g101
g102
ssg83
g1920
sg76
(lp1932
S':'
asbag69
(g90
g71
NtRp1933
(dp1934
g74
(dp1935
sg83
g1920
sg76
(lp1936
g69
(g70
g71
NtRp1937
(dp1938
g74
(dp1939
g82
I3
ssg83
g1933
sg76
(lp1940
g474
asbasbasbag69
(g85
g71
NtRp1941
(dp1942
g74
(dp1943
sg83
g1916
sg76
(lp1944
g69
(g90
g71
NtRp1945
(dp1946
g74
(dp1947
g94
g95
ssg83
g1941
sg76
(lp1948
S'HTTP_ACCEPT_ENCODING'
p1949
asbag69
(g90
g71
NtRp1950
(dp1951
g74
(dp1952
g101
g102
ssg83
g1941
sg76
(lp1953
S':'
asbag69
(g90
g71
NtRp1954
(dp1955
g74
(dp1956
sg83
g1941
sg76
(lp1957
g69
(g70
g71
NtRp1958
(dp1959
g74
(dp1960
g82
I3
ssg83
g1954
sg76
(lp1961
g496
asbasbasbag69
(g85
g71
NtRp1962
(dp1963
g74
(dp1964
sg83
g1916
sg76
(lp1965
g69
(g90
g71
NtRp1966
(dp1967
g74
(dp1968
g94
g95
ssg83
g1962
sg76
(lp1969
S'HTTP_ACCEPT_LANGUAGE'
p1970
asbag69
(g90
g71
NtRp1971
(dp1972
g74
(dp1973
g101
g102
ssg83
g1962
sg76
(lp1974
S':'
asbag69
(g90
g71
NtRp1975
(dp1976
g74
(dp1977
sg83
g1962
sg76
(lp1978
g69
(g70
g71
NtRp1979
(dp1980
g74
(dp1981
g82
I3
ssg83
g1975
sg76
(lp1982
g518
asbasbasbag69
(g85
g71
NtRp1983
(dp1984
g74
(dp1985
sg83
g1916
sg76
(lp1986
g69
(g90
g71
NtRp1987
(dp1988
g74
(dp1989
g94
g95
ssg83
g1983
sg76
(lp1990
S'HTTP_CONNECTION'
p1991
asbag69
(g90
g71
NtRp1992
(dp1993
g74
(dp1994
g101
g102
ssg83
g1983
sg76
(lp1995
S':'
asbag69
(g90
g71
NtRp1996
(dp1997
g74
(dp1998
sg83
g1983
sg76
(lp1999
g69
(g70
g71
NtRp2000
(dp2001
g74
(dp2002
g82
I3
ssg83
g1996
sg76
(lp2003
g540
asbasbasbag69
(g85
g71
NtRp2004
(dp2005
g74
(dp2006
sg83
g1916
sg76
(lp2007
g69
(g90
g71
NtRp2008
(dp2009
g74
(dp2010
g94
g95
ssg83
g2004
sg76
(lp2011
S'HTTP_HOST'
p2012
asbag69
(g90
g71
NtRp2013
(dp2014
g74
(dp2015
g101
g102
ssg83
g2004
sg76
(lp2016
S':'
asbag69
(g90
g71
NtRp2017
(dp2018
g74
(dp2019
sg83
g2004
sg76
(lp2020
g69
(g70
g71
NtRp2021
(dp2022
g74
(dp2023
g82
I3
ssg83
g2017
sg76
(lp2024
g562
asbasbasbag69
(g85
g71
NtRp2025
(dp2026
g74
(dp2027
sg83
g1916
sg76
(lp2028
g69
(g90
g71
NtRp2029
(dp2030
g74
(dp2031
g94
g95
ssg83
g2025
sg76
(lp2032
S'HTTP_USER_AGENT'
p2033
asbag69
(g90
g71
NtRp2034
(dp2035
g74
(dp2036
g101
g102
ssg83
g2025
sg76
(lp2037
S':'
asbag69
(g90
g71
NtRp2038
(dp2039
g74
(dp2040
sg83
g2025
sg76
(lp2041
g69
(g70
g71
NtRp2042
(dp2043
g74
(dp2044
g82
I3
ssg83
g2038
sg76
(lp2045
g584
asbasbasbag69
(g85
g71
NtRp2046
(dp2047
g74
(dp2048
sg83
g1916
sg76
(lp2049
g69
(g90
g71
NtRp2050
(dp2051
g74
(dp2052
g94
g95
ssg83
g2046
sg76
(lp2053
S'HTTP_X_PURPOSE'
p2054
asbag69
(g90
g71
NtRp2055
(dp2056
g74
(dp2057
g101
g102
ssg83
g2046
sg76
(lp2058
S':'
asbag69
(g90
g71
NtRp2059
(dp2060
g74
(dp2061
sg83
g2046
sg76
(lp2062
g69
(g70
g71
NtRp2063
(dp2064
g74
(dp2065
g82
I3
ssg83
g2059
sg76
(lp2066
g606
asbasbasbag69
(g85
g71
NtRp2067
(dp2068
g74
(dp2069
sg83
g1916
sg76
(lp2070
g69
(g90
g71
NtRp2071
(dp2072
g74
(dp2073
g94
g95
ssg83
g2067
sg76
(lp2074
S'PATH_INFO'
p2075
asbag69
(g90
g71
NtRp2076
(dp2077
g74
(dp2078
g101
g102
ssg83
g2067
sg76
(lp2079
S':'
asbag69
(g90
g71
NtRp2080
(dp2081
g74
(dp2082
sg83
g2067
sg76
(lp2083
g69
(g70
g71
NtRp2084
(dp2085
g74
(dp2086
g82
I3
ssg83
g2080
sg76
(lp2087
g670
asbasbasbag69
(g85
g71
NtRp2088
(dp2089
g74
(dp2090
sg83
g1916
sg76
(lp2091
g69
(g90
g71
NtRp2092
(dp2093
g74
(dp2094
g94
g95
ssg83
g2088
sg76
(lp2095
S'QUERY_STRING'
p2096
asbag69
(g90
g71
NtRp2097
(dp2098
g74
(dp2099
g101
g102
ssg83
g2088
sg76
(lp2100
S':'
asbag69
(g90
g71
NtRp2101
(dp2102
g74
(dp2103
sg83
g2088
sg76
(lp2104
g69
(g70
g71
NtRp2105
(dp2106
g74
(dp2107
g82
I3
ssg83
g2101
sg76
(lp2108
S''
asbasbasbag69
(g85
g71
NtRp2109
(dp2110
g74
(dp2111
sg83
g1916
sg76
(lp2112
g69
(g90
g71
NtRp2113
(dp2114
g74
(dp2115
g94
g95
ssg83
g2109
sg76
(lp2116
S'REMOTE_ADDR'
p2117
asbag69
(g90
g71
NtRp2118
(dp2119
g74
(dp2120
g101
g102
ssg83
g2109
sg76
(lp2121
S':'
asbag69
(g90
g71
NtRp2122
(dp2123
g74
(dp2124
sg83
g2109
sg76
(lp2125
g69
(g70
g71
NtRp2126
(dp2127
g74
(dp2128
g82
I3
ssg83
g2122
sg76
(lp2129
g224
asbasbasbag69
(g85
g71
NtRp2130
(dp2131
g74
(dp2132
sg83
g1916
sg76
(lp2133
g69
(g90
g71
NtRp2134
(dp2135
g74
(dp2136
g94
g95
ssg83
g2130
sg76
(lp2137
S'REMOTE_PORT'
p2138
asbag69
(g90
g71
NtRp2139
(dp2140
g74
(dp2141
g101
g102
ssg83
g2130
sg76
(lp2142
S':'
asbag69
(g90
g71
NtRp2143
(dp2144
g74
(dp2145
sg83
g2130
sg76
(lp2146
g69
(g70
g71
NtRp2147
(dp2148
g74
(dp2149
g82
I3
ssg83
g2143
sg76
(lp2150
g734
asbasbasbag69
(g85
g71
NtRp2151
(dp2152
g74
(dp2153
sg83
g1916
sg76
(lp2154
g69
(g90
g71
NtRp2155
(dp2156
g74
(dp2157
g94
g95
ssg83
g2151
sg76
(lp2158
S'REQUEST_METHOD'
p2159
asbag69
(g90
g71
NtRp2160
(dp2161
g74
(dp2162
g101
g102
ssg83
g2151
sg76
(lp2163
S':'
asbag69
(g90
g71
NtRp2164
(dp2165
g74
(dp2166
sg83
g2151
sg76
(lp2167
g69
(g70
g71
NtRp2168
(dp2169
g74
(dp2170
g82
I3
ssg83
g2164
sg76
(lp2171
g756
asbasbasbag69
(g85
g71
NtRp2172
(dp2173
g74
(dp2174
sg83
g1916
sg76
(lp2175
g69
(g90
g71
NtRp2176
(dp2177
g74
(dp2178
g94
g95
ssg83
g2172
sg76
(lp2179
S'REQUEST_URI'
p2180
asbag69
(g90
g71
NtRp2181
(dp2182
g74
(dp2183
g101
g102
ssg83
g2172
sg76
(lp2184
S':'
asbag69
(g90
g71
NtRp2185
(dp2186
g74
(dp2187
sg83
g2172
sg76
(lp2188
g69
(g70
g71
NtRp2189
(dp2190
g74
(dp2191
g82
I3
ssg83
g2185
sg76
(lp2192
g670
asbasbasbag69
(g85
g71
NtRp2193
(dp2194
g74
(dp2195
sg83
g1916
sg76
(lp2196
g69
(g90
g71
NtRp2197
(dp2198
g74
(dp2199
g94
g95
ssg83
g2193
sg76
(lp2200
S'SCRIPT_NAME'
p2201
asbag69
(g90
g71
NtRp2202
(dp2203
g74
(dp2204
g101
g102
ssg83
g2193
sg76
(lp2205
S':'
asbag69
(g90
g71
NtRp2206
(dp2207
g74
(dp2208
sg83
g2193
sg76
(lp2209
g69
(g70
g71
NtRp2210
(dp2211
g74
(dp2212
g82
I3
ssg83
g2206
sg76
(lp2213
S''
asbasbasbag69
(g85
g71
NtRp2214
(dp2215
g74
(dp2216
sg83
g1916
sg76
(lp2217
g69
(g90
g71
NtRp2218
(dp2219
g74
(dp2220
g94
g95
ssg83
g2214
sg76
(lp2221
S'SERVER_NAME'
p2222
asbag69
(g90
g71
NtRp2223
(dp2224
g74
(dp2225
g101
g102
ssg83
g2214
sg76
(lp2226
S':'
asbag69
(g90
g71
NtRp2227
(dp2228
g74
(dp2229
sg83
g2214
sg76
(lp2230
g69
(g70
g71
NtRp2231
(dp2232
g74
(dp2233
g82
I3
ssg83
g2227
sg76
(lp2234
g820
asbasbasbag69
(g85
g71
NtRp2235
(dp2236
g74
(dp2237
sg83
g1916
sg76
(lp2238
g69
(g90
g71
NtRp2239
(dp2240
g74
(dp2241
g94
g95
ssg83
g2235
sg76
(lp2242
S'SERVER_PORT'
p2243
asbag69
(g90
g71
NtRp2244
(dp2245
g74
(dp2246
g101
g102
ssg83
g2235
sg76
(lp2247
S':'
asbag69
(g90
g71
NtRp2248
(dp2249
g74
(dp2250
sg83
g2235
sg76
(lp2251
g69
(g70
g71
NtRp2252
(dp2253
g74
(dp2254
g82
I3
ssg83
g2248
sg76
(lp2255
g842
asbasbasbag69
(g85
g71
NtRp2256
(dp2257
g74
(dp2258
sg83
g1916
sg76
(lp2259
g69
(g90
g71
NtRp2260
(dp2261
g74
(dp2262
g94
g95
ssg83
g2256
sg76
(lp2263
S'SERVER_PROTOCOL'
p2264
asbag69
(g90
g71
NtRp2265
(dp2266
g74
(dp2267
g101
g102
ssg83
g2256
sg76
(lp2268
S':'
asbag69
(g90
g71
NtRp2269
(dp2270
g74
(dp2271
sg83
g2256
sg76
(lp2272
g69
(g70
g71
NtRp2273
(dp2274
g74
(dp2275
g82
I3
ssg83
g2269
sg76
(lp2276
g864
asbasbasbag69
(g85
g71
NtRp2277
(dp2278
g74
(dp2279
sg83
g1916
sg76
(lp2280
g69
(g90
g71
NtRp2281
(dp2282
g74
(dp2283
g94
g95
ssg83
g2277
sg76
(lp2284
S'SERVER_SOFTWARE'
p2285
asbag69
(g90
g71
NtRp2286
(dp2287
g74
(dp2288
g101
g102
ssg83
g2277
sg76
(lp2289
S':'
asbag69
(g90
g71
NtRp2290
(dp2291
g74
(dp2292
sg83
g2277
sg76
(lp2293
g69
(g70
g71
NtRp2294
(dp2295
g74
(dp2296
g82
I3
ssg83
g2290
sg76
(lp2297
g886
asbasbasbag69
(g85
g71
NtRp2298
(dp2299
g74
(dp2300
sg83
g1916
sg76
(lp2301
g69
(g90
g71
NtRp2302
(dp2303
g74
(dp2304
g94
g95
ssg83
g2298
sg76
(lp2305
S'wsgi.errors'
p2306
asbag69
(g90
g71
NtRp2307
(dp2308
g74
(dp2309
g101
g102
ssg83
g2298
sg76
(lp2310
S':'
asbag69
(g90
g71
NtRp2311
(dp2312
g74
(dp2313
sg83
g2298
sg76
(lp2314
g69
(g70
g71
NtRp2315
(dp2316
g74
(dp2317
g82
I3
ssg83
g2311
sg76
(lp2318
S"<open file '<stderr>', mode 'w' at 0x100284270>"
p2319
asbasbasbag69
(g85
g71
NtRp2320
(dp2321
g74
(dp2322
sg83
g1916
sg76
(lp2323
g69
(g90
g71
NtRp2324
(dp2325
g74
(dp2326
g94
g95
ssg83
g2320
sg76
(lp2327
S'wsgi.file_wrapper'
p2328
asbag69
(g90
g71
NtRp2329
(dp2330
g74
(dp2331
g101
g102
ssg83
g2320
sg76
(lp2332
S':'
asbag69
(g90
g71
NtRp2333
(dp2334
g74
(dp2335
sg83
g2320
sg76
(lp2336
g69
(g70
g71
NtRp2337
(dp2338
g74
(dp2339
g82
I3
ssg83
g2333
sg76
(lp2340
S'<class wsgiref.util.FileWrapper at 0x101c53bb0>'
p2341
asbasbasbag69
(g85
g71
NtRp2342
(dp2343
g74
(dp2344
sg83
g1916
sg76
(lp2345
g69
(g90
g71
NtRp2346
(dp2347
g74
(dp2348
g94
g95
ssg83
g2342
sg76
(lp2349
S'wsgi.input'
p2350
asbag69
(g90
g71
NtRp2351
(dp2352
g74
(dp2353
g101
g102
ssg83
g2342
sg76
(lp2354
S':'
asbag69
(g90
g71
NtRp2355
(dp2356
g74
(dp2357
sg83
g2342
sg76
(lp2358
g69
(g70
g71
NtRp2359
(dp2360
g74
(dp2361
g82
I3
ssg83
g2355
sg76
(lp2362
S'<cStringIO.StringO object at 0x102340618>'
p2363
asbasbasbag69
(g85
g71
NtRp2364
(dp2365
g74
(dp2366
sg83
g1916
sg76
(lp2367
g69
(g90
g71
NtRp2368
(dp2369
g74
(dp2370
g94
g95
ssg83
g2364
sg76
(lp2371
S'wsgi.multiprocess'
p2372
asbag69
(g90
g71
NtRp2373
(dp2374
g74
(dp2375
g101
g102
ssg83
g2364
sg76
(lp2376
S':'
asbag69
(g90
g71
NtRp2377
(dp2378
g74
(dp2379
sg83
g2364
sg76
(lp2380
g69
(g70
g71
NtRp2381
(dp2382
g74
(dp2383
g82
I3
ssg83
g2377
sg76
(lp2384
g112
asbasbasbag69
(g85
g71
NtRp2385
(dp2386
g74
(dp2387
sg83
g1916
sg76
(lp2388
g69
(g90
g71
NtRp2389
(dp2390
g74
(dp2391
g94
g95
ssg83
g2385
sg76
(lp2392
S'wsgi.multithread'
p2393
asbag69
(g90
g71
NtRp2394
(dp2395
g74
(dp2396
g101
g102
ssg83
g2385
sg76
(lp2397
S':'
asbag69
(g90
g71
NtRp2398
(dp2399
g74
(dp2400
sg83
g2385
sg76
(lp2401
g69
(g70
g71
NtRp2402
(dp2403
g74
(dp2404
g82
I3
ssg83
g2398
sg76
(lp2405
g1125
asbasbasbag69
(g85
g71
NtRp2406
(dp2407
g74
(dp2408
sg83
g1916
sg76
(lp2409
g69
(g90
g71
NtRp2410
(dp2411
g74
(dp2412
g94
g95
ssg83
g2406
sg76
(lp2413
S'wsgi.run_once'
p2414
asbag69
(g90
g71
NtRp2415
(dp2416
g74
(dp2417
g101
g102
ssg83
g2406
sg76
(lp2418
S':'
asbag69
(g90
g71
NtRp2419
(dp2420
g74
(dp2421
sg83
g2406
sg76
(lp2422
g69
(g70
g71
NtRp2423
(dp2424
g74
(dp2425
g82
I3
ssg83
g2419
sg76
(lp2426
g112
asbasbasbag69
(g85
g71
NtRp2427
(dp2428
g74
(dp2429
sg83
g1916
sg76
(lp2430
g69
(g90
g71
NtRp2431
(dp2432
g74
(dp2433
g94
g95
ssg83
g2427
sg76
(lp2434
S'wsgi.url_scheme'
p2435
asbag69
(g90
g71
NtRp2436
(dp2437
g74
(dp2438
g101
g102
ssg83
g2427
sg76
(lp2439
S':'
asbag69
(g90
g71
NtRp2440
(dp2441
g74
(dp2442
sg83
g2427
sg76
(lp2443
g69
(g70
g71
NtRp2444
(dp2445
g74
(dp2446
g82
I3
ssg83
g2440
sg76
(lp2447
g1168
asbasbasbag69
(g85
g71
NtRp2448
(dp2449
g74
(dp2450
sg83
g1916
sg76
(lp2451
g69
(g90
g71
NtRp2452
(dp2453
g74
(dp2454
g94
g95
ssg83
g2448
sg76
(lp2455
S'wsgi.version'
p2456
asbag69
(g90
g71
NtRp2457
(dp2458
g74
(dp2459
g101
g102
ssg83
g2448
sg76
(lp2460
S':'
asbag69
(g90
g71
NtRp2461
(dp2462
g74
(dp2463
sg83
g2448
sg76
(lp2464
g69
(g70
g71
NtRp2465
(dp2466
g74
(dp2467
g82
I3
ssg83
g2461
sg76
(lp2468
S'1'
asbasbasbasbasbasbasbasbasbasbasbasbasbsS'frames'
p2469
(lp2470
(dp2471
S'file'
p2472
S'/Users/Karl/code/web2py/gluon/restricted.py'
p2473
sS'dump'
p2474
(dp2475
S'code'
p2476
S"'def index():\\n    images = db().select(db.image.A...uest, db)\\nresponse._vars=response._caller(index)\\n'"
p2477
sS'layer'
p2478
S"'/Users/Karl/code/web2py/applications/newsFeed/controllers/default.py'"
p2479
sS'global compile2'
p2480
S'<function compile2>'
p2481
sS'ccode'
p2482
S'undefined'
p2483
ssS'lnum'
p2484
I208
sS'lines'
p2485
(dp2486
I203
S"    environment['__name__'] = '__restricted__'"
p2487
sI204
S'    try:'
p2488
sI205
S'        if type(code) == types.CodeType:'
p2489
sI206
S'            ccode = code'
p2490
sI207
S'        else:'
p2491
sI208
S'            ccode = compile2(code,layer)'
p2492
sI209
S'        exec ccode in environment'
p2493
sI210
S'    except HTTP:'
p2494
sI211
S'        raise'
p2495
sI212
S'    except RestrictedError:'
p2496
ssS'call'
p2497
S"(code='def index():\\n    images = db().select(db.image.A...uest, db)\\nresponse._vars=response._caller(index)\\n', environment={'A': <class 'gluon.html.A'>, 'B': <class 'gluon.html.B'>, 'BEAUTIFY': <class 'gluon.html.BEAUTIFY'>, 'BODY': <class 'gluon.html.BODY'>, 'BR': <class 'gluon.html.BR'>, 'BUTTON': <class 'gluon.html.BUTTON'>, 'CAT': <class 'gluon.html.CAT'>, 'CENTER': <class 'gluon.html.CENTER'>, 'CLEANUP': <class 'gluon.validators.CLEANUP'>, 'CODE': <class 'gluon.html.CODE'>, ...}, layer='/Users/Karl/code/web2py/applications/newsFeed/controllers/default.py')"
p2498
sS'func'
p2499
S'restricted'
p2500
sa(dp2501
g2472
S'/Users/Karl/code/web2py/gluon/restricted.py'
p2502
sg2474
(dp2503
S'builtincompile'
p2504
S'<built-in function compile>'
p2505
sS'code'
p2506
S"'def index():\\n    images = db().select(db.image.A...uest, db)\\nresponse._vars=response._caller(index)\\n'"
p2507
sS'code.rstrip'
p2508
S'<built-in method rstrip of str object>'
p2509
sS').replace'
p2510
g2483
sS'layer'
p2511
S"'/Users/Karl/code/web2py/applications/newsFeed/controllers/default.py'"
p2512
ssg2484
I193
sg2485
(dp2513
I192
S'    """'
p2514
sI193
S"    return compile(code.rstrip().replace('\\r\\n','\\n')+'\\n', layer, 'exec')"
p2515
sI194
S''
sI195
S"def restricted(code, environment=None, layer='Unknown'):"
p2516
sI196
S'    """'
p2517
sI197
S'    runs code in environment and returns the output. if an exception occurs'
p2518
sI188
S''
sI189
S'def compile2(code,layer):'
p2519
sI190
S'    """'
p2520
sI191
S"    The +'\\n' is necessary else compile fails when code ends in a comment."
p2521
ssg2497
S"(code='def index():\\n    images = db().select(db.image.A...uest, db)\\nresponse._vars=response._caller(index)\\n', layer='/Users/Karl/code/web2py/applications/newsFeed/controllers/default.py')"
p2522
sg2499
S'compile2'
p2523
sasS'pyver'
p2524
S'Python 2.7.3: /Library/Frameworks/Python.framework/Versions/2.7/Resources/Python.app/Contents/MacOS/Python'
p2525
sS'session'
p2526
g69
(g70
g71
NtRp2527
(dp2528
g74
(dp2529
sg76
(lp2530
g69
(g78
g71
NtRp2531
(dp2532
g74
(dp2533
g82
I5
ssg83
Nsg76
(lp2534
sbasbsS'etype'
p2535
S"<type 'exceptions.SyntaxError'>"
p2536
sS'date'
p2537
S'Thu Nov  1 10:48:22 2012'
p2538
sS'response'
p2539
g69
(g70
g71
NtRp2540
(dp2541
g74
(dp2542
sg76
(lp2543
g69
(g78
g71
NtRp2544
(dp2545
g74
(dp2546
g82
I5
ssg83
Nsg76
(lp2547
g69
(g85
g71
NtRp2548
(dp2549
g74
(dp2550
sg83
g2544
sg76
(lp2551
g69
(g90
g71
NtRp2552
(dp2553
g74
(dp2554
g94
g95
ssg83
g2548
sg76
(lp2555
g167
asbag69
(g90
g71
NtRp2556
(dp2557
g74
(dp2558
g101
g102
ssg83
g2548
sg76
(lp2559
S':'
asbag69
(g90
g71
NtRp2560
(dp2561
g74
(dp2562
sg83
g2548
sg76
(lp2563
g69
(g70
g71
NtRp2564
(dp2565
g74
(dp2566
g82
I5
ssg83
g2560
sg76
(lp2567
S'<cStringIO.StringO object at 0x102310f48>'
p2568
asbasbasbag69
(g85
g71
NtRp2569
(dp2570
g74
(dp2571
sg83
g2544
sg76
(lp2572
g69
(g90
g71
NtRp2573
(dp2574
g74
(dp2575
g94
g95
ssg83
g2569
sg76
(lp2576
g255
asbag69
(g90
g71
NtRp2577
(dp2578
g74
(dp2579
g101
g102
ssg83
g2569
sg76
(lp2580
S':'
asbag69
(g90
g71
NtRp2581
(dp2582
g74
(dp2583
sg83
g2569
sg76
(lp2584
g69
(g70
g71
NtRp2585
(dp2586
g74
(dp2587
g82
I5
ssg83
g2581
sg76
(lp2588
g69
(g78
g71
NtRp2589
(dp2590
g74
(dp2591
g82
I4
ssg83
Nsg76
(lp2592
g69
(g85
g71
NtRp2593
(dp2594
g74
(dp2595
sg83
g2589
sg76
(lp2596
g69
(g90
g71
NtRp2597
(dp2598
g74
(dp2599
g94
g95
ssg83
g2593
sg76
(lp2600
S'session_id_newsfeed'
p2601
asbag69
(g90
g71
NtRp2602
(dp2603
g74
(dp2604
g101
g102
ssg83
g2593
sg76
(lp2605
S':'
asbag69
(g90
g71
NtRp2606
(dp2607
g74
(dp2608
sg83
g2593
sg76
(lp2609
g69
(g70
g71
NtRp2610
(dp2611
g74
(dp2612
g82
I4
ssg83
g2606
sg76
(lp2613
S'127.0.0.1-b48fdeaa-9927-4c0b-b60e-cf3049dad40d'
p2614
ag69
(g78
g71
NtRp2615
(dp2616
g74
(dp2617
g82
I3
ssg83
Nsg76
(lp2618
g69
(g85
g71
NtRp2619
(dp2620
g74
(dp2621
sg83
g2615
sg76
(lp2622
g69
(g90
g71
NtRp2623
(dp2624
g74
(dp2625
g94
g95
ssg83
g2619
sg76
(lp2626
S'comment'
p2627
asbag69
(g90
g71
NtRp2628
(dp2629
g74
(dp2630
g101
g102
ssg83
g2619
sg76
(lp2631
S':'
asbag69
(g90
g71
NtRp2632
(dp2633
g74
(dp2634
sg83
g2619
sg76
(lp2635
g69
(g70
g71
NtRp2636
(dp2637
g74
(dp2638
g82
I3
ssg83
g2632
sg76
(lp2639
S''
asbasbasbag69
(g85
g71
NtRp2640
(dp2641
g74
(dp2642
sg83
g2615
sg76
(lp2643
g69
(g90
g71
NtRp2644
(dp2645
g74
(dp2646
g94
g95
ssg83
g2640
sg76
(lp2647
S'domain'
p2648
asbag69
(g90
g71
NtRp2649
(dp2650
g74
(dp2651
g101
g102
ssg83
g2640
sg76
(lp2652
S':'
asbag69
(g90
g71
NtRp2653
(dp2654
g74
(dp2655
sg83
g2640
sg76
(lp2656
g69
(g70
g71
NtRp2657
(dp2658
g74
(dp2659
g82
I3
ssg83
g2653
sg76
(lp2660
S''
asbasbasbag69
(g85
g71
NtRp2661
(dp2662
g74
(dp2663
sg83
g2615
sg76
(lp2664
g69
(g90
g71
NtRp2665
(dp2666
g74
(dp2667
g94
g95
ssg83
g2661
sg76
(lp2668
S'expires'
p2669
asbag69
(g90
g71
NtRp2670
(dp2671
g74
(dp2672
g101
g102
ssg83
g2661
sg76
(lp2673
S':'
asbag69
(g90
g71
NtRp2674
(dp2675
g74
(dp2676
sg83
g2661
sg76
(lp2677
g69
(g70
g71
NtRp2678
(dp2679
g74
(dp2680
g82
I3
ssg83
g2674
sg76
(lp2681
S''
asbasbasbag69
(g85
g71
NtRp2682
(dp2683
g74
(dp2684
sg83
g2615
sg76
(lp2685
g69
(g90
g71
NtRp2686
(dp2687
g74
(dp2688
g94
g95
ssg83
g2682
sg76
(lp2689
S'httponly'
p2690
asbag69
(g90
g71
NtRp2691
(dp2692
g74
(dp2693
g101
g102
ssg83
g2682
sg76
(lp2694
S':'
asbag69
(g90
g71
NtRp2695
(dp2696
g74
(dp2697
sg83
g2682
sg76
(lp2698
g69
(g70
g71
NtRp2699
(dp2700
g74
(dp2701
g82
I3
ssg83
g2695
sg76
(lp2702
S''
asbasbasbag69
(g85
g71
NtRp2703
(dp2704
g74
(dp2705
sg83
g2615
sg76
(lp2706
g69
(g90
g71
NtRp2707
(dp2708
g74
(dp2709
g94
g95
ssg83
g2703
sg76
(lp2710
S'max-age'
p2711
asbag69
(g90
g71
NtRp2712
(dp2713
g74
(dp2714
g101
g102
ssg83
g2703
sg76
(lp2715
S':'
asbag69
(g90
g71
NtRp2716
(dp2717
g74
(dp2718
sg83
g2703
sg76
(lp2719
g69
(g70
g71
NtRp2720
(dp2721
g74
(dp2722
g82
I3
ssg83
g2716
sg76
(lp2723
S''
asbasbasbag69
(g85
g71
NtRp2724
(dp2725
g74
(dp2726
sg83
g2615
sg76
(lp2727
g69
(g90
g71
NtRp2728
(dp2729
g74
(dp2730
g94
g95
ssg83
g2724
sg76
(lp2731
S'path'
p2732
asbag69
(g90
g71
NtRp2733
(dp2734
g74
(dp2735
g101
g102
ssg83
g2724
sg76
(lp2736
S':'
asbag69
(g90
g71
NtRp2737
(dp2738
g74
(dp2739
sg83
g2724
sg76
(lp2740
g69
(g70
g71
NtRp2741
(dp2742
g74
(dp2743
g82
I3
ssg83
g2737
sg76
(lp2744
S'/'
asbasbasbag69
(g85
g71
NtRp2745
(dp2746
g74
(dp2747
sg83
g2615
sg76
(lp2748
g69
(g90
g71
NtRp2749
(dp2750
g74
(dp2751
g94
g95
ssg83
g2745
sg76
(lp2752
S'secure'
p2753
asbag69
(g90
g71
NtRp2754
(dp2755
g74
(dp2756
g101
g102
ssg83
g2745
sg76
(lp2757
S':'
asbag69
(g90
g71
NtRp2758
(dp2759
g74
(dp2760
sg83
g2745
sg76
(lp2761
g69
(g70
g71
NtRp2762
(dp2763
g74
(dp2764
g82
I3
ssg83
g2758
sg76
(lp2765
S''
asbasbasbag69
(g85
g71
NtRp2766
(dp2767
g74
(dp2768
sg83
g2615
sg76
(lp2769
g69
(g90
g71
NtRp2770
(dp2771
g74
(dp2772
g94
g95
ssg83
g2766
sg76
(lp2773
S'version'
p2774
asbag69
(g90
g71
NtRp2775
(dp2776
g74
(dp2777
g101
g102
ssg83
g2766
sg76
(lp2778
S':'
asbag69
(g90
g71
NtRp2779
(dp2780
g74
(dp2781
sg83
g2766
sg76
(lp2782
g69
(g70
g71
NtRp2783
(dp2784
g74
(dp2785
g82
I3
ssg83
g2779
sg76
(lp2786
S''
asbasbasbasbasbasbasbasbasbasbasbag69
(g85
g71
NtRp2787
(dp2788
g74
(dp2789
sg83
g2544
sg76
(lp2790
g69
(g90
g71
NtRp2791
(dp2792
g74
(dp2793
g94
g95
ssg83
g2787
sg76
(lp2794
S'delimiters'
p2795
asbag69
(g90
g71
NtRp2796
(dp2797
g74
(dp2798
g101
g102
ssg83
g2787
sg76
(lp2799
S':'
asbag69
(g90
g71
NtRp2800
(dp2801
g74
(dp2802
sg83
g2787
sg76
(lp2803
g69
(g70
g71
NtRp2804
(dp2805
g74
(dp2806
g82
I5
ssg83
g2800
sg76
(lp2807
g69
(g78
g71
NtRp2808
(dp2809
g74
(dp2810
g82
I4
ssg83
Nsg76
(lp2811
g69
(g85
g71
NtRp2812
(dp2813
g74
(dp2814
sg83
g2808
sg76
(lp2815
g69
(g90
g71
NtRp2816
(dp2817
g74
(dp2818
sg83
g2812
sg76
(lp2819
g69
(g70
g71
NtRp2820
(dp2821
g74
(dp2822
g82
I4
ssg83
g2816
sg76
(lp2823
S'{{'
p2824
asbasbasbag69
(g85
g71
NtRp2825
(dp2826
g74
(dp2827
sg83
g2808
sg76
(lp2828
g69
(g90
g71
NtRp2829
(dp2830
g74
(dp2831
sg83
g2825
sg76
(lp2832
g69
(g70
g71
NtRp2833
(dp2834
g74
(dp2835
g82
I4
ssg83
g2829
sg76
(lp2836
S'}}'
p2837
asbasbasbasbasbasbasbag69
(g85
g71
NtRp2838
(dp2839
g74
(dp2840
sg83
g2544
sg76
(lp2841
g69
(g90
g71
NtRp2842
(dp2843
g74
(dp2844
g94
g95
ssg83
g2838
sg76
(lp2845
S'files'
p2846
asbag69
(g90
g71
NtRp2847
(dp2848
g74
(dp2849
g101
g102
ssg83
g2838
sg76
(lp2850
S':'
asbag69
(g90
g71
NtRp2851
(dp2852
g74
(dp2853
sg83
g2838
sg76
(lp2854
g69
(g70
g71
NtRp2855
(dp2856
g74
(dp2857
g82
I5
ssg83
g2851
sg76
(lp2858
g69
(g78
g71
NtRp2859
(dp2860
g74
(dp2861
g82
I4
ssg83
Nsg76
(lp2862
sbasbasbasbag69
(g85
g71
NtRp2863
(dp2864
g74
(dp2865
sg83
g2544
sg76
(lp2866
g69
(g90
g71
NtRp2867
(dp2868
g74
(dp2869
g94
g95
ssg83
g2863
sg76
(lp2870
S'flash'
p2871
asbag69
(g90
g71
NtRp2872
(dp2873
g74
(dp2874
g101
g102
ssg83
g2863
sg76
(lp2875
S':'
asbag69
(g90
g71
NtRp2876
(dp2877
g74
(dp2878
sg83
g2863
sg76
(lp2879
g69
(g70
g71
NtRp2880
(dp2881
g74
(dp2882
g82
I5
ssg83
g2876
sg76
(lp2883
S''
asbasbasbag69
(g85
g71
NtRp2884
(dp2885
g74
(dp2886
sg83
g2544
sg76
(lp2887
g69
(g90
g71
NtRp2888
(dp2889
g74
(dp2890
g94
g95
ssg83
g2884
sg76
(lp2891
S'generic_patterns'
p2892
asbag69
(g90
g71
NtRp2893
(dp2894
g74
(dp2895
g101
g102
ssg83
g2884
sg76
(lp2896
S':'
asbag69
(g90
g71
NtRp2897
(dp2898
g74
(dp2899
sg83
g2884
sg76
(lp2900
g69
(g70
g71
NtRp2901
(dp2902
g74
(dp2903
g82
I5
ssg83
g2897
sg76
(lp2904
g69
(g78
g71
NtRp2905
(dp2906
g74
(dp2907
g82
I4
ssg83
Nsg76
(lp2908
sbasbasbasbag69
(g85
g71
NtRp2909
(dp2910
g74
(dp2911
sg83
g2544
sg76
(lp2912
g69
(g90
g71
NtRp2913
(dp2914
g74
(dp2915
g94
g95
ssg83
g2909
sg76
(lp2916
S'google_analytics_id'
p2917
asbag69
(g90
g71
NtRp2918
(dp2919
g74
(dp2920
g101
g102
ssg83
g2909
sg76
(lp2921
S':'
asbag69
(g90
g71
NtRp2922
(dp2923
g74
(dp2924
sg83
g2909
sg76
(lp2925
g69
(g70
g71
NtRp2926
(dp2927
g74
(dp2928
g82
I5
ssg83
g2922
sg76
(lp2929
S'None'
p2930
asbasbasbag69
(g85
g71
NtRp2931
(dp2932
g74
(dp2933
sg83
g2544
sg76
(lp2934
g69
(g90
g71
NtRp2935
(dp2936
g74
(dp2937
g94
g95
ssg83
g2931
sg76
(lp2938
S'headers'
p2939
asbag69
(g90
g71
NtRp2940
(dp2941
g74
(dp2942
g101
g102
ssg83
g2931
sg76
(lp2943
S':'
asbag69
(g90
g71
NtRp2944
(dp2945
g74
(dp2946
sg83
g2931
sg76
(lp2947
g69
(g70
g71
NtRp2948
(dp2949
g74
(dp2950
g82
I5
ssg83
g2944
sg76
(lp2951
g69
(g78
g71
NtRp2952
(dp2953
g74
(dp2954
g82
I4
ssg83
Nsg76
(lp2955
g69
(g85
g71
NtRp2956
(dp2957
g74
(dp2958
sg83
g2952
sg76
(lp2959
g69
(g90
g71
NtRp2960
(dp2961
g74
(dp2962
g94
g95
ssg83
g2956
sg76
(lp2963
S'X-Powered-By'
p2964
asbag69
(g90
g71
NtRp2965
(dp2966
g74
(dp2967
g101
g102
ssg83
g2956
sg76
(lp2968
S':'
asbag69
(g90
g71
NtRp2969
(dp2970
g74
(dp2971
sg83
g2956
sg76
(lp2972
g69
(g70
g71
NtRp2973
(dp2974
g74
(dp2975
g82
I4
ssg83
g2969
sg76
(lp2976
S'web2py'
p2977
asbasbasbasbasbasbasbag69
(g85
g71
NtRp2978
(dp2979
g74
(dp2980
sg83
g2544
sg76
(lp2981
g69
(g90
g71
NtRp2982
(dp2983
g74
(dp2984
g94
g95
ssg83
g2978
sg76
(lp2985
S'menu'
p2986
asbag69
(g90
g71
NtRp2987
(dp2988
g74
(dp2989
g101
g102
ssg83
g2978
sg76
(lp2990
S':'
asbag69
(g90
g71
NtRp2991
(dp2992
g74
(dp2993
sg83
g2978
sg76
(lp2994
g69
(g70
g71
NtRp2995
(dp2996
g74
(dp2997
g82
I5
ssg83
g2991
sg76
(lp2998
g69
(g78
g71
NtRp2999
(dp3000
g74
(dp3001
g82
I4
ssg83
Nsg76
(lp3002
g69
(g85
g71
NtRp3003
(dp3004
g74
(dp3005
sg83
g2999
sg76
(lp3006
g69
(g90
g71
NtRp3007
(dp3008
g74
(dp3009
sg83
g3003
sg76
(lp3010
g69
(g70
g71
NtRp3011
(dp3012
g74
(dp3013
g82
I4
ssg83
g3007
sg76
(lp3014
g69
(g78
g71
NtRp3015
(dp3016
g74
(dp3017
g82
I3
ssg83
Nsg76
(lp3018
g69
(g85
g71
NtRp3019
(dp3020
g74
(dp3021
sg83
g3015
sg76
(lp3022
g69
(g90
g71
NtRp3023
(dp3024
g74
(dp3025
sg83
g3019
sg76
(lp3026
g69
(g70
g71
NtRp3027
(dp3028
g74
(dp3029
g82
I3
ssg83
g3023
sg76
(lp3030
cgluon.languages
lazyT_unpickle
p3031
(S's\x04\x00\x00\x00Home'
tRp3032
asbasbasbag69
(g85
g71
NtRp3033
(dp3034
g74
(dp3035
sg83
g3015
sg76
(lp3036
g69
(g90
g71
NtRp3037
(dp3038
g74
(dp3039
sg83
g3033
sg76
(lp3040
g69
(g70
g71
NtRp3041
(dp3042
g74
(dp3043
g82
I3
ssg83
g3037
sg76
(lp3044
g112
asbasbasbag69
(g85
g71
NtRp3045
(dp3046
g74
(dp3047
sg83
g3015
sg76
(lp3048
g69
(g90
g71
NtRp3049
(dp3050
g74
(dp3051
sg83
g3045
sg76
(lp3052
g69
(g70
g71
NtRp3053
(dp3054
g74
(dp3055
g82
I3
ssg83
g3049
sg76
(lp3056
S'/newsFeed/default/index'
p3057
asbasbasbag69
(g85
g71
NtRp3058
(dp3059
g74
(dp3060
sg83
g3015
sg76
(lp3061
g69
(g90
g71
NtRp3062
(dp3063
g74
(dp3064
sg83
g3058
sg76
(lp3065
g69
(g70
g71
NtRp3066
(dp3067
g74
(dp3068
g82
I3
ssg83
g3062
sg76
(lp3069
g69
(g78
g71
NtRp3070
(dp3071
g74
(dp3072
g82
I2
ssg83
Nsg76
(lp3073
sbasbasbasbasbasbasbasbag69
(g85
g71
NtRp3074
(dp3075
g74
(dp3076
sg83
g2999
sg76
(lp3077
g69
(g90
g71
NtRp3078
(dp3079
g74
(dp3080
sg83
g3074
sg76
(lp3081
g69
(g70
g71
NtRp3082
(dp3083
g74
(dp3084
g82
I4
ssg83
g3078
sg76
(lp3085
g69
(g78
g71
NtRp3086
(dp3087
g74
(dp3088
g82
I3
ssg83
Nsg76
(lp3089
g69
(g85
g71
NtRp3090
(dp3091
g74
(dp3092
sg83
g3086
sg76
(lp3093
g69
(g90
g71
NtRp3094
(dp3095
g74
(dp3096
sg83
g3090
sg76
(lp3097
g69
(g70
g71
NtRp3098
(dp3099
g74
(dp3100
g82
I3
ssg83
g3094
sg76
(lp3101
g69
(cgluon.html
SPAN
p3102
g71
NtRp3103
(dp3104
g74
(dp3105
g94
S'color:yellow'
p3106
ssg83
Nsg76
(lp3107
g2977
asbasbasbasbag69
(g85
g71
NtRp3108
(dp3109
g74
(dp3110
sg83
g3086
sg76
(lp3111
g69
(g90
g71
NtRp3112
(dp3113
g74
(dp3114
sg83
g3108
sg76
(lp3115
g69
(g70
g71
NtRp3116
(dp3117
g74
(dp3118
g82
I3
ssg83
g3112
sg76
(lp3119
g112
asbasbasbag69
(g85
g71
NtRp3120
(dp3121
g74
(dp3122
sg83
g3086
sg76
(lp3123
g69
(g90
g71
NtRp3124
(dp3125
g74
(dp3126
sg83
g3120
sg76
(lp3127
g69
(g70
g71
NtRp3128
(dp3129
g74
(dp3130
g82
I3
ssg83
g3124
sg76
(lp3131
S'http://web2py.com'
p3132
asbasbasbag69
(g85
g71
NtRp3133
(dp3134
g74
(dp3135
sg83
g3086
sg76
(lp3136
g69
(g90
g71
NtRp3137
(dp3138
g74
(dp3139
sg83
g3133
sg76
(lp3140
g69
(g70
g71
NtRp3141
(dp3142
g74
(dp3143
g82
I3
ssg83
g3137
sg76
(lp3144
g69
(g78
g71
NtRp3145
(dp3146
g74
(dp3147
g82
I2
ssg83
Nsg76
(lp3148
g69
(g85
g71
NtRp3149
(dp3150
g74
(dp3151
sg83
g3145
sg76
(lp3152
g69
(g90
g71
NtRp3153
(dp3154
g74
(dp3155
sg83
g3149
sg76
(lp3156
g69
(g70
g71
NtRp3157
(dp3158
g74
(dp3159
g82
I2
ssg83
g3153
sg76
(lp3160
g69
(g78
g71
NtRp3161
(dp3162
g74
(dp3163
g82
I1
ssg83
Nsg76
(lp3164
g69
(g85
g71
NtRp3165
(dp3166
g74
(dp3167
sg83
g3161
sg76
(lp3168
g69
(g90
g71
NtRp3169
(dp3170
g74
(dp3171
sg83
g3165
sg76
(lp3172
g69
(g70
g71
NtRp3173
(dp3174
g74
(dp3175
g82
I1
ssg83
g3169
sg76
(lp3176
g3031
(S's\x08\x00\x00\x00My Sites'
tRp3177
asbasbasbag69
(g85
g71
NtRp3178
(dp3179
g74
(dp3180
sg83
g3161
sg76
(lp3181
g69
(g90
g71
NtRp3182
(dp3183
g74
(dp3184
sg83
g3178
sg76
(lp3185
g69
(g70
g71
NtRp3186
(dp3187
g74
(dp3188
g82
I1
ssg83
g3182
sg76
(lp3189
I00
asbasbasbag69
(g85
g71
NtRp3190
(dp3191
g74
(dp3192
sg83
g3161
sg76
(lp3193
g69
(g90
g71
NtRp3194
(dp3195
g74
(dp3196
sg83
g3190
sg76
(lp3197
g69
(g70
g71
NtRp3198
(dp3199
g74
(dp3200
g82
I1
ssg83
g3194
sg76
(lp3201
S'/admin/default/site'
p3202
asbasbasbasbasbasbasbag69
(g85
g71
NtRp3203
(dp3204
g74
(dp3205
sg83
g3145
sg76
(lp3206
g69
(g90
g71
NtRp3207
(dp3208
g74
(dp3209
sg83
g3203
sg76
(lp3210
g69
(g70
g71
NtRp3211
(dp3212
g74
(dp3213
g82
I2
ssg83
g3207
sg76
(lp3214
g69
(g78
g71
NtRp3215
(dp3216
g74
(dp3217
g82
I1
ssg83
Nsg76
(lp3218
g69
(g85
g71
NtRp3219
(dp3220
g74
(dp3221
sg83
g3215
sg76
(lp3222
g69
(g90
g71
NtRp3223
(dp3224
g74
(dp3225
sg83
g3219
sg76
(lp3226
g69
(g70
g71
NtRp3227
(dp3228
g74
(dp3229
g82
I1
ssg83
g3223
sg76
(lp3230
g3031
(S's\x08\x00\x00\x00This App'
tRp3231
asbasbasbag69
(g85
g71
NtRp3232
(dp3233
g74
(dp3234
sg83
g3215
sg76
(lp3235
g69
(g90
g71
NtRp3236
(dp3237
g74
(dp3238
sg83
g3232
sg76
(lp3239
g69
(g70
g71
NtRp3240
(dp3241
g74
(dp3242
g82
I1
ssg83
g3236
sg76
(lp3243
I00
asbasbasbag69
(g85
g71
NtRp3244
(dp3245
g74
(dp3246
sg83
g3215
sg76
(lp3247
g69
(g90
g71
NtRp3248
(dp3249
g74
(dp3250
sg83
g3244
sg76
(lp3251
g69
(g70
g71
NtRp3252
(dp3253
g74
(dp3254
g82
I1
ssg83
g3248
sg76
(lp3255
S'/admin/default/design/newsFeed'
p3256
asbasbasbag69
(g85
g71
NtRp3257
(dp3258
g74
(dp3259
sg83
g3215
sg76
(lp3260
g69
(g90
g71
NtRp3261
(dp3262
g74
(dp3263
sg83
g3257
sg76
(lp3264
g69
(g70
g71
NtRp3265
(dp3266
g74
(dp3267
g82
I1
ssg83
g3261
sg76
(lp3268
(lp3269
(g3031
(S's\n\x00\x00\x00Controller'
tRp3270
I00
S'/admin/default/edit/newsFeed/controllers/default.py'
tp3271
a(g3031
(S's\x04\x00\x00\x00View'
tRp3272
I00
S'/admin/default/edit/newsFeed/views/default/index.html'
tp3273
a(g3031
(S's\x06\x00\x00\x00Layout'
tRp3274
I00
S'/admin/default/edit/newsFeed/views/layout.html'
tp3275
a(g3031
(S's\n\x00\x00\x00Stylesheet'
tRp3276
I00
S'/admin/default/edit/newsFeed/static/css/web2py.css'
tp3277
a(g3031
(S's\x08\x00\x00\x00DB Model'
tRp3278
I00
S'/admin/default/edit/newsFeed/models/db.py'
tp3279
a(g3031
(S's\n\x00\x00\x00Menu Model'
tRp3280
I00
S'/admin/default/edit/newsFeed/models/menu.py'
tp3281
a(g3031
(S's\x08\x00\x00\x00Database'
tRp3282
I00
S'/newsFeed/appadmin/index'
tp3283
a(g3031
(S's\x06\x00\x00\x00Errors'
tRp3284
I00
S'/admin/default/errors/newsFeed'
tp3285
a(g3031
(S's\x05\x00\x00\x00About'
tRp3286
I00
S'/admin/default/about/newsFeed'
tp3287
aasbasbasbasbasbasbasbag69
(g85
g71
NtRp3288
(dp3289
g74
(dp3290
sg83
g3145
sg76
(lp3291
g69
(g90
g71
NtRp3292
(dp3293
g74
(dp3294
sg83
g3288
sg76
(lp3295
g69
(g70
g71
NtRp3296
(dp3297
g74
(dp3298
g82
I2
ssg83
g3292
sg76
(lp3299
g69
(g78
g71
NtRp3300
(dp3301
g74
(dp3302
g82
I1
ssg83
Nsg76
(lp3303
g69
(g85
g71
NtRp3304
(dp3305
g74
(dp3306
sg83
g3300
sg76
(lp3307
g69
(g90
g71
NtRp3308
(dp3309
g74
(dp3310
sg83
g3304
sg76
(lp3311
g69
(g70
g71
NtRp3312
(dp3313
g74
(dp3314
g82
I1
ssg83
g3308
sg76
(lp3315
S'web2py.com'
p3316
asbasbasbag69
(g85
g71
NtRp3317
(dp3318
g74
(dp3319
sg83
g3300
sg76
(lp3320
g69
(g90
g71
NtRp3321
(dp3322
g74
(dp3323
sg83
g3317
sg76
(lp3324
g69
(g70
g71
NtRp3325
(dp3326
g74
(dp3327
g82
I1
ssg83
g3321
sg76
(lp3328
I00
asbasbasbag69
(g85
g71
NtRp3329
(dp3330
g74
(dp3331
sg83
g3300
sg76
(lp3332
g69
(g90
g71
NtRp3333
(dp3334
g74
(dp3335
sg83
g3329
sg76
(lp3336
g69
(g70
g71
NtRp3337
(dp3338
g74
(dp3339
g82
I1
ssg83
g3333
sg76
(lp3340
S'http://www.web2py.com'
p3341
asbasbasbag69
(g85
g71
NtRp3342
(dp3343
g74
(dp3344
sg83
g3300
sg76
(lp3345
g69
(g90
g71
NtRp3346
(dp3347
g74
(dp3348
sg83
g3342
sg76
(lp3349
g69
(g70
g71
NtRp3350
(dp3351
g74
(dp3352
g82
I1
ssg83
g3346
sg76
(lp3353
(lp3354
(g3031
(S's\x08\x00\x00\x00Download'
tRp3355
I00
S'http://www.web2py.com/examples/default/download'
p3356
tp3357
a(g3031
(S's\x07\x00\x00\x00Support'
tRp3358
I00
S'http://www.web2py.com/examples/default/support'
p3359
tp3360
a(g3031
(S's\x04\x00\x00\x00Demo'
tRp3361
I00
S'http://web2py.com/demo_admin'
p3362
tp3363
a(g3031
(S's\x0e\x00\x00\x00Quick Examples'
tRp3364
I00
S'http://web2py.com/examples/default/examples'
p3365
tp3366
a(g3031
(S's\x03\x00\x00\x00FAQ'
tRp3367
I00
S'http://web2py.com/AlterEgo'
p3368
tp3369
a(g3031
(S's\x06\x00\x00\x00Videos'
tRp3370
I00
S'http://www.web2py.com/examples/default/videos/'
p3371
tp3372
a(g3031
(S's\x11\x00\x00\x00Free Applications'
tRp3373
I00
S'http://web2py.com/appliances'
p3374
tp3375
a(g3031
(S's\x07\x00\x00\x00Plugins'
tRp3376
I00
S'http://web2py.com/plugins'
p3377
tp3378
a(g3031
(S's\x07\x00\x00\x00Layouts'
tRp3379
I00
S'http://web2py.com/layouts'
p3380
tp3381
a(g3031
(S's\x07\x00\x00\x00Recipes'
tRp3382
I00
S'http://web2pyslices.com/'
p3383
tp3384
a(g3031
(S's\x08\x00\x00\x00Semantic'
tRp3385
I00
S'http://web2py.com/semantic'
p3386
tp3387
aasbasbasbasbasbasbasbag69
(g85
g71
NtRp3388
(dp3389
g74
(dp3390
sg83
g3145
sg76
(lp3391
g69
(g90
g71
NtRp3392
(dp3393
g74
(dp3394
sg83
g3388
sg76
(lp3395
g69
(g70
g71
NtRp3396
(dp3397
g74
(dp3398
g82
I2
ssg83
g3392
sg76
(lp3399
g69
(g78
g71
NtRp3400
(dp3401
g74
(dp3402
g82
I1
ssg83
Nsg76
(lp3403
g69
(g85
g71
NtRp3404
(dp3405
g74
(dp3406
sg83
g3400
sg76
(lp3407
g69
(g90
g71
NtRp3408
(dp3409
g74
(dp3410
sg83
g3404
sg76
(lp3411
g69
(g70
g71
NtRp3412
(dp3413
g74
(dp3414
g82
I1
ssg83
g3408
sg76
(lp3415
g3031
(S's\r\x00\x00\x00Documentation'
tRp3416
asbasbasbag69
(g85
g71
NtRp3417
(dp3418
g74
(dp3419
sg83
g3400
sg76
(lp3420
g69
(g90
g71
NtRp3421
(dp3422
g74
(dp3423
sg83
g3417
sg76
(lp3424
g69
(g70
g71
NtRp3425
(dp3426
g74
(dp3427
g82
I1
ssg83
g3421
sg76
(lp3428
I00
asbasbasbag69
(g85
g71
NtRp3429
(dp3430
g74
(dp3431
sg83
g3400
sg76
(lp3432
g69
(g90
g71
NtRp3433
(dp3434
g74
(dp3435
sg83
g3429
sg76
(lp3436
g69
(g70
g71
NtRp3437
(dp3438
g74
(dp3439
g82
I1
ssg83
g3433
sg76
(lp3440
S'http://www.web2py.com/book'
p3441
asbasbasbag69
(g85
g71
NtRp3442
(dp3443
g74
(dp3444
sg83
g3400
sg76
(lp3445
g69
(g90
g71
NtRp3446
(dp3447
g74
(dp3448
sg83
g3442
sg76
(lp3449
g69
(g70
g71
NtRp3450
(dp3451
g74
(dp3452
g82
I1
ssg83
g3446
sg76
(lp3453
(lp3454
(g3031
(S's\x07\x00\x00\x00Preface'
tRp3455
I00
S'http://www.web2py.com/book/default/chapter/00'
p3456
tp3457
a(g3031
(S's\x0c\x00\x00\x00Introduction'
tRp3458
I00
S'http://www.web2py.com/book/default/chapter/01'
p3459
tp3460
a(g3031
(S's\x06\x00\x00\x00Python'
tRp3461
I00
S'http://www.web2py.com/book/default/chapter/02'
p3462
tp3463
a(g3031
(S's\x08\x00\x00\x00Overview'
tRp3464
I00
S'http://www.web2py.com/book/default/chapter/03'
p3465
tp3466
a(g3031
(S's\x08\x00\x00\x00The Core'
tRp3467
I00
S'http://www.web2py.com/book/default/chapter/04'
p3468
tp3469
a(g3031
(S's\t\x00\x00\x00The Views'
tRp3470
I00
S'http://www.web2py.com/book/default/chapter/05'
p3471
tp3472
a(g3031
(S's\x08\x00\x00\x00Database'
tRp3473
I00
S'http://www.web2py.com/book/default/chapter/06'
p3474
tp3475
a(g3031
(S's\x14\x00\x00\x00Forms and Validators'
tRp3476
I00
S'http://www.web2py.com/book/default/chapter/07'
p3477
tp3478
a(g3031
(S's\r\x00\x00\x00Email and SMS'
tRp3479
I00
S'http://www.web2py.com/book/default/chapter/08'
p3480
tp3481
a(g3031
(S's\x0e\x00\x00\x00Access Control'
tRp3482
I00
S'http://www.web2py.com/book/default/chapter/09'
p3483
tp3484
a(g3031
(S's\x08\x00\x00\x00Services'
tRp3485
I00
S'http://www.web2py.com/book/default/chapter/10'
p3486
tp3487
a(g3031
(S's\x0c\x00\x00\x00Ajax Recipes'
tRp3488
I00
S'http://www.web2py.com/book/default/chapter/11'
p3489
tp3490
a(g3031
(S's\x16\x00\x00\x00Components and Plugins'
tRp3491
I00
S'http://www.web2py.com/book/default/chapter/12'
p3492
tp3493
a(g3031
(S's\x12\x00\x00\x00Deployment Recipes'
tRp3494
I00
S'http://www.web2py.com/book/default/chapter/13'
p3495
tp3496
a(g3031
(S's\r\x00\x00\x00Other Recipes'
tRp3497
I00
S'http://www.web2py.com/book/default/chapter/14'
p3498
tp3499
a(g3031
(S's\r\x00\x00\x00Buy this book'
tRp3500
I00
S'http://stores.lulu.com/web2py'
p3501
tp3502
aasbasbasbasbasbasbasbag69
(g85
g71
NtRp3503
(dp3504
g74
(dp3505
sg83
g3145
sg76
(lp3506
g69
(g90
g71
NtRp3507
(dp3508
g74
(dp3509
sg83
g3503
sg76
(lp3510
g69
(g70
g71
NtRp3511
(dp3512
g74
(dp3513
g82
I2
ssg83
g3507
sg76
(lp3514
g69
(g78
g71
NtRp3515
(dp3516
g74
(dp3517
g82
I1
ssg83
Nsg76
(lp3518
g69
(g85
g71
NtRp3519
(dp3520
g74
(dp3521
sg83
g3515
sg76
(lp3522
g69
(g90
g71
NtRp3523
(dp3524
g74
(dp3525
sg83
g3519
sg76
(lp3526
g69
(g70
g71
NtRp3527
(dp3528
g74
(dp3529
g82
I1
ssg83
g3523
sg76
(lp3530
g3031
(S's\t\x00\x00\x00Community'
tRp3531
asbasbasbag69
(g85
g71
NtRp3532
(dp3533
g74
(dp3534
sg83
g3515
sg76
(lp3535
g69
(g90
g71
NtRp3536
(dp3537
g74
(dp3538
sg83
g3532
sg76
(lp3539
g69
(g70
g71
NtRp3540
(dp3541
g74
(dp3542
g82
I1
ssg83
g3536
sg76
(lp3543
I00
asbasbasbag69
(g85
g71
NtRp3544
(dp3545
g74
(dp3546
sg83
g3515
sg76
(lp3547
g69
(g90
g71
NtRp3548
(dp3549
g74
(dp3550
sg83
g3544
sg76
(lp3551
g69
(g70
g71
NtRp3552
(dp3553
g74
(dp3554
g82
I1
ssg83
g3548
sg76
(lp3555
Nasbasbasbag69
(g85
g71
NtRp3556
(dp3557
g74
(dp3558
sg83
g3515
sg76
(lp3559
g69
(g90
g71
NtRp3560
(dp3561
g74
(dp3562
sg83
g3556
sg76
(lp3563
g69
(g70
g71
NtRp3564
(dp3565
g74
(dp3566
g82
I1
ssg83
g3560
sg76
(lp3567
(lp3568
(g3031
(S's\x06\x00\x00\x00Groups'
tRp3569
I00
S'http://www.web2py.com/examples/default/usergroups'
p3570
tp3571
a(g3031
(S's\x07\x00\x00\x00Twitter'
tRp3572
I00
S'http://twitter.com/web2py'
p3573
tp3574
a(g3031
(S's\t\x00\x00\x00Live Chat'
tRp3575
I00
S'http://webchat.freenode.net/?channels=web2py'
p3576
tp3577
aasbasbasbasbasbasbasbag69
(g85
g71
NtRp3578
(dp3579
g74
(dp3580
sg83
g3145
sg76
(lp3581
g69
(g90
g71
NtRp3582
(dp3583
g74
(dp3584
sg83
g3578
sg76
(lp3585
g69
(g70
g71
NtRp3586
(dp3587
g74
(dp3588
g82
I2
ssg83
g3582
sg76
(lp3589
g69
(g78
g71
NtRp3590
(dp3591
g74
(dp3592
g82
I1
ssg83
Nsg76
(lp3593
g69
(g85
g71
NtRp3594
(dp3595
g74
(dp3596
sg83
g3590
sg76
(lp3597
g69
(g90
g71
NtRp3598
(dp3599
g74
(dp3600
sg83
g3594
sg76
(lp3601
g69
(g70
g71
NtRp3602
(dp3603
g74
(dp3604
g82
I1
ssg83
g3598
sg76
(lp3605
g3031
(S's\x07\x00\x00\x00Plugins'
tRp3606
asbasbasbag69
(g85
g71
NtRp3607
(dp3608
g74
(dp3609
sg83
g3590
sg76
(lp3610
g69
(g90
g71
NtRp3611
(dp3612
g74
(dp3613
sg83
g3607
sg76
(lp3614
g69
(g70
g71
NtRp3615
(dp3616
g74
(dp3617
g82
I1
ssg83
g3611
sg76
(lp3618
I00
asbasbasbag69
(g85
g71
NtRp3619
(dp3620
g74
(dp3621
sg83
g3590
sg76
(lp3622
g69
(g90
g71
NtRp3623
(dp3624
g74
(dp3625
sg83
g3619
sg76
(lp3626
g69
(g70
g71
NtRp3627
(dp3628
g74
(dp3629
g82
I1
ssg83
g3623
sg76
(lp3630
Nasbasbasbag69
(g85
g71
NtRp3631
(dp3632
g74
(dp3633
sg83
g3590
sg76
(lp3634
g69
(g90
g71
NtRp3635
(dp3636
g74
(dp3637
sg83
g3631
sg76
(lp3638
g69
(g70
g71
NtRp3639
(dp3640
g74
(dp3641
g82
I1
ssg83
g3635
sg76
(lp3642
(lp3643
(S'plugin_wiki'
p3644
I00
S'http://web2py.com/examples/default/download'
p3645
tp3646
a(g3031
(S's\r\x00\x00\x00Other Plugins'
tRp3647
I00
g3377
tp3648
a(g3031
(S's\x0e\x00\x00\x00Layout Plugins'
tRp3649
I00
g3380
tp3650
aasbasbasbasbasbasbasbasbasbasbasbasbasbasbasbasbasbasbasbag69
(g85
g71
NtRp3651
(dp3652
g74
(dp3653
sg83
g2544
sg76
(lp3654
g69
(g90
g71
NtRp3655
(dp3656
g74
(dp3657
g94
g95
ssg83
g3651
sg76
(lp3658
S'meta'
p3659
asbag69
(g90
g71
NtRp3660
(dp3661
g74
(dp3662
g101
g102
ssg83
g3651
sg76
(lp3663
S':'
asbag69
(g90
g71
NtRp3664
(dp3665
g74
(dp3666
sg83
g3651
sg76
(lp3667
g69
(g70
g71
NtRp3668
(dp3669
g74
(dp3670
g82
I5
ssg83
g3664
sg76
(lp3671
g69
(g78
g71
NtRp3672
(dp3673
g74
(dp3674
g82
I4
ssg83
Nsg76
(lp3675
g69
(g85
g71
NtRp3676
(dp3677
g74
(dp3678
sg83
g3672
sg76
(lp3679
g69
(g90
g71
NtRp3680
(dp3681
g74
(dp3682
g94
g95
ssg83
g3676
sg76
(lp3683
S'author'
p3684
asbag69
(g90
g71
NtRp3685
(dp3686
g74
(dp3687
g101
g102
ssg83
g3676
sg76
(lp3688
S':'
asbag69
(g90
g71
NtRp3689
(dp3690
g74
(dp3691
sg83
g3676
sg76
(lp3692
g69
(g70
g71
NtRp3693
(dp3694
g74
(dp3695
g82
I4
ssg83
g3689
sg76
(lp3696
S'Your Name <you@example.com>'
p3697
asbasbasbag69
(g85
g71
NtRp3698
(dp3699
g74
(dp3700
sg83
g3672
sg76
(lp3701
g69
(g90
g71
NtRp3702
(dp3703
g74
(dp3704
g94
g95
ssg83
g3698
sg76
(lp3705
S'description'
p3706
asbag69
(g90
g71
NtRp3707
(dp3708
g74
(dp3709
g101
g102
ssg83
g3698
sg76
(lp3710
S':'
asbag69
(g90
g71
NtRp3711
(dp3712
g74
(dp3713
sg83
g3698
sg76
(lp3714
g69
(g70
g71
NtRp3715
(dp3716
g74
(dp3717
g82
I4
ssg83
g3711
sg76
(lp3718
S'a cool new app'
p3719
asbasbasbag69
(g85
g71
NtRp3720
(dp3721
g74
(dp3722
sg83
g3672
sg76
(lp3723
g69
(g90
g71
NtRp3724
(dp3725
g74
(dp3726
g94
g95
ssg83
g3720
sg76
(lp3727
S'generator'
p3728
asbag69
(g90
g71
NtRp3729
(dp3730
g74
(dp3731
g101
g102
ssg83
g3720
sg76
(lp3732
S':'
asbag69
(g90
g71
NtRp3733
(dp3734
g74
(dp3735
sg83
g3720
sg76
(lp3736
g69
(g70
g71
NtRp3737
(dp3738
g74
(dp3739
g82
I4
ssg83
g3733
sg76
(lp3740
S'Web2py Web Framework'
p3741
asbasbasbag69
(g85
g71
NtRp3742
(dp3743
g74
(dp3744
sg83
g3672
sg76
(lp3745
g69
(g90
g71
NtRp3746
(dp3747
g74
(dp3748
g94
g95
ssg83
g3742
sg76
(lp3749
S'keywords'
p3750
asbag69
(g90
g71
NtRp3751
(dp3752
g74
(dp3753
g101
g102
ssg83
g3742
sg76
(lp3754
S':'
asbag69
(g90
g71
NtRp3755
(dp3756
g74
(dp3757
sg83
g3742
sg76
(lp3758
g69
(g70
g71
NtRp3759
(dp3760
g74
(dp3761
g82
I4
ssg83
g3755
sg76
(lp3762
S'web2py, python, framework'
p3763
asbasbasbasbasbasbasbag69
(g85
g71
NtRp3764
(dp3765
g74
(dp3766
sg83
g2544
sg76
(lp3767
g69
(g90
g71
NtRp3768
(dp3769
g74
(dp3770
g94
g95
ssg83
g3764
sg76
(lp3771
S'models_to_run'
p3772
asbag69
(g90
g71
NtRp3773
(dp3774
g74
(dp3775
g101
g102
ssg83
g3764
sg76
(lp3776
S':'
asbag69
(g90
g71
NtRp3777
(dp3778
g74
(dp3779
sg83
g3764
sg76
(lp3780
g69
(g70
g71
NtRp3781
(dp3782
g74
(dp3783
g82
I5
ssg83
g3777
sg76
(lp3784
g69
(g78
g71
NtRp3785
(dp3786
g74
(dp3787
g82
I4
ssg83
Nsg76
(lp3788
g69
(g85
g71
NtRp3789
(dp3790
g74
(dp3791
sg83
g3785
sg76
(lp3792
g69
(g90
g71
NtRp3793
(dp3794
g74
(dp3795
sg83
g3789
sg76
(lp3796
g69
(g70
g71
NtRp3797
(dp3798
g74
(dp3799
g82
I4
ssg83
g3793
sg76
(lp3800
S'^\\w+\\.py$'
p3801
asbasbasbag69
(g85
g71
NtRp3802
(dp3803
g74
(dp3804
sg83
g3785
sg76
(lp3805
g69
(g90
g71
NtRp3806
(dp3807
g74
(dp3808
sg83
g3802
sg76
(lp3809
g69
(g70
g71
NtRp3810
(dp3811
g74
(dp3812
g82
I4
ssg83
g3806
sg76
(lp3813
S'^default/\\w+\\.py$'
p3814
asbasbasbag69
(g85
g71
NtRp3815
(dp3816
g74
(dp3817
sg83
g3785
sg76
(lp3818
g69
(g90
g71
NtRp3819
(dp3820
g74
(dp3821
sg83
g3815
sg76
(lp3822
g69
(g70
g71
NtRp3823
(dp3824
g74
(dp3825
g82
I4
ssg83
g3819
sg76
(lp3826
S'^default/index/\\w+\\.py$'
p3827
asbasbasbasbasbasbasbag69
(g85
g71
NtRp3828
(dp3829
g74
(dp3830
sg83
g2544
sg76
(lp3831
g69
(g90
g71
NtRp3832
(dp3833
g74
(dp3834
g94
g95
ssg83
g3828
sg76
(lp3835
S'postprocessing'
p3836
asbag69
(g90
g71
NtRp3837
(dp3838
g74
(dp3839
g101
g102
ssg83
g3828
sg76
(lp3840
S':'
asbag69
(g90
g71
NtRp3841
(dp3842
g74
(dp3843
sg83
g3828
sg76
(lp3844
g69
(g70
g71
NtRp3845
(dp3846
g74
(dp3847
g82
I5
ssg83
g3841
sg76
(lp3848
g69
(g78
g71
NtRp3849
(dp3850
g74
(dp3851
g82
I4
ssg83
Nsg76
(lp3852
sbasbasbasbag69
(g85
g71
NtRp3853
(dp3854
g74
(dp3855
sg83
g2544
sg76
(lp3856
g69
(g90
g71
NtRp3857
(dp3858
g74
(dp3859
g94
g95
ssg83
g3853
sg76
(lp3860
S'session_filename'
p3861
asbag69
(g90
g71
NtRp3862
(dp3863
g74
(dp3864
g101
g102
ssg83
g3853
sg76
(lp3865
S':'
asbag69
(g90
g71
NtRp3866
(dp3867
g74
(dp3868
sg83
g3853
sg76
(lp3869
g69
(g70
g71
NtRp3870
(dp3871
g74
(dp3872
g82
I5
ssg83
g3866
sg76
(lp3873
S'/Users/Karl/code/web2py/applications/newsFeed/sessions/127.0.0.1-b48fdeaa-9927-4c0b-b60e-cf3049dad40d'
p3874
asbasbasbag69
(g85
g71
NtRp3875
(dp3876
g74
(dp3877
sg83
g2544
sg76
(lp3878
g69
(g90
g71
NtRp3879
(dp3880
g74
(dp3881
g94
g95
ssg83
g3875
sg76
(lp3882
S'session_id'
p3883
asbag69
(g90
g71
NtRp3884
(dp3885
g74
(dp3886
g101
g102
ssg83
g3875
sg76
(lp3887
S':'
asbag69
(g90
g71
NtRp3888
(dp3889
g74
(dp3890
sg83
g3875
sg76
(lp3891
g69
(g70
g71
NtRp3892
(dp3893
g74
(dp3894
g82
I5
ssg83
g3888
sg76
(lp3895
g2614
asbasbasbag69
(g85
g71
NtRp3896
(dp3897
g74
(dp3898
sg83
g2544
sg76
(lp3899
g69
(g90
g71
NtRp3900
(dp3901
g74
(dp3902
g94
g95
ssg83
g3896
sg76
(lp3903
S'session_id_name'
p3904
asbag69
(g90
g71
NtRp3905
(dp3906
g74
(dp3907
g101
g102
ssg83
g3896
sg76
(lp3908
S':'
asbag69
(g90
g71
NtRp3909
(dp3910
g74
(dp3911
sg83
g3896
sg76
(lp3912
g69
(g70
g71
NtRp3913
(dp3914
g74
(dp3915
g82
I5
ssg83
g3909
sg76
(lp3916
g2601
asbasbasbag69
(g85
g71
NtRp3917
(dp3918
g74
(dp3919
sg83
g2544
sg76
(lp3920
g69
(g90
g71
NtRp3921
(dp3922
g74
(dp3923
g94
g95
ssg83
g3917
sg76
(lp3924
S'session_new'
p3925
asbag69
(g90
g71
NtRp3926
(dp3927
g74
(dp3928
g101
g102
ssg83
g3917
sg76
(lp3929
S':'
asbag69
(g90
g71
NtRp3930
(dp3931
g74
(dp3932
sg83
g3917
sg76
(lp3933
g69
(g70
g71
NtRp3934
(dp3935
g74
(dp3936
g82
I5
ssg83
g3930
sg76
(lp3937
g1125
asbasbasbag69
(g85
g71
NtRp3938
(dp3939
g74
(dp3940
sg83
g2544
sg76
(lp3941
g69
(g90
g71
NtRp3942
(dp3943
g74
(dp3944
g94
g95
ssg83
g3938
sg76
(lp3945
S'status'
p3946
asbag69
(g90
g71
NtRp3947
(dp3948
g74
(dp3949
g101
g102
ssg83
g3938
sg76
(lp3950
S':'
asbag69
(g90
g71
NtRp3951
(dp3952
g74
(dp3953
sg83
g3938
sg76
(lp3954
g69
(g70
g71
NtRp3955
(dp3956
g74
(dp3957
g82
I5
ssg83
g3951
sg76
(lp3958
S'200'
p3959
asbasbasbag69
(g85
g71
NtRp3960
(dp3961
g74
(dp3962
sg83
g2544
sg76
(lp3963
g69
(g90
g71
NtRp3964
(dp3965
g74
(dp3966
g94
g95
ssg83
g3960
sg76
(lp3967
S'subtitle'
p3968
asbag69
(g90
g71
NtRp3969
(dp3970
g74
(dp3971
g101
g102
ssg83
g3960
sg76
(lp3972
S':'
asbag69
(g90
g71
NtRp3973
(dp3974
g74
(dp3975
sg83
g3960
sg76
(lp3976
g69
(g70
g71
NtRp3977
(dp3978
g74
(dp3979
g82
I5
ssg83
g3973
sg76
(lp3980
g3031
(S's\r\x00\x00\x00customize me!'
tRp3981
asbasbasbag69
(g85
g71
NtRp3982
(dp3983
g74
(dp3984
sg83
g2544
sg76
(lp3985
g69
(g90
g71
NtRp3986
(dp3987
g74
(dp3988
g94
g95
ssg83
g3982
sg76
(lp3989
S'title'
p3990
asbag69
(g90
g71
NtRp3991
(dp3992
g74
(dp3993
g101
g102
ssg83
g3982
sg76
(lp3994
S':'
asbag69
(g90
g71
NtRp3995
(dp3996
g74
(dp3997
sg83
g3982
sg76
(lp3998
g69
(g70
g71
NtRp3999
(dp4000
g74
(dp4001
g82
I5
ssg83
g3995
sg76
(lp4002
S'Newsfeed'
p4003
asbasbasbag69
(g85
g71
NtRp4004
(dp4005
g74
(dp4006
sg83
g2544
sg76
(lp4007
g69
(g90
g71
NtRp4008
(dp4009
g74
(dp4010
g94
g95
ssg83
g4004
sg76
(lp4011
S'view'
p4012
asbag69
(g90
g71
NtRp4013
(dp4014
g74
(dp4015
g101
g102
ssg83
g4004
sg76
(lp4016
S':'
asbag69
(g90
g71
NtRp4017
(dp4018
g74
(dp4019
sg83
g4004
sg76
(lp4020
g69
(g70
g71
NtRp4021
(dp4022
g74
(dp4023
g82
I5
ssg83
g4017
sg76
(lp4024
S'default/index.html'
p4025
asbasbasbasbasbsS'locals'
p4026
(dp4027
g4
S"'/Users/Karl/code/web2py/applications/newsFeed/controllers/default.py'"
p4028
sg6
S"'def index():\\n    images = db().select(db.image.A...uest, db)\\nresponse._vars=response._caller(index)\\n'"
p4029
sssS'traceback'
p4030
S'Traceback (most recent call last):\n  File "/Users/Karl/code/web2py/gluon/restricted.py", line 208, in restricted\n    ccode = compile2(code,layer)\n  File "/Users/Karl/code/web2py/gluon/restricted.py", line 193, in compile2\n    return compile(code.rstrip().replace(\'\\r\\n\',\'\\n\')+\'\\n\', layer, \'exec\')\n  File "/Users/Karl/code/web2py/applications/newsFeed/controllers/default.py", line 11\n    return dict(image=image, comments=comments, form=form)\nSyntaxError: \'return\' outside function\n'
p4031
s.