(dp1
S'output'
p2
S"<type 'exceptions.SyntaxError'> invalid syntax (default.py, line 2)"
p3
sS'layer'
p4
S'/Users/Karl/code/web2py/applications/newsFeed/controllers/default.py'
p5
sS'code'
p6
S"def index():\n    images = db().select(db.image.ALL, orderby=db.image.title) return dict(images=images)\ndef show():\n    image = db(db.image.id==request.args(0)).select().first() db.comment.image_id.default = image.id\nform = SQLFORM(db.comment)\nif form.process().accepted:\n    response.flash = 'your comment is posted'\ncomments = db(db.comment.image_id==image.id).select() return dict(image=image, comments=comments, form=form)\ndef download():\n    return response.download(request, db)\nresponse._vars=response._caller(index)\n"
p7
sS'snapshot'
p8
(dp9
S'exception'
p10
(dp11
S'__getslice__'
p12
S"<method-wrapper '__getslice__' of exceptions.SyntaxError object>"
p13
sS'text'
p14
S"'    images = db().select(db.image.ALL, orderby=db.image.title) return dict(images=images)\\n'"
p15
sS'__str__'
p16
S"<method-wrapper '__str__' of exceptions.SyntaxError object>"
p17
sS'__reduce__'
p18
S'<built-in method __reduce__ of exceptions.SyntaxError object>'
p19
sS'__dict__'
p20
S'{}'
p21
sS'__sizeof__'
p22
S'<built-in method __sizeof__ of exceptions.SyntaxError object>'
p23
sS'__init__'
p24
S"<method-wrapper '__init__' of exceptions.SyntaxError object>"
p25
sS'__setattr__'
p26
S"<method-wrapper '__setattr__' of exceptions.SyntaxError object>"
p27
sS'__reduce_ex__'
p28
S'<built-in method __reduce_ex__ of exceptions.SyntaxError object>'
p29
sS'__new__'
p30
S'<built-in method __new__ of type object>'
p31
sS'__format__'
p32
S'<built-in method __format__ of exceptions.SyntaxError object>'
p33
sS'__class__'
p34
S"<type 'exceptions.SyntaxError'>"
p35
sS'filename'
p36
S"'/Users/Karl/code/web2py/applications/newsFeed/controllers/default.py'"
p37
sS'lineno'
p38
S'2'
sS'msg'
p39
S"'invalid syntax'"
p40
sS'__doc__'
p41
S"'Invalid syntax.'"
p42
sS'__getitem__'
p43
S"<method-wrapper '__getitem__' of exceptions.SyntaxError object>"
p44
sS'__setstate__'
p45
S'<built-in method __setstate__ of exceptions.SyntaxError object>'
p46
sS'__getattribute__'
p47
S"<method-wrapper '__getattribute__' of exceptions.SyntaxError object>"
p48
sS'print_file_and_line'
p49
S'None'
p50
sS'args'
p51
S"('invalid syntax', ('/Users/Karl/code/web2py/applications/newsFeed/controllers/default.py', 2, 69, '    images = db().select(db.image.ALL, orderby=db.image.title) return dict(images=images)\\n'))"
p52
sS'__subclasshook__'
p53
S'<built-in method __subclasshook__ of type object>'
p54
sS'offset'
p55
S'69'
p56
sS'__unicode__'
p57
S'<built-in method __unicode__ of exceptions.SyntaxError object>'
p58
sS'__delattr__'
p59
S"<method-wrapper '__delattr__' of exceptions.SyntaxError object>"
p60
sS'__repr__'
p61
S"<method-wrapper '__repr__' of exceptions.SyntaxError object>"
p62
sS'__hash__'
p63
S"<method-wrapper '__hash__' of exceptions.SyntaxError object>"
p64
ssS'evalue'
p65
S'invalid syntax (default.py, line 2)'
p66
sS'request'
p67
ccopy_reg
_reconstructor
p68
(cgluon.html
BEAUTIFY
p69
c__builtin__
object
p70
NtRp71
(dp72
S'attributes'
p73
(dp74
sS'components'
p75
(lp76
g68
(cgluon.html
TABLE
p77
g70
NtRp78
(dp79
g73
(dp80
S'level'
p81
I5
ssS'parent'
p82
Nsg75
(lp83
g68
(cgluon.html
TR
p84
g70
NtRp85
(dp86
g73
(dp87
sg82
g78
sg75
(lp88
g68
(cgluon.html
TD
p89
g70
NtRp90
(dp91
g73
(dp92
S'_style'
p93
S'font-weight:bold;vertical-align:top'
p94
ssg82
g85
sg75
(lp95
S'ajax'
p96
asbag68
(g89
g70
NtRp97
(dp98
g73
(dp99
S'_valign'
p100
S'top'
p101
ssg82
g85
sg75
(lp102
S':'
asbag68
(g89
g70
NtRp103
(dp104
g73
(dp105
sg82
g85
sg75
(lp106
g68
(g69
g70
NtRp107
(dp108
g73
(dp109
g81
I5
ssg82
g103
sg75
(lp110
S'False'
p111
asbasbasbag68
(g84
g70
NtRp112
(dp113
g73
(dp114
sg82
g78
sg75
(lp115
g68
(g89
g70
NtRp116
(dp117
g73
(dp118
g93
g94
ssg82
g112
sg75
(lp119
S'application'
p120
asbag68
(g89
g70
NtRp121
(dp122
g73
(dp123
g100
g101
ssg82
g112
sg75
(lp124
S':'
asbag68
(g89
g70
NtRp125
(dp126
g73
(dp127
sg82
g112
sg75
(lp128
g68
(g69
g70
NtRp129
(dp130
g73
(dp131
g81
I5
ssg82
g125
sg75
(lp132
S'newsFeed'
p133
asbasbasbag68
(g84
g70
NtRp134
(dp135
g73
(dp136
sg82
g78
sg75
(lp137
g68
(g89
g70
NtRp138
(dp139
g73
(dp140
g93
g94
ssg82
g134
sg75
(lp141
g51
asbag68
(g89
g70
NtRp142
(dp143
g73
(dp144
g100
g101
ssg82
g134
sg75
(lp145
S':'
asbag68
(g89
g70
NtRp146
(dp147
g73
(dp148
sg82
g134
sg75
(lp149
g68
(g69
g70
NtRp150
(dp151
g73
(dp152
g81
I5
ssg82
g146
sg75
(lp153
g68
(g77
g70
NtRp154
(dp155
g73
(dp156
g81
I4
ssg82
Nsg75
(lp157
sbasbasbasbag68
(g84
g70
NtRp158
(dp159
g73
(dp160
sg82
g78
sg75
(lp161
g68
(g89
g70
NtRp162
(dp163
g73
(dp164
g93
g94
ssg82
g158
sg75
(lp165
S'body'
p166
asbag68
(g89
g70
NtRp167
(dp168
g73
(dp169
g100
g101
ssg82
g158
sg75
(lp170
S':'
asbag68
(g89
g70
NtRp171
(dp172
g73
(dp173
sg82
g158
sg75
(lp174
g68
(g69
g70
NtRp175
(dp176
g73
(dp177
g81
I5
ssg82
g171
sg75
(lp178
S'<cStringIO.StringO object at 0x1076fc228>'
p179
asbasbasbag68
(g84
g70
NtRp180
(dp181
g73
(dp182
sg82
g78
sg75
(lp183
g68
(g89
g70
NtRp184
(dp185
g73
(dp186
g93
g94
ssg82
g180
sg75
(lp187
S'cid'
p188
asbag68
(g89
g70
NtRp189
(dp190
g73
(dp191
g100
g101
ssg82
g180
sg75
(lp192
S':'
asbag68
(g89
g70
NtRp193
(dp194
g73
(dp195
sg82
g180
sg75
(lp196
g68
(g69
g70
NtRp197
(dp198
g73
(dp199
g81
I5
ssg82
g193
sg75
(lp200
S'None'
p201
asbasbasbag68
(g84
g70
NtRp202
(dp203
g73
(dp204
sg82
g78
sg75
(lp205
g68
(g89
g70
NtRp206
(dp207
g73
(dp208
g93
g94
ssg82
g202
sg75
(lp209
S'client'
p210
asbag68
(g89
g70
NtRp211
(dp212
g73
(dp213
g100
g101
ssg82
g202
sg75
(lp214
S':'
asbag68
(g89
g70
NtRp215
(dp216
g73
(dp217
sg82
g202
sg75
(lp218
g68
(g69
g70
NtRp219
(dp220
g73
(dp221
g81
I5
ssg82
g215
sg75
(lp222
S'127.0.0.1'
p223
asbasbasbag68
(g84
g70
NtRp224
(dp225
g73
(dp226
sg82
g78
sg75
(lp227
g68
(g89
g70
NtRp228
(dp229
g73
(dp230
g93
g94
ssg82
g224
sg75
(lp231
S'controller'
p232
asbag68
(g89
g70
NtRp233
(dp234
g73
(dp235
g100
g101
ssg82
g224
sg75
(lp236
S':'
asbag68
(g89
g70
NtRp237
(dp238
g73
(dp239
sg82
g224
sg75
(lp240
g68
(g69
g70
NtRp241
(dp242
g73
(dp243
g81
I5
ssg82
g237
sg75
(lp244
S'default'
p245
asbasbasbag68
(g84
g70
NtRp246
(dp247
g73
(dp248
sg82
g78
sg75
(lp249
g68
(g89
g70
NtRp250
(dp251
g73
(dp252
g93
g94
ssg82
g246
sg75
(lp253
S'cookies'
p254
asbag68
(g89
g70
NtRp255
(dp256
g73
(dp257
g100
g101
ssg82
g246
sg75
(lp258
S':'
asbag68
(g89
g70
NtRp259
(dp260
g73
(dp261
sg82
g246
sg75
(lp262
g68
(g69
g70
NtRp263
(dp264
g73
(dp265
g81
I5
ssg82
g259
sg75
(lp266
g68
(g77
g70
NtRp267
(dp268
g73
(dp269
g81
I4
ssg82
Nsg75
(lp270
g68
(g84
g70
NtRp271
(dp272
g73
(dp273
sg82
g267
sg75
(lp274
g68
(g89
g70
NtRp275
(dp276
g73
(dp277
g93
g94
ssg82
g271
sg75
(lp278
S'session_id_admin'
p279
asbag68
(g89
g70
NtRp280
(dp281
g73
(dp282
g100
g101
ssg82
g271
sg75
(lp283
S':'
asbag68
(g89
g70
NtRp284
(dp285
g73
(dp286
sg82
g271
sg75
(lp287
g68
(g69
g70
NtRp288
(dp289
g73
(dp290
g81
I4
ssg82
g284
sg75
(lp291
S'127.0.0.1-7bf5236b-8ca1-4e3e-a316-0858e3e6db30'
p292
ag68
(g77
g70
NtRp293
(dp294
g73
(dp295
g81
I3
ssg82
Nsg75
(lp296
g68
(g84
g70
NtRp297
(dp298
g73
(dp299
sg82
g293
sg75
(lp300
g68
(g89
g70
NtRp301
(dp302
g73
(dp303
g93
g94
ssg82
g297
sg75
(lp304
S'comment'
p305
asbag68
(g89
g70
NtRp306
(dp307
g73
(dp308
g100
g101
ssg82
g297
sg75
(lp309
S':'
asbag68
(g89
g70
NtRp310
(dp311
g73
(dp312
sg82
g297
sg75
(lp313
g68
(g69
g70
NtRp314
(dp315
g73
(dp316
g81
I3
ssg82
g310
sg75
(lp317
S''
asbasbasbag68
(g84
g70
NtRp318
(dp319
g73
(dp320
sg82
g293
sg75
(lp321
g68
(g89
g70
NtRp322
(dp323
g73
(dp324
g93
g94
ssg82
g318
sg75
(lp325
S'domain'
p326
asbag68
(g89
g70
NtRp327
(dp328
g73
(dp329
g100
g101
ssg82
g318
sg75
(lp330
S':'
asbag68
(g89
g70
NtRp331
(dp332
g73
(dp333
sg82
g318
sg75
(lp334
g68
(g69
g70
NtRp335
(dp336
g73
(dp337
g81
I3
ssg82
g331
sg75
(lp338
S''
asbasbasbag68
(g84
g70
NtRp339
(dp340
g73
(dp341
sg82
g293
sg75
(lp342
g68
(g89
g70
NtRp343
(dp344
g73
(dp345
g93
g94
ssg82
g339
sg75
(lp346
S'expires'
p347
asbag68
(g89
g70
NtRp348
(dp349
g73
(dp350
g100
g101
ssg82
g339
sg75
(lp351
S':'
asbag68
(g89
g70
NtRp352
(dp353
g73
(dp354
sg82
g339
sg75
(lp355
g68
(g69
g70
NtRp356
(dp357
g73
(dp358
g81
I3
ssg82
g352
sg75
(lp359
S''
asbasbasbag68
(g84
g70
NtRp360
(dp361
g73
(dp362
sg82
g293
sg75
(lp363
g68
(g89
g70
NtRp364
(dp365
g73
(dp366
g93
g94
ssg82
g360
sg75
(lp367
S'httponly'
p368
asbag68
(g89
g70
NtRp369
(dp370
g73
(dp371
g100
g101
ssg82
g360
sg75
(lp372
S':'
asbag68
(g89
g70
NtRp373
(dp374
g73
(dp375
sg82
g360
sg75
(lp376
g68
(g69
g70
NtRp377
(dp378
g73
(dp379
g81
I3
ssg82
g373
sg75
(lp380
S''
asbasbasbag68
(g84
g70
NtRp381
(dp382
g73
(dp383
sg82
g293
sg75
(lp384
g68
(g89
g70
NtRp385
(dp386
g73
(dp387
g93
g94
ssg82
g381
sg75
(lp388
S'max-age'
p389
asbag68
(g89
g70
NtRp390
(dp391
g73
(dp392
g100
g101
ssg82
g381
sg75
(lp393
S':'
asbag68
(g89
g70
NtRp394
(dp395
g73
(dp396
sg82
g381
sg75
(lp397
g68
(g69
g70
NtRp398
(dp399
g73
(dp400
g81
I3
ssg82
g394
sg75
(lp401
S''
asbasbasbag68
(g84
g70
NtRp402
(dp403
g73
(dp404
sg82
g293
sg75
(lp405
g68
(g89
g70
NtRp406
(dp407
g73
(dp408
g93
g94
ssg82
g402
sg75
(lp409
S'path'
p410
asbag68
(g89
g70
NtRp411
(dp412
g73
(dp413
g100
g101
ssg82
g402
sg75
(lp414
S':'
asbag68
(g89
g70
NtRp415
(dp416
g73
(dp417
sg82
g402
sg75
(lp418
g68
(g69
g70
NtRp419
(dp420
g73
(dp421
g81
I3
ssg82
g415
sg75
(lp422
S''
asbasbasbag68
(g84
g70
NtRp423
(dp424
g73
(dp425
sg82
g293
sg75
(lp426
g68
(g89
g70
NtRp427
(dp428
g73
(dp429
g93
g94
ssg82
g423
sg75
(lp430
S'secure'
p431
asbag68
(g89
g70
NtRp432
(dp433
g73
(dp434
g100
g101
ssg82
g423
sg75
(lp435
S':'
asbag68
(g89
g70
NtRp436
(dp437
g73
(dp438
sg82
g423
sg75
(lp439
g68
(g69
g70
NtRp440
(dp441
g73
(dp442
g81
I3
ssg82
g436
sg75
(lp443
S''
asbasbasbag68
(g84
g70
NtRp444
(dp445
g73
(dp446
sg82
g293
sg75
(lp447
g68
(g89
g70
NtRp448
(dp449
g73
(dp450
g93
g94
ssg82
g444
sg75
(lp451
S'version'
p452
asbag68
(g89
g70
NtRp453
(dp454
g73
(dp455
g100
g101
ssg82
g444
sg75
(lp456
S':'
asbag68
(g89
g70
NtRp457
(dp458
g73
(dp459
sg82
g444
sg75
(lp460
g68
(g69
g70
NtRp461
(dp462
g73
(dp463
g81
I3
ssg82
g457
sg75
(lp464
S''
asbasbasbasbasbasbasbag68
(g84
g70
NtRp465
(dp466
g73
(dp467
sg82
g267
sg75
(lp468
g68
(g89
g70
NtRp469
(dp470
g73
(dp471
g93
g94
ssg82
g465
sg75
(lp472
S'session_id_newsfeed'
p473
asbag68
(g89
g70
NtRp474
(dp475
g73
(dp476
g100
g101
ssg82
g465
sg75
(lp477
S':'
asbag68
(g89
g70
NtRp478
(dp479
g73
(dp480
sg82
g465
sg75
(lp481
g68
(g69
g70
NtRp482
(dp483
g73
(dp484
g81
I4
ssg82
g478
sg75
(lp485
S'127.0.0.1-cf681d17-4d34-47c3-b25e-cb18b12cf401'
p486
ag68
(g77
g70
NtRp487
(dp488
g73
(dp489
g81
I3
ssg82
Nsg75
(lp490
g68
(g84
g70
NtRp491
(dp492
g73
(dp493
sg82
g487
sg75
(lp494
g68
(g89
g70
NtRp495
(dp496
g73
(dp497
g93
g94
ssg82
g491
sg75
(lp498
g305
asbag68
(g89
g70
NtRp499
(dp500
g73
(dp501
g100
g101
ssg82
g491
sg75
(lp502
S':'
asbag68
(g89
g70
NtRp503
(dp504
g73
(dp505
sg82
g491
sg75
(lp506
g68
(g69
g70
NtRp507
(dp508
g73
(dp509
g81
I3
ssg82
g503
sg75
(lp510
S''
asbasbasbag68
(g84
g70
NtRp511
(dp512
g73
(dp513
sg82
g487
sg75
(lp514
g68
(g89
g70
NtRp515
(dp516
g73
(dp517
g93
g94
ssg82
g511
sg75
(lp518
g326
asbag68
(g89
g70
NtRp519
(dp520
g73
(dp521
g100
g101
ssg82
g511
sg75
(lp522
S':'
asbag68
(g89
g70
NtRp523
(dp524
g73
(dp525
sg82
g511
sg75
(lp526
g68
(g69
g70
NtRp527
(dp528
g73
(dp529
g81
I3
ssg82
g523
sg75
(lp530
S''
asbasbasbag68
(g84
g70
NtRp531
(dp532
g73
(dp533
sg82
g487
sg75
(lp534
g68
(g89
g70
NtRp535
(dp536
g73
(dp537
g93
g94
ssg82
g531
sg75
(lp538
g347
asbag68
(g89
g70
NtRp539
(dp540
g73
(dp541
g100
g101
ssg82
g531
sg75
(lp542
S':'
asbag68
(g89
g70
NtRp543
(dp544
g73
(dp545
sg82
g531
sg75
(lp546
g68
(g69
g70
NtRp547
(dp548
g73
(dp549
g81
I3
ssg82
g543
sg75
(lp550
S''
asbasbasbag68
(g84
g70
NtRp551
(dp552
g73
(dp553
sg82
g487
sg75
(lp554
g68
(g89
g70
NtRp555
(dp556
g73
(dp557
g93
g94
ssg82
g551
sg75
(lp558
g368
asbag68
(g89
g70
NtRp559
(dp560
g73
(dp561
g100
g101
ssg82
g551
sg75
(lp562
S':'
asbag68
(g89
g70
NtRp563
(dp564
g73
(dp565
sg82
g551
sg75
(lp566
g68
(g69
g70
NtRp567
(dp568
g73
(dp569
g81
I3
ssg82
g563
sg75
(lp570
S''
asbasbasbag68
(g84
g70
NtRp571
(dp572
g73
(dp573
sg82
g487
sg75
(lp574
g68
(g89
g70
NtRp575
(dp576
g73
(dp577
g93
g94
ssg82
g571
sg75
(lp578
g389
asbag68
(g89
g70
NtRp579
(dp580
g73
(dp581
g100
g101
ssg82
g571
sg75
(lp582
S':'
asbag68
(g89
g70
NtRp583
(dp584
g73
(dp585
sg82
g571
sg75
(lp586
g68
(g69
g70
NtRp587
(dp588
g73
(dp589
g81
I3
ssg82
g583
sg75
(lp590
S''
asbasbasbag68
(g84
g70
NtRp591
(dp592
g73
(dp593
sg82
g487
sg75
(lp594
g68
(g89
g70
NtRp595
(dp596
g73
(dp597
g93
g94
ssg82
g591
sg75
(lp598
g410
asbag68
(g89
g70
NtRp599
(dp600
g73
(dp601
g100
g101
ssg82
g591
sg75
(lp602
S':'
asbag68
(g89
g70
NtRp603
(dp604
g73
(dp605
sg82
g591
sg75
(lp606
g68
(g69
g70
NtRp607
(dp608
g73
(dp609
g81
I3
ssg82
g603
sg75
(lp610
S''
asbasbasbag68
(g84
g70
NtRp611
(dp612
g73
(dp613
sg82
g487
sg75
(lp614
g68
(g89
g70
NtRp615
(dp616
g73
(dp617
g93
g94
ssg82
g611
sg75
(lp618
g431
asbag68
(g89
g70
NtRp619
(dp620
g73
(dp621
g100
g101
ssg82
g611
sg75
(lp622
S':'
asbag68
(g89
g70
NtRp623
(dp624
g73
(dp625
sg82
g611
sg75
(lp626
g68
(g69
g70
NtRp627
(dp628
g73
(dp629
g81
I3
ssg82
g623
sg75
(lp630
S''
asbasbasbag68
(g84
g70
NtRp631
(dp632
g73
(dp633
sg82
g487
sg75
(lp634
g68
(g89
g70
NtRp635
(dp636
g73
(dp637
g93
g94
ssg82
g631
sg75
(lp638
g452
asbag68
(g89
g70
NtRp639
(dp640
g73
(dp641
g100
g101
ssg82
g631
sg75
(lp642
S':'
asbag68
(g89
g70
NtRp643
(dp644
g73
(dp645
sg82
g631
sg75
(lp646
g68
(g69
g70
NtRp647
(dp648
g73
(dp649
g81
I3
ssg82
g643
sg75
(lp650
S''
asbasbasbasbasbasbasbag68
(g84
g70
NtRp651
(dp652
g73
(dp653
sg82
g267
sg75
(lp654
g68
(g89
g70
NtRp655
(dp656
g73
(dp657
g93
g94
ssg82
g651
sg75
(lp658
S'session_id_textentries'
p659
asbag68
(g89
g70
NtRp660
(dp661
g73
(dp662
g100
g101
ssg82
g651
sg75
(lp663
S':'
asbag68
(g89
g70
NtRp664
(dp665
g73
(dp666
sg82
g651
sg75
(lp667
g68
(g69
g70
NtRp668
(dp669
g73
(dp670
g81
I4
ssg82
g664
sg75
(lp671
S'127.0.0.1-74aec935-c7d0-4514-a6ce-84e446edd182'
p672
ag68
(g77
g70
NtRp673
(dp674
g73
(dp675
g81
I3
ssg82
Nsg75
(lp676
g68
(g84
g70
NtRp677
(dp678
g73
(dp679
sg82
g673
sg75
(lp680
g68
(g89
g70
NtRp681
(dp682
g73
(dp683
g93
g94
ssg82
g677
sg75
(lp684
g305
asbag68
(g89
g70
NtRp685
(dp686
g73
(dp687
g100
g101
ssg82
g677
sg75
(lp688
S':'
asbag68
(g89
g70
NtRp689
(dp690
g73
(dp691
sg82
g677
sg75
(lp692
g68
(g69
g70
NtRp693
(dp694
g73
(dp695
g81
I3
ssg82
g689
sg75
(lp696
S''
asbasbasbag68
(g84
g70
NtRp697
(dp698
g73
(dp699
sg82
g673
sg75
(lp700
g68
(g89
g70
NtRp701
(dp702
g73
(dp703
g93
g94
ssg82
g697
sg75
(lp704
g326
asbag68
(g89
g70
NtRp705
(dp706
g73
(dp707
g100
g101
ssg82
g697
sg75
(lp708
S':'
asbag68
(g89
g70
NtRp709
(dp710
g73
(dp711
sg82
g697
sg75
(lp712
g68
(g69
g70
NtRp713
(dp714
g73
(dp715
g81
I3
ssg82
g709
sg75
(lp716
S''
asbasbasbag68
(g84
g70
NtRp717
(dp718
g73
(dp719
sg82
g673
sg75
(lp720
g68
(g89
g70
NtRp721
(dp722
g73
(dp723
g93
g94
ssg82
g717
sg75
(lp724
g347
asbag68
(g89
g70
NtRp725
(dp726
g73
(dp727
g100
g101
ssg82
g717
sg75
(lp728
S':'
asbag68
(g89
g70
NtRp729
(dp730
g73
(dp731
sg82
g717
sg75
(lp732
g68
(g69
g70
NtRp733
(dp734
g73
(dp735
g81
I3
ssg82
g729
sg75
(lp736
S''
asbasbasbag68
(g84
g70
NtRp737
(dp738
g73
(dp739
sg82
g673
sg75
(lp740
g68
(g89
g70
NtRp741
(dp742
g73
(dp743
g93
g94
ssg82
g737
sg75
(lp744
g368
asbag68
(g89
g70
NtRp745
(dp746
g73
(dp747
g100
g101
ssg82
g737
sg75
(lp748
S':'
asbag68
(g89
g70
NtRp749
(dp750
g73
(dp751
sg82
g737
sg75
(lp752
g68
(g69
g70
NtRp753
(dp754
g73
(dp755
g81
I3
ssg82
g749
sg75
(lp756
S''
asbasbasbag68
(g84
g70
NtRp757
(dp758
g73
(dp759
sg82
g673
sg75
(lp760
g68
(g89
g70
NtRp761
(dp762
g73
(dp763
g93
g94
ssg82
g757
sg75
(lp764
g389
asbag68
(g89
g70
NtRp765
(dp766
g73
(dp767
g100
g101
ssg82
g757
sg75
(lp768
S':'
asbag68
(g89
g70
NtRp769
(dp770
g73
(dp771
sg82
g757
sg75
(lp772
g68
(g69
g70
NtRp773
(dp774
g73
(dp775
g81
I3
ssg82
g769
sg75
(lp776
S''
asbasbasbag68
(g84
g70
NtRp777
(dp778
g73
(dp779
sg82
g673
sg75
(lp780
g68
(g89
g70
NtRp781
(dp782
g73
(dp783
g93
g94
ssg82
g777
sg75
(lp784
g410
asbag68
(g89
g70
NtRp785
(dp786
g73
(dp787
g100
g101
ssg82
g777
sg75
(lp788
S':'
asbag68
(g89
g70
NtRp789
(dp790
g73
(dp791
sg82
g777
sg75
(lp792
g68
(g69
g70
NtRp793
(dp794
g73
(dp795
g81
I3
ssg82
g789
sg75
(lp796
S''
asbasbasbag68
(g84
g70
NtRp797
(dp798
g73
(dp799
sg82
g673
sg75
(lp800
g68
(g89
g70
NtRp801
(dp802
g73
(dp803
g93
g94
ssg82
g797
sg75
(lp804
g431
asbag68
(g89
g70
NtRp805
(dp806
g73
(dp807
g100
g101
ssg82
g797
sg75
(lp808
S':'
asbag68
(g89
g70
NtRp809
(dp810
g73
(dp811
sg82
g797
sg75
(lp812
g68
(g69
g70
NtRp813
(dp814
g73
(dp815
g81
I3
ssg82
g809
sg75
(lp816
S''
asbasbasbag68
(g84
g70
NtRp817
(dp818
g73
(dp819
sg82
g673
sg75
(lp820
g68
(g89
g70
NtRp821
(dp822
g73
(dp823
g93
g94
ssg82
g817
sg75
(lp824
g452
asbag68
(g89
g70
NtRp825
(dp826
g73
(dp827
g100
g101
ssg82
g817
sg75
(lp828
S':'
asbag68
(g89
g70
NtRp829
(dp830
g73
(dp831
sg82
g817
sg75
(lp832
g68
(g69
g70
NtRp833
(dp834
g73
(dp835
g81
I3
ssg82
g829
sg75
(lp836
S''
asbasbasbasbasbasbasbag68
(g84
g70
NtRp837
(dp838
g73
(dp839
sg82
g267
sg75
(lp840
g68
(g89
g70
NtRp841
(dp842
g73
(dp843
g93
g94
ssg82
g837
sg75
(lp844
S'session_id_welcome'
p845
asbag68
(g89
g70
NtRp846
(dp847
g73
(dp848
g100
g101
ssg82
g837
sg75
(lp849
S':'
asbag68
(g89
g70
NtRp850
(dp851
g73
(dp852
sg82
g837
sg75
(lp853
g68
(g69
g70
NtRp854
(dp855
g73
(dp856
g81
I4
ssg82
g850
sg75
(lp857
S'127.0.0.1-c9d00889-6dea-42d9-8854-eed4cc7ca179'
p858
ag68
(g77
g70
NtRp859
(dp860
g73
(dp861
g81
I3
ssg82
Nsg75
(lp862
g68
(g84
g70
NtRp863
(dp864
g73
(dp865
sg82
g859
sg75
(lp866
g68
(g89
g70
NtRp867
(dp868
g73
(dp869
g93
g94
ssg82
g863
sg75
(lp870
g305
asbag68
(g89
g70
NtRp871
(dp872
g73
(dp873
g100
g101
ssg82
g863
sg75
(lp874
S':'
asbag68
(g89
g70
NtRp875
(dp876
g73
(dp877
sg82
g863
sg75
(lp878
g68
(g69
g70
NtRp879
(dp880
g73
(dp881
g81
I3
ssg82
g875
sg75
(lp882
S''
asbasbasbag68
(g84
g70
NtRp883
(dp884
g73
(dp885
sg82
g859
sg75
(lp886
g68
(g89
g70
NtRp887
(dp888
g73
(dp889
g93
g94
ssg82
g883
sg75
(lp890
g326
asbag68
(g89
g70
NtRp891
(dp892
g73
(dp893
g100
g101
ssg82
g883
sg75
(lp894
S':'
asbag68
(g89
g70
NtRp895
(dp896
g73
(dp897
sg82
g883
sg75
(lp898
g68
(g69
g70
NtRp899
(dp900
g73
(dp901
g81
I3
ssg82
g895
sg75
(lp902
S''
asbasbasbag68
(g84
g70
NtRp903
(dp904
g73
(dp905
sg82
g859
sg75
(lp906
g68
(g89
g70
NtRp907
(dp908
g73
(dp909
g93
g94
ssg82
g903
sg75
(lp910
g347
asbag68
(g89
g70
NtRp911
(dp912
g73
(dp913
g100
g101
ssg82
g903
sg75
(lp914
S':'
asbag68
(g89
g70
NtRp915
(dp916
g73
(dp917
sg82
g903
sg75
(lp918
g68
(g69
g70
NtRp919
(dp920
g73
(dp921
g81
I3
ssg82
g915
sg75
(lp922
S''
asbasbasbag68
(g84
g70
NtRp923
(dp924
g73
(dp925
sg82
g859
sg75
(lp926
g68
(g89
g70
NtRp927
(dp928
g73
(dp929
g93
g94
ssg82
g923
sg75
(lp930
g368
asbag68
(g89
g70
NtRp931
(dp932
g73
(dp933
g100
g101
ssg82
g923
sg75
(lp934
S':'
asbag68
(g89
g70
NtRp935
(dp936
g73
(dp937
sg82
g923
sg75
(lp938
g68
(g69
g70
NtRp939
(dp940
g73
(dp941
g81
I3
ssg82
g935
sg75
(lp942
S''
asbasbasbag68
(g84
g70
NtRp943
(dp944
g73
(dp945
sg82
g859
sg75
(lp946
g68
(g89
g70
NtRp947
(dp948
g73
(dp949
g93
g94
ssg82
g943
sg75
(lp950
g389
asbag68
(g89
g70
NtRp951
(dp952
g73
(dp953
g100
g101
ssg82
g943
sg75
(lp954
S':'
asbag68
(g89
g70
NtRp955
(dp956
g73
(dp957
sg82
g943
sg75
(lp958
g68
(g69
g70
NtRp959
(dp960
g73
(dp961
g81
I3
ssg82
g955
sg75
(lp962
S''
asbasbasbag68
(g84
g70
NtRp963
(dp964
g73
(dp965
sg82
g859
sg75
(lp966
g68
(g89
g70
NtRp967
(dp968
g73
(dp969
g93
g94
ssg82
g963
sg75
(lp970
g410
asbag68
(g89
g70
NtRp971
(dp972
g73
(dp973
g100
g101
ssg82
g963
sg75
(lp974
S':'
asbag68
(g89
g70
NtRp975
(dp976
g73
(dp977
sg82
g963
sg75
(lp978
g68
(g69
g70
NtRp979
(dp980
g73
(dp981
g81
I3
ssg82
g975
sg75
(lp982
S''
asbasbasbag68
(g84
g70
NtRp983
(dp984
g73
(dp985
sg82
g859
sg75
(lp986
g68
(g89
g70
NtRp987
(dp988
g73
(dp989
g93
g94
ssg82
g983
sg75
(lp990
g431
asbag68
(g89
g70
NtRp991
(dp992
g73
(dp993
g100
g101
ssg82
g983
sg75
(lp994
S':'
asbag68
(g89
g70
NtRp995
(dp996
g73
(dp997
sg82
g983
sg75
(lp998
g68
(g69
g70
NtRp999
(dp1000
g73
(dp1001
g81
I3
ssg82
g995
sg75
(lp1002
S''
asbasbasbag68
(g84
g70
NtRp1003
(dp1004
g73
(dp1005
sg82
g859
sg75
(lp1006
g68
(g89
g70
NtRp1007
(dp1008
g73
(dp1009
g93
g94
ssg82
g1003
sg75
(lp1010
g452
asbag68
(g89
g70
NtRp1011
(dp1012
g73
(dp1013
g100
g101
ssg82
g1003
sg75
(lp1014
S':'
asbag68
(g89
g70
NtRp1015
(dp1016
g73
(dp1017
sg82
g1003
sg75
(lp1018
g68
(g69
g70
NtRp1019
(dp1020
g73
(dp1021
g81
I3
ssg82
g1015
sg75
(lp1022
S''
asbasbasbasbasbasbasbasbasbasbasbag68
(g84
g70
NtRp1023
(dp1024
g73
(dp1025
sg82
g78
sg75
(lp1026
g68
(g89
g70
NtRp1027
(dp1028
g73
(dp1029
g93
g94
ssg82
g1023
sg75
(lp1030
S'env'
p1031
asbag68
(g89
g70
NtRp1032
(dp1033
g73
(dp1034
g100
g101
ssg82
g1023
sg75
(lp1035
S':'
asbag68
(g89
g70
NtRp1036
(dp1037
g73
(dp1038
sg82
g1023
sg75
(lp1039
g68
(g69
g70
NtRp1040
(dp1041
g73
(dp1042
g81
I5
ssg82
g1036
sg75
(lp1043
g68
(g77
g70
NtRp1044
(dp1045
g73
(dp1046
g81
I4
ssg82
Nsg75
(lp1047
g68
(g84
g70
NtRp1048
(dp1049
g73
(dp1050
sg82
g1044
sg75
(lp1051
g68
(g89
g70
NtRp1052
(dp1053
g73
(dp1054
g93
g94
ssg82
g1048
sg75
(lp1055
S'app_folders'
p1056
asbag68
(g89
g70
NtRp1057
(dp1058
g73
(dp1059
g100
g101
ssg82
g1048
sg75
(lp1060
S':'
asbag68
(g89
g70
NtRp1061
(dp1062
g73
(dp1063
sg82
g1048
sg75
(lp1064
g68
(g69
g70
NtRp1065
(dp1066
g73
(dp1067
g81
I4
ssg82
g1061
sg75
(lp1068
S"set(['/Users/Karl/code/web2py/applications/newsFeed/', '/Users/Karl/code/web2py/applications/admin/', '/Users/Karl/code/web2py/applications/welcome/'])"
p1069
asbasbasbag68
(g84
g70
NtRp1070
(dp1071
g73
(dp1072
sg82
g1044
sg75
(lp1073
g68
(g89
g70
NtRp1074
(dp1075
g73
(dp1076
g93
g94
ssg82
g1070
sg75
(lp1077
S'applications_parent'
p1078
asbag68
(g89
g70
NtRp1079
(dp1080
g73
(dp1081
g100
g101
ssg82
g1070
sg75
(lp1082
S':'
asbag68
(g89
g70
NtRp1083
(dp1084
g73
(dp1085
sg82
g1070
sg75
(lp1086
g68
(g69
g70
NtRp1087
(dp1088
g73
(dp1089
g81
I4
ssg82
g1083
sg75
(lp1090
S'/Users/Karl/code/web2py'
p1091
asbasbasbag68
(g84
g70
NtRp1092
(dp1093
g73
(dp1094
sg82
g1044
sg75
(lp1095
g68
(g89
g70
NtRp1096
(dp1097
g73
(dp1098
g93
g94
ssg82
g1092
sg75
(lp1099
S'cmd_args'
p1100
asbag68
(g89
g70
NtRp1101
(dp1102
g73
(dp1103
g100
g101
ssg82
g1092
sg75
(lp1104
S':'
asbag68
(g89
g70
NtRp1105
(dp1106
g73
(dp1107
sg82
g1092
sg75
(lp1108
g68
(g69
g70
NtRp1109
(dp1110
g73
(dp1111
g81
I4
ssg82
g1105
sg75
(lp1112
g68
(g77
g70
NtRp1113
(dp1114
g73
(dp1115
g81
I3
ssg82
Nsg75
(lp1116
sbasbasbasbag68
(g84
g70
NtRp1117
(dp1118
g73
(dp1119
sg82
g1044
sg75
(lp1120
g68
(g89
g70
NtRp1121
(dp1122
g73
(dp1123
g93
g94
ssg82
g1117
sg75
(lp1124
S'cmd_options'
p1125
asbag68
(g89
g70
NtRp1126
(dp1127
g73
(dp1128
g100
g101
ssg82
g1117
sg75
(lp1129
S':'
asbag68
(g89
g70
NtRp1130
(dp1131
g73
(dp1132
sg82
g1117
sg75
(lp1133
g68
(g69
g70
NtRp1134
(dp1135
g73
(dp1136
g81
I4
ssg82
g1130
sg75
(lp1137
S"<Values at 0x101caf200: {'verbose': False, 'ip': '127.0.0.1', 'with_scheduler': False, 'ips': ['172.25.51.201'], 'shutdown_timeout': 5, 'taskbar': False, 'port': 8000, 'maxthreads': None, 'softcron': False, 'server_name': 'Karls-MacBook-Pro.local', 'bpython': False, 'nogui': False, 'nocron': False, 'extcron': False, 'run_system_tests': False, 'test': None, 'folder': '/Users/Karl/code/web2py', 'config': '', 'import_models': False, 'winservice': '', 'shell': None, 'run': '', 'log_filename': 'httpserver.log', 'debuglevel': 30, 'args': [''], 'socket_timeout': 5, 'ssl_ca_certificate': None, 'scheduler': None, 'profiler_filename': None, 'ssl_private_key': '', 'scheduler_groups': None, 'password': '<ask>', 'request_queue_size': 5, 'ssl_certificate': '', 'cronjob': False, 'numthreads': None, 'quiet': False, 'interfaces': None, 'minthreads': None, 'timeout': 10, 'plain': False, 'nobanner': False, 'pid_filename': 'httpserver.pid'}>"
p1138
asbasbasbag68
(g84
g70
NtRp1139
(dp1140
g73
(dp1141
sg82
g1044
sg75
(lp1142
g68
(g89
g70
NtRp1143
(dp1144
g73
(dp1145
g93
g94
ssg82
g1139
sg75
(lp1146
S'db_sessions'
p1147
asbag68
(g89
g70
NtRp1148
(dp1149
g73
(dp1150
g100
g101
ssg82
g1139
sg75
(lp1151
S':'
asbag68
(g89
g70
NtRp1152
(dp1153
g73
(dp1154
sg82
g1139
sg75
(lp1155
g68
(g69
g70
NtRp1156
(dp1157
g73
(dp1158
g81
I4
ssg82
g1152
sg75
(lp1159
S'set([])'
p1160
asbasbasbag68
(g84
g70
NtRp1161
(dp1162
g73
(dp1163
sg82
g1044
sg75
(lp1164
g68
(g89
g70
NtRp1165
(dp1166
g73
(dp1167
g93
g94
ssg82
g1161
sg75
(lp1168
S'debugging'
p1169
asbag68
(g89
g70
NtRp1170
(dp1171
g73
(dp1172
g100
g101
ssg82
g1161
sg75
(lp1173
S':'
asbag68
(g89
g70
NtRp1174
(dp1175
g73
(dp1176
sg82
g1161
sg75
(lp1177
g68
(g69
g70
NtRp1178
(dp1179
g73
(dp1180
g81
I4
ssg82
g1174
sg75
(lp1181
g111
asbasbasbag68
(g84
g70
NtRp1182
(dp1183
g73
(dp1184
sg82
g1044
sg75
(lp1185
g68
(g89
g70
NtRp1186
(dp1187
g73
(dp1188
g93
g94
ssg82
g1182
sg75
(lp1189
S'gluon_parent'
p1190
asbag68
(g89
g70
NtRp1191
(dp1192
g73
(dp1193
g100
g101
ssg82
g1182
sg75
(lp1194
S':'
asbag68
(g89
g70
NtRp1195
(dp1196
g73
(dp1197
sg82
g1182
sg75
(lp1198
g68
(g69
g70
NtRp1199
(dp1200
g73
(dp1201
g81
I4
ssg82
g1195
sg75
(lp1202
S'/Users/Karl/code/web2py'
p1203
asbasbasbag68
(g84
g70
NtRp1204
(dp1205
g73
(dp1206
sg82
g1044
sg75
(lp1207
g68
(g89
g70
NtRp1208
(dp1209
g73
(dp1210
g93
g94
ssg82
g1204
sg75
(lp1211
S'http_accept'
p1212
asbag68
(g89
g70
NtRp1213
(dp1214
g73
(dp1215
g100
g101
ssg82
g1204
sg75
(lp1216
S':'
asbag68
(g89
g70
NtRp1217
(dp1218
g73
(dp1219
sg82
g1204
sg75
(lp1220
g68
(g69
g70
NtRp1221
(dp1222
g73
(dp1223
g81
I4
ssg82
g1217
sg75
(lp1224
S'text/html,application/xhtml+xml,application/xml;q=0.9,*/*;q=0.8'
p1225
asbasbasbag68
(g84
g70
NtRp1226
(dp1227
g73
(dp1228
sg82
g1044
sg75
(lp1229
g68
(g89
g70
NtRp1230
(dp1231
g73
(dp1232
g93
g94
ssg82
g1226
sg75
(lp1233
S'http_accept_encoding'
p1234
asbag68
(g89
g70
NtRp1235
(dp1236
g73
(dp1237
g100
g101
ssg82
g1226
sg75
(lp1238
S':'
asbag68
(g89
g70
NtRp1239
(dp1240
g73
(dp1241
sg82
g1226
sg75
(lp1242
g68
(g69
g70
NtRp1243
(dp1244
g73
(dp1245
g81
I4
ssg82
g1239
sg75
(lp1246
S'gzip, deflate'
p1247
asbasbasbag68
(g84
g70
NtRp1248
(dp1249
g73
(dp1250
sg82
g1044
sg75
(lp1251
g68
(g89
g70
NtRp1252
(dp1253
g73
(dp1254
g93
g94
ssg82
g1248
sg75
(lp1255
S'http_accept_language'
p1256
asbag68
(g89
g70
NtRp1257
(dp1258
g73
(dp1259
g100
g101
ssg82
g1248
sg75
(lp1260
S':'
asbag68
(g89
g70
NtRp1261
(dp1262
g73
(dp1263
sg82
g1248
sg75
(lp1264
g68
(g69
g70
NtRp1265
(dp1266
g73
(dp1267
g81
I4
ssg82
g1261
sg75
(lp1268
S'en-us'
p1269
asbasbasbag68
(g84
g70
NtRp1270
(dp1271
g73
(dp1272
sg82
g1044
sg75
(lp1273
g68
(g89
g70
NtRp1274
(dp1275
g73
(dp1276
g93
g94
ssg82
g1270
sg75
(lp1277
S'http_connection'
p1278
asbag68
(g89
g70
NtRp1279
(dp1280
g73
(dp1281
g100
g101
ssg82
g1270
sg75
(lp1282
S':'
asbag68
(g89
g70
NtRp1283
(dp1284
g73
(dp1285
sg82
g1270
sg75
(lp1286
g68
(g69
g70
NtRp1287
(dp1288
g73
(dp1289
g81
I4
ssg82
g1283
sg75
(lp1290
S'keep-alive'
p1291
asbasbasbag68
(g84
g70
NtRp1292
(dp1293
g73
(dp1294
sg82
g1044
sg75
(lp1295
g68
(g89
g70
NtRp1296
(dp1297
g73
(dp1298
g93
g94
ssg82
g1292
sg75
(lp1299
S'http_cookie'
p1300
asbag68
(g89
g70
NtRp1301
(dp1302
g73
(dp1303
g100
g101
ssg82
g1292
sg75
(lp1304
S':'
asbag68
(g89
g70
NtRp1305
(dp1306
g73
(dp1307
sg82
g1292
sg75
(lp1308
g68
(g69
g70
NtRp1309
(dp1310
g73
(dp1311
g81
I4
ssg82
g1305
sg75
(lp1312
S'session_id_newsfeed=127.0.0.1-cf681d17-4d34-47c3-b25e-cb18b12cf401; session_id_admin=127.0.0.1-7bf5236b-8ca1-4e3e-a316-0858e3e6db30; session_id_welcome=127.0.0.1-c9d00889-6dea-42d9-8854-eed4cc7ca179; session_id_textentries=127.0.0.1-74aec935-c7d0-4514-a6ce-84e446edd182'
p1313
asbasbasbag68
(g84
g70
NtRp1314
(dp1315
g73
(dp1316
sg82
g1044
sg75
(lp1317
g68
(g89
g70
NtRp1318
(dp1319
g73
(dp1320
g93
g94
ssg82
g1314
sg75
(lp1321
S'http_host'
p1322
asbag68
(g89
g70
NtRp1323
(dp1324
g73
(dp1325
g100
g101
ssg82
g1314
sg75
(lp1326
S':'
asbag68
(g89
g70
NtRp1327
(dp1328
g73
(dp1329
sg82
g1314
sg75
(lp1330
g68
(g69
g70
NtRp1331
(dp1332
g73
(dp1333
g81
I4
ssg82
g1327
sg75
(lp1334
S'127.0.0.1:8000'
p1335
asbasbasbag68
(g84
g70
NtRp1336
(dp1337
g73
(dp1338
sg82
g1044
sg75
(lp1339
g68
(g89
g70
NtRp1340
(dp1341
g73
(dp1342
g93
g94
ssg82
g1336
sg75
(lp1343
S'http_user_agent'
p1344
asbag68
(g89
g70
NtRp1345
(dp1346
g73
(dp1347
g100
g101
ssg82
g1336
sg75
(lp1348
S':'
asbag68
(g89
g70
NtRp1349
(dp1350
g73
(dp1351
sg82
g1336
sg75
(lp1352
g68
(g69
g70
NtRp1353
(dp1354
g73
(dp1355
g81
I4
ssg82
g1349
sg75
(lp1356
S'Mozilla/5.0 (Macintosh; Intel Mac OS X 10_8_2) AppleWebKit/536.26.14 (KHTML, like Gecko) Version/6.0.1 Safari/536.26.14'
p1357
asbasbasbag68
(g84
g70
NtRp1358
(dp1359
g73
(dp1360
sg82
g1044
sg75
(lp1361
g68
(g89
g70
NtRp1362
(dp1363
g73
(dp1364
g93
g94
ssg82
g1358
sg75
(lp1365
S'is_jython'
p1366
asbag68
(g89
g70
NtRp1367
(dp1368
g73
(dp1369
g100
g101
ssg82
g1358
sg75
(lp1370
S':'
asbag68
(g89
g70
NtRp1371
(dp1372
g73
(dp1373
sg82
g1358
sg75
(lp1374
g68
(g69
g70
NtRp1375
(dp1376
g73
(dp1377
g81
I4
ssg82
g1371
sg75
(lp1378
g111
asbasbasbag68
(g84
g70
NtRp1379
(dp1380
g73
(dp1381
sg82
g1044
sg75
(lp1382
g68
(g89
g70
NtRp1383
(dp1384
g73
(dp1385
g93
g94
ssg82
g1379
sg75
(lp1386
S'is_pypy'
p1387
asbag68
(g89
g70
NtRp1388
(dp1389
g73
(dp1390
g100
g101
ssg82
g1379
sg75
(lp1391
S':'
asbag68
(g89
g70
NtRp1392
(dp1393
g73
(dp1394
sg82
g1379
sg75
(lp1395
g68
(g69
g70
NtRp1396
(dp1397
g73
(dp1398
g81
I4
ssg82
g1392
sg75
(lp1399
g111
asbasbasbag68
(g84
g70
NtRp1400
(dp1401
g73
(dp1402
sg82
g1044
sg75
(lp1403
g68
(g89
g70
NtRp1404
(dp1405
g73
(dp1406
g93
g94
ssg82
g1400
sg75
(lp1407
S'path_info'
p1408
asbag68
(g89
g70
NtRp1409
(dp1410
g73
(dp1411
g100
g101
ssg82
g1400
sg75
(lp1412
S':'
asbag68
(g89
g70
NtRp1413
(dp1414
g73
(dp1415
sg82
g1400
sg75
(lp1416
g68
(g69
g70
NtRp1417
(dp1418
g73
(dp1419
g81
I4
ssg82
g1413
sg75
(lp1420
S'/newsFeed/default/index'
p1421
asbasbasbag68
(g84
g70
NtRp1422
(dp1423
g73
(dp1424
sg82
g1044
sg75
(lp1425
g68
(g89
g70
NtRp1426
(dp1427
g73
(dp1428
g93
g94
ssg82
g1422
sg75
(lp1429
S'query_string'
p1430
asbag68
(g89
g70
NtRp1431
(dp1432
g73
(dp1433
g100
g101
ssg82
g1422
sg75
(lp1434
S':'
asbag68
(g89
g70
NtRp1435
(dp1436
g73
(dp1437
sg82
g1422
sg75
(lp1438
g68
(g69
g70
NtRp1439
(dp1440
g73
(dp1441
g81
I4
ssg82
g1435
sg75
(lp1442
S''
asbasbasbag68
(g84
g70
NtRp1443
(dp1444
g73
(dp1445
sg82
g1044
sg75
(lp1446
g68
(g89
g70
NtRp1447
(dp1448
g73
(dp1449
g93
g94
ssg82
g1443
sg75
(lp1450
S'remote_addr'
p1451
asbag68
(g89
g70
NtRp1452
(dp1453
g73
(dp1454
g100
g101
ssg82
g1443
sg75
(lp1455
S':'
asbag68
(g89
g70
NtRp1456
(dp1457
g73
(dp1458
sg82
g1443
sg75
(lp1459
g68
(g69
g70
NtRp1460
(dp1461
g73
(dp1462
g81
I4
ssg82
g1456
sg75
(lp1463
g223
asbasbasbag68
(g84
g70
NtRp1464
(dp1465
g73
(dp1466
sg82
g1044
sg75
(lp1467
g68
(g89
g70
NtRp1468
(dp1469
g73
(dp1470
g93
g94
ssg82
g1464
sg75
(lp1471
S'remote_port'
p1472
asbag68
(g89
g70
NtRp1473
(dp1474
g73
(dp1475
g100
g101
ssg82
g1464
sg75
(lp1476
S':'
asbag68
(g89
g70
NtRp1477
(dp1478
g73
(dp1479
sg82
g1464
sg75
(lp1480
g68
(g69
g70
NtRp1481
(dp1482
g73
(dp1483
g81
I4
ssg82
g1477
sg75
(lp1484
S'54399'
p1485
asbasbasbag68
(g84
g70
NtRp1486
(dp1487
g73
(dp1488
sg82
g1044
sg75
(lp1489
g68
(g89
g70
NtRp1490
(dp1491
g73
(dp1492
g93
g94
ssg82
g1486
sg75
(lp1493
S'request_method'
p1494
asbag68
(g89
g70
NtRp1495
(dp1496
g73
(dp1497
g100
g101
ssg82
g1486
sg75
(lp1498
S':'
asbag68
(g89
g70
NtRp1499
(dp1500
g73
(dp1501
sg82
g1486
sg75
(lp1502
g68
(g69
g70
NtRp1503
(dp1504
g73
(dp1505
g81
I4
ssg82
g1499
sg75
(lp1506
S'GET'
p1507
asbasbasbag68
(g84
g70
NtRp1508
(dp1509
g73
(dp1510
sg82
g1044
sg75
(lp1511
g68
(g89
g70
NtRp1512
(dp1513
g73
(dp1514
g93
g94
ssg82
g1508
sg75
(lp1515
S'request_uri'
p1516
asbag68
(g89
g70
NtRp1517
(dp1518
g73
(dp1519
g100
g101
ssg82
g1508
sg75
(lp1520
S':'
asbag68
(g89
g70
NtRp1521
(dp1522
g73
(dp1523
sg82
g1508
sg75
(lp1524
g68
(g69
g70
NtRp1525
(dp1526
g73
(dp1527
g81
I4
ssg82
g1521
sg75
(lp1528
g1421
asbasbasbag68
(g84
g70
NtRp1529
(dp1530
g73
(dp1531
sg82
g1044
sg75
(lp1532
g68
(g89
g70
NtRp1533
(dp1534
g73
(dp1535
g93
g94
ssg82
g1529
sg75
(lp1536
S'script_name'
p1537
asbag68
(g89
g70
NtRp1538
(dp1539
g73
(dp1540
g100
g101
ssg82
g1529
sg75
(lp1541
S':'
asbag68
(g89
g70
NtRp1542
(dp1543
g73
(dp1544
sg82
g1529
sg75
(lp1545
g68
(g69
g70
NtRp1546
(dp1547
g73
(dp1548
g81
I4
ssg82
g1542
sg75
(lp1549
S''
asbasbasbag68
(g84
g70
NtRp1550
(dp1551
g73
(dp1552
sg82
g1044
sg75
(lp1553
g68
(g89
g70
NtRp1554
(dp1555
g73
(dp1556
g93
g94
ssg82
g1550
sg75
(lp1557
S'server_name'
p1558
asbag68
(g89
g70
NtRp1559
(dp1560
g73
(dp1561
g100
g101
ssg82
g1550
sg75
(lp1562
S':'
asbag68
(g89
g70
NtRp1563
(dp1564
g73
(dp1565
sg82
g1550
sg75
(lp1566
g68
(g69
g70
NtRp1567
(dp1568
g73
(dp1569
g81
I4
ssg82
g1563
sg75
(lp1570
S'Karls-MacBook-Pro.local'
p1571
asbasbasbag68
(g84
g70
NtRp1572
(dp1573
g73
(dp1574
sg82
g1044
sg75
(lp1575
g68
(g89
g70
NtRp1576
(dp1577
g73
(dp1578
g93
g94
ssg82
g1572
sg75
(lp1579
S'server_port'
p1580
asbag68
(g89
g70
NtRp1581
(dp1582
g73
(dp1583
g100
g101
ssg82
g1572
sg75
(lp1584
S':'
asbag68
(g89
g70
NtRp1585
(dp1586
g73
(dp1587
sg82
g1572
sg75
(lp1588
g68
(g69
g70
NtRp1589
(dp1590
g73
(dp1591
g81
I4
ssg82
g1585
sg75
(lp1592
S'8000'
p1593
asbasbasbag68
(g84
g70
NtRp1594
(dp1595
g73
(dp1596
sg82
g1044
sg75
(lp1597
g68
(g89
g70
NtRp1598
(dp1599
g73
(dp1600
g93
g94
ssg82
g1594
sg75
(lp1601
S'server_protocol'
p1602
asbag68
(g89
g70
NtRp1603
(dp1604
g73
(dp1605
g100
g101
ssg82
g1594
sg75
(lp1606
S':'
asbag68
(g89
g70
NtRp1607
(dp1608
g73
(dp1609
sg82
g1594
sg75
(lp1610
g68
(g69
g70
NtRp1611
(dp1612
g73
(dp1613
g81
I4
ssg82
g1607
sg75
(lp1614
S'HTTP/1.1'
p1615
asbasbasbag68
(g84
g70
NtRp1616
(dp1617
g73
(dp1618
sg82
g1044
sg75
(lp1619
g68
(g89
g70
NtRp1620
(dp1621
g73
(dp1622
g93
g94
ssg82
g1616
sg75
(lp1623
S'server_software'
p1624
asbag68
(g89
g70
NtRp1625
(dp1626
g73
(dp1627
g100
g101
ssg82
g1616
sg75
(lp1628
S':'
asbag68
(g89
g70
NtRp1629
(dp1630
g73
(dp1631
sg82
g1616
sg75
(lp1632
g68
(g69
g70
NtRp1633
(dp1634
g73
(dp1635
g81
I4
ssg82
g1629
sg75
(lp1636
S'Rocket 1.2.4'
p1637
asbasbasbag68
(g84
g70
NtRp1638
(dp1639
g73
(dp1640
sg82
g1044
sg75
(lp1641
g68
(g89
g70
NtRp1642
(dp1643
g73
(dp1644
g93
g94
ssg82
g1638
sg75
(lp1645
S'web2py_crontype'
p1646
asbag68
(g89
g70
NtRp1647
(dp1648
g73
(dp1649
g100
g101
ssg82
g1638
sg75
(lp1650
S':'
asbag68
(g89
g70
NtRp1651
(dp1652
g73
(dp1653
sg82
g1638
sg75
(lp1654
g68
(g69
g70
NtRp1655
(dp1656
g73
(dp1657
g81
I4
ssg82
g1651
sg75
(lp1658
S'hard'
p1659
asbasbasbag68
(g84
g70
NtRp1660
(dp1661
g73
(dp1662
sg82
g1044
sg75
(lp1663
g68
(g89
g70
NtRp1664
(dp1665
g73
(dp1666
g93
g94
ssg82
g1660
sg75
(lp1667
S'web2py_path'
p1668
asbag68
(g89
g70
NtRp1669
(dp1670
g73
(dp1671
g100
g101
ssg82
g1660
sg75
(lp1672
S':'
asbag68
(g89
g70
NtRp1673
(dp1674
g73
(dp1675
sg82
g1660
sg75
(lp1676
g68
(g69
g70
NtRp1677
(dp1678
g73
(dp1679
g81
I4
ssg82
g1673
sg75
(lp1680
g1091
asbasbasbag68
(g84
g70
NtRp1681
(dp1682
g73
(dp1683
sg82
g1044
sg75
(lp1684
g68
(g89
g70
NtRp1685
(dp1686
g73
(dp1687
g93
g94
ssg82
g1681
sg75
(lp1688
S'web2py_version'
p1689
asbag68
(g89
g70
NtRp1690
(dp1691
g73
(dp1692
g100
g101
ssg82
g1681
sg75
(lp1693
S':'
asbag68
(g89
g70
NtRp1694
(dp1695
g73
(dp1696
sg82
g1681
sg75
(lp1697
g68
(g69
g70
NtRp1698
(dp1699
g73
(dp1700
g81
I4
ssg82
g1694
sg75
(lp1701
g68
(g77
g70
NtRp1702
(dp1703
g73
(dp1704
g81
I3
ssg82
Nsg75
(lp1705
g68
(g84
g70
NtRp1706
(dp1707
g73
(dp1708
sg82
g1702
sg75
(lp1709
g68
(g89
g70
NtRp1710
(dp1711
g73
(dp1712
sg82
g1706
sg75
(lp1713
g68
(g69
g70
NtRp1714
(dp1715
g73
(dp1716
g81
I3
ssg82
g1710
sg75
(lp1717
S'2'
asbasbasbag68
(g84
g70
NtRp1718
(dp1719
g73
(dp1720
sg82
g1702
sg75
(lp1721
g68
(g89
g70
NtRp1722
(dp1723
g73
(dp1724
sg82
g1718
sg75
(lp1725
g68
(g69
g70
NtRp1726
(dp1727
g73
(dp1728
g81
I3
ssg82
g1722
sg75
(lp1729
S'0'
asbasbasbag68
(g84
g70
NtRp1730
(dp1731
g73
(dp1732
sg82
g1702
sg75
(lp1733
g68
(g89
g70
NtRp1734
(dp1735
g73
(dp1736
sg82
g1730
sg75
(lp1737
g68
(g69
g70
NtRp1738
(dp1739
g73
(dp1740
g81
I3
ssg82
g1734
sg75
(lp1741
S'9'
asbasbasbag68
(g84
g70
NtRp1742
(dp1743
g73
(dp1744
sg82
g1702
sg75
(lp1745
g68
(g89
g70
NtRp1746
(dp1747
g73
(dp1748
sg82
g1742
sg75
(lp1749
g68
(g69
g70
NtRp1750
(dp1751
g73
(dp1752
g81
I3
ssg82
g1746
sg75
(lp1753
S'datetime.datetime(2012, 9, 13, 23, 51, 30)'
p1754
asbasbasbag68
(g84
g70
NtRp1755
(dp1756
g73
(dp1757
sg82
g1702
sg75
(lp1758
g68
(g89
g70
NtRp1759
(dp1760
g73
(dp1761
sg82
g1755
sg75
(lp1762
g68
(g69
g70
NtRp1763
(dp1764
g73
(dp1765
g81
I3
ssg82
g1759
sg75
(lp1766
S'stable'
p1767
asbasbasbasbasbasbasbag68
(g84
g70
NtRp1768
(dp1769
g73
(dp1770
sg82
g1044
sg75
(lp1771
g68
(g89
g70
NtRp1772
(dp1773
g73
(dp1774
g93
g94
ssg82
g1768
sg75
(lp1775
S'wsgi_errors'
p1776
asbag68
(g89
g70
NtRp1777
(dp1778
g73
(dp1779
g100
g101
ssg82
g1768
sg75
(lp1780
S':'
asbag68
(g89
g70
NtRp1781
(dp1782
g73
(dp1783
sg82
g1768
sg75
(lp1784
g68
(g69
g70
NtRp1785
(dp1786
g73
(dp1787
g81
I4
ssg82
g1781
sg75
(lp1788
S"<open file '<stderr>', mode 'w' at 0x100284270>"
p1789
asbasbasbag68
(g84
g70
NtRp1790
(dp1791
g73
(dp1792
sg82
g1044
sg75
(lp1793
g68
(g89
g70
NtRp1794
(dp1795
g73
(dp1796
g93
g94
ssg82
g1790
sg75
(lp1797
S'wsgi_file_wrapper'
p1798
asbag68
(g89
g70
NtRp1799
(dp1800
g73
(dp1801
g100
g101
ssg82
g1790
sg75
(lp1802
S':'
asbag68
(g89
g70
NtRp1803
(dp1804
g73
(dp1805
sg82
g1790
sg75
(lp1806
g68
(g69
g70
NtRp1807
(dp1808
g73
(dp1809
g81
I4
ssg82
g1803
sg75
(lp1810
S'<class wsgiref.util.FileWrapper at 0x101c53bb0>'
p1811
asbasbasbag68
(g84
g70
NtRp1812
(dp1813
g73
(dp1814
sg82
g1044
sg75
(lp1815
g68
(g89
g70
NtRp1816
(dp1817
g73
(dp1818
g93
g94
ssg82
g1812
sg75
(lp1819
S'wsgi_input'
p1820
asbag68
(g89
g70
NtRp1821
(dp1822
g73
(dp1823
g100
g101
ssg82
g1812
sg75
(lp1824
S':'
asbag68
(g89
g70
NtRp1825
(dp1826
g73
(dp1827
sg82
g1812
sg75
(lp1828
g68
(g69
g70
NtRp1829
(dp1830
g73
(dp1831
g81
I4
ssg82
g1825
sg75
(lp1832
S'<socket._fileobject object at 0x109cb4650>'
p1833
asbasbasbag68
(g84
g70
NtRp1834
(dp1835
g73
(dp1836
sg82
g1044
sg75
(lp1837
g68
(g89
g70
NtRp1838
(dp1839
g73
(dp1840
g93
g94
ssg82
g1834
sg75
(lp1841
S'wsgi_multiprocess'
p1842
asbag68
(g89
g70
NtRp1843
(dp1844
g73
(dp1845
g100
g101
ssg82
g1834
sg75
(lp1846
S':'
asbag68
(g89
g70
NtRp1847
(dp1848
g73
(dp1849
sg82
g1834
sg75
(lp1850
g68
(g69
g70
NtRp1851
(dp1852
g73
(dp1853
g81
I4
ssg82
g1847
sg75
(lp1854
g111
asbasbasbag68
(g84
g70
NtRp1855
(dp1856
g73
(dp1857
sg82
g1044
sg75
(lp1858
g68
(g89
g70
NtRp1859
(dp1860
g73
(dp1861
g93
g94
ssg82
g1855
sg75
(lp1862
S'wsgi_multithread'
p1863
asbag68
(g89
g70
NtRp1864
(dp1865
g73
(dp1866
g100
g101
ssg82
g1855
sg75
(lp1867
S':'
asbag68
(g89
g70
NtRp1868
(dp1869
g73
(dp1870
sg82
g1855
sg75
(lp1871
g68
(g69
g70
NtRp1872
(dp1873
g73
(dp1874
g81
I4
ssg82
g1868
sg75
(lp1875
S'True'
p1876
asbasbasbag68
(g84
g70
NtRp1877
(dp1878
g73
(dp1879
sg82
g1044
sg75
(lp1880
g68
(g89
g70
NtRp1881
(dp1882
g73
(dp1883
g93
g94
ssg82
g1877
sg75
(lp1884
S'wsgi_run_once'
p1885
asbag68
(g89
g70
NtRp1886
(dp1887
g73
(dp1888
g100
g101
ssg82
g1877
sg75
(lp1889
S':'
asbag68
(g89
g70
NtRp1890
(dp1891
g73
(dp1892
sg82
g1877
sg75
(lp1893
g68
(g69
g70
NtRp1894
(dp1895
g73
(dp1896
g81
I4
ssg82
g1890
sg75
(lp1897
g111
asbasbasbag68
(g84
g70
NtRp1898
(dp1899
g73
(dp1900
sg82
g1044
sg75
(lp1901
g68
(g89
g70
NtRp1902
(dp1903
g73
(dp1904
g93
g94
ssg82
g1898
sg75
(lp1905
S'wsgi_url_scheme'
p1906
asbag68
(g89
g70
NtRp1907
(dp1908
g73
(dp1909
g100
g101
ssg82
g1898
sg75
(lp1910
S':'
asbag68
(g89
g70
NtRp1911
(dp1912
g73
(dp1913
sg82
g1898
sg75
(lp1914
g68
(g69
g70
NtRp1915
(dp1916
g73
(dp1917
g81
I4
ssg82
g1911
sg75
(lp1918
S'http'
p1919
asbasbasbag68
(g84
g70
NtRp1920
(dp1921
g73
(dp1922
sg82
g1044
sg75
(lp1923
g68
(g89
g70
NtRp1924
(dp1925
g73
(dp1926
g93
g94
ssg82
g1920
sg75
(lp1927
S'wsgi_version'
p1928
asbag68
(g89
g70
NtRp1929
(dp1930
g73
(dp1931
g100
g101
ssg82
g1920
sg75
(lp1932
S':'
asbag68
(g89
g70
NtRp1933
(dp1934
g73
(dp1935
sg82
g1920
sg75
(lp1936
g68
(g69
g70
NtRp1937
(dp1938
g73
(dp1939
g81
I4
ssg82
g1933
sg75
(lp1940
g68
(g77
g70
NtRp1941
(dp1942
g73
(dp1943
g81
I3
ssg82
Nsg75
(lp1944
g68
(g84
g70
NtRp1945
(dp1946
g73
(dp1947
sg82
g1941
sg75
(lp1948
g68
(g89
g70
NtRp1949
(dp1950
g73
(dp1951
sg82
g1945
sg75
(lp1952
g68
(g69
g70
NtRp1953
(dp1954
g73
(dp1955
g81
I3
ssg82
g1949
sg75
(lp1956
S'1'
asbasbasbag68
(g84
g70
NtRp1957
(dp1958
g73
(dp1959
sg82
g1941
sg75
(lp1960
g68
(g89
g70
NtRp1961
(dp1962
g73
(dp1963
sg82
g1957
sg75
(lp1964
g68
(g69
g70
NtRp1965
(dp1966
g73
(dp1967
g81
I3
ssg82
g1961
sg75
(lp1968
S'0'
asbasbasbasbasbasbasbasbasbasbasbag68
(g84
g70
NtRp1969
(dp1970
g73
(dp1971
sg82
g78
sg75
(lp1972
g68
(g89
g70
NtRp1973
(dp1974
g73
(dp1975
g93
g94
ssg82
g1969
sg75
(lp1976
S'extension'
p1977
asbag68
(g89
g70
NtRp1978
(dp1979
g73
(dp1980
g100
g101
ssg82
g1969
sg75
(lp1981
S':'
asbag68
(g89
g70
NtRp1982
(dp1983
g73
(dp1984
sg82
g1969
sg75
(lp1985
g68
(g69
g70
NtRp1986
(dp1987
g73
(dp1988
g81
I5
ssg82
g1982
sg75
(lp1989
S'html'
p1990
asbasbasbag68
(g84
g70
NtRp1991
(dp1992
g73
(dp1993
sg82
g78
sg75
(lp1994
g68
(g89
g70
NtRp1995
(dp1996
g73
(dp1997
g93
g94
ssg82
g1991
sg75
(lp1998
S'folder'
p1999
asbag68
(g89
g70
NtRp2000
(dp2001
g73
(dp2002
g100
g101
ssg82
g1991
sg75
(lp2003
S':'
asbag68
(g89
g70
NtRp2004
(dp2005
g73
(dp2006
sg82
g1991
sg75
(lp2007
g68
(g69
g70
NtRp2008
(dp2009
g73
(dp2010
g81
I5
ssg82
g2004
sg75
(lp2011
S'/Users/Karl/code/web2py/applications/newsFeed/'
p2012
asbasbasbag68
(g84
g70
NtRp2013
(dp2014
g73
(dp2015
sg82
g78
sg75
(lp2016
g68
(g89
g70
NtRp2017
(dp2018
g73
(dp2019
g93
g94
ssg82
g2013
sg75
(lp2020
S'function'
p2021
asbag68
(g89
g70
NtRp2022
(dp2023
g73
(dp2024
g100
g101
ssg82
g2013
sg75
(lp2025
S':'
asbag68
(g89
g70
NtRp2026
(dp2027
g73
(dp2028
sg82
g2013
sg75
(lp2029
g68
(g69
g70
NtRp2030
(dp2031
g73
(dp2032
g81
I5
ssg82
g2026
sg75
(lp2033
S'index'
p2034
asbasbasbag68
(g84
g70
NtRp2035
(dp2036
g73
(dp2037
sg82
g78
sg75
(lp2038
g68
(g89
g70
NtRp2039
(dp2040
g73
(dp2041
g93
g94
ssg82
g2035
sg75
(lp2042
S'get_vars'
p2043
asbag68
(g89
g70
NtRp2044
(dp2045
g73
(dp2046
g100
g101
ssg82
g2035
sg75
(lp2047
S':'
asbag68
(g89
g70
NtRp2048
(dp2049
g73
(dp2050
sg82
g2035
sg75
(lp2051
g68
(g69
g70
NtRp2052
(dp2053
g73
(dp2054
g81
I5
ssg82
g2048
sg75
(lp2055
g68
(g77
g70
NtRp2056
(dp2057
g73
(dp2058
g81
I4
ssg82
Nsg75
(lp2059
sbasbasbasbag68
(g84
g70
NtRp2060
(dp2061
g73
(dp2062
sg82
g78
sg75
(lp2063
g68
(g89
g70
NtRp2064
(dp2065
g73
(dp2066
g93
g94
ssg82
g2060
sg75
(lp2067
S'global_settings'
p2068
asbag68
(g89
g70
NtRp2069
(dp2070
g73
(dp2071
g100
g101
ssg82
g2060
sg75
(lp2072
S':'
asbag68
(g89
g70
NtRp2073
(dp2074
g73
(dp2075
sg82
g2060
sg75
(lp2076
g68
(g69
g70
NtRp2077
(dp2078
g73
(dp2079
g81
I5
ssg82
g2073
sg75
(lp2080
g68
(g77
g70
NtRp2081
(dp2082
g73
(dp2083
g81
I4
ssg82
Nsg75
(lp2084
g68
(g84
g70
NtRp2085
(dp2086
g73
(dp2087
sg82
g2081
sg75
(lp2088
g68
(g89
g70
NtRp2089
(dp2090
g73
(dp2091
g93
g94
ssg82
g2085
sg75
(lp2092
g1056
asbag68
(g89
g70
NtRp2093
(dp2094
g73
(dp2095
g100
g101
ssg82
g2085
sg75
(lp2096
S':'
asbag68
(g89
g70
NtRp2097
(dp2098
g73
(dp2099
sg82
g2085
sg75
(lp2100
g68
(g69
g70
NtRp2101
(dp2102
g73
(dp2103
g81
I4
ssg82
g2097
sg75
(lp2104
S"set(['/Users/Karl/code/web2py/applications/newsFeed/', '/Users/Karl/code/web2py/applications/admin/', '/Users/Karl/code/web2py/applications/welcome/'])"
p2105
asbasbasbag68
(g84
g70
NtRp2106
(dp2107
g73
(dp2108
sg82
g2081
sg75
(lp2109
g68
(g89
g70
NtRp2110
(dp2111
g73
(dp2112
g93
g94
ssg82
g2106
sg75
(lp2113
g1078
asbag68
(g89
g70
NtRp2114
(dp2115
g73
(dp2116
g100
g101
ssg82
g2106
sg75
(lp2117
S':'
asbag68
(g89
g70
NtRp2118
(dp2119
g73
(dp2120
sg82
g2106
sg75
(lp2121
g68
(g69
g70
NtRp2122
(dp2123
g73
(dp2124
g81
I4
ssg82
g2118
sg75
(lp2125
g1091
asbasbasbag68
(g84
g70
NtRp2126
(dp2127
g73
(dp2128
sg82
g2081
sg75
(lp2129
g68
(g89
g70
NtRp2130
(dp2131
g73
(dp2132
g93
g94
ssg82
g2126
sg75
(lp2133
g1100
asbag68
(g89
g70
NtRp2134
(dp2135
g73
(dp2136
g100
g101
ssg82
g2126
sg75
(lp2137
S':'
asbag68
(g89
g70
NtRp2138
(dp2139
g73
(dp2140
sg82
g2126
sg75
(lp2141
g68
(g69
g70
NtRp2142
(dp2143
g73
(dp2144
g81
I4
ssg82
g2138
sg75
(lp2145
g68
(g77
g70
NtRp2146
(dp2147
g73
(dp2148
g81
I3
ssg82
Nsg75
(lp2149
sbasbasbasbag68
(g84
g70
NtRp2150
(dp2151
g73
(dp2152
sg82
g2081
sg75
(lp2153
g68
(g89
g70
NtRp2154
(dp2155
g73
(dp2156
g93
g94
ssg82
g2150
sg75
(lp2157
g1125
asbag68
(g89
g70
NtRp2158
(dp2159
g73
(dp2160
g100
g101
ssg82
g2150
sg75
(lp2161
S':'
asbag68
(g89
g70
NtRp2162
(dp2163
g73
(dp2164
sg82
g2150
sg75
(lp2165
g68
(g69
g70
NtRp2166
(dp2167
g73
(dp2168
g81
I4
ssg82
g2162
sg75
(lp2169
S"<Values at 0x101caf200: {'verbose': False, 'ip': '127.0.0.1', 'with_scheduler': False, 'ips': ['172.25.51.201'], 'shutdown_timeout': 5, 'taskbar': False, 'port': 8000, 'maxthreads': None, 'softcron': False, 'server_name': 'Karls-MacBook-Pro.local', 'bpython': False, 'nogui': False, 'nocron': False, 'extcron': False, 'run_system_tests': False, 'test': None, 'folder': '/Users/Karl/code/web2py', 'config': '', 'import_models': False, 'winservice': '', 'shell': None, 'run': '', 'log_filename': 'httpserver.log', 'debuglevel': 30, 'args': [''], 'socket_timeout': 5, 'ssl_ca_certificate': None, 'scheduler': None, 'profiler_filename': None, 'ssl_private_key': '', 'scheduler_groups': None, 'password': '<ask>', 'request_queue_size': 5, 'ssl_certificate': '', 'cronjob': False, 'numthreads': None, 'quiet': False, 'interfaces': None, 'minthreads': None, 'timeout': 10, 'plain': False, 'nobanner': False, 'pid_filename': 'httpserver.pid'}>"
p2170
asbasbasbag68
(g84
g70
NtRp2171
(dp2172
g73
(dp2173
sg82
g2081
sg75
(lp2174
g68
(g89
g70
NtRp2175
(dp2176
g73
(dp2177
g93
g94
ssg82
g2171
sg75
(lp2178
g1147
asbag68
(g89
g70
NtRp2179
(dp2180
g73
(dp2181
g100
g101
ssg82
g2171
sg75
(lp2182
S':'
asbag68
(g89
g70
NtRp2183
(dp2184
g73
(dp2185
sg82
g2171
sg75
(lp2186
g68
(g69
g70
NtRp2187
(dp2188
g73
(dp2189
g81
I4
ssg82
g2183
sg75
(lp2190
S'set([])'
p2191
asbasbasbag68
(g84
g70
NtRp2192
(dp2193
g73
(dp2194
sg82
g2081
sg75
(lp2195
g68
(g89
g70
NtRp2196
(dp2197
g73
(dp2198
g93
g94
ssg82
g2192
sg75
(lp2199
g1169
asbag68
(g89
g70
NtRp2200
(dp2201
g73
(dp2202
g100
g101
ssg82
g2192
sg75
(lp2203
S':'
asbag68
(g89
g70
NtRp2204
(dp2205
g73
(dp2206
sg82
g2192
sg75
(lp2207
g68
(g69
g70
NtRp2208
(dp2209
g73
(dp2210
g81
I4
ssg82
g2204
sg75
(lp2211
g111
asbasbasbag68
(g84
g70
NtRp2212
(dp2213
g73
(dp2214
sg82
g2081
sg75
(lp2215
g68
(g89
g70
NtRp2216
(dp2217
g73
(dp2218
g93
g94
ssg82
g2212
sg75
(lp2219
g1190
asbag68
(g89
g70
NtRp2220
(dp2221
g73
(dp2222
g100
g101
ssg82
g2212
sg75
(lp2223
S':'
asbag68
(g89
g70
NtRp2224
(dp2225
g73
(dp2226
sg82
g2212
sg75
(lp2227
g68
(g69
g70
NtRp2228
(dp2229
g73
(dp2230
g81
I4
ssg82
g2224
sg75
(lp2231
g1203
asbasbasbag68
(g84
g70
NtRp2232
(dp2233
g73
(dp2234
sg82
g2081
sg75
(lp2235
g68
(g89
g70
NtRp2236
(dp2237
g73
(dp2238
g93
g94
ssg82
g2232
sg75
(lp2239
g1366
asbag68
(g89
g70
NtRp2240
(dp2241
g73
(dp2242
g100
g101
ssg82
g2232
sg75
(lp2243
S':'
asbag68
(g89
g70
NtRp2244
(dp2245
g73
(dp2246
sg82
g2232
sg75
(lp2247
g68
(g69
g70
NtRp2248
(dp2249
g73
(dp2250
g81
I4
ssg82
g2244
sg75
(lp2251
g111
asbasbasbag68
(g84
g70
NtRp2252
(dp2253
g73
(dp2254
sg82
g2081
sg75
(lp2255
g68
(g89
g70
NtRp2256
(dp2257
g73
(dp2258
g93
g94
ssg82
g2252
sg75
(lp2259
g1387
asbag68
(g89
g70
NtRp2260
(dp2261
g73
(dp2262
g100
g101
ssg82
g2252
sg75
(lp2263
S':'
asbag68
(g89
g70
NtRp2264
(dp2265
g73
(dp2266
sg82
g2252
sg75
(lp2267
g68
(g69
g70
NtRp2268
(dp2269
g73
(dp2270
g81
I4
ssg82
g2264
sg75
(lp2271
g111
asbasbasbag68
(g84
g70
NtRp2272
(dp2273
g73
(dp2274
sg82
g2081
sg75
(lp2275
g68
(g89
g70
NtRp2276
(dp2277
g73
(dp2278
g93
g94
ssg82
g2272
sg75
(lp2279
g1646
asbag68
(g89
g70
NtRp2280
(dp2281
g73
(dp2282
g100
g101
ssg82
g2272
sg75
(lp2283
S':'
asbag68
(g89
g70
NtRp2284
(dp2285
g73
(dp2286
sg82
g2272
sg75
(lp2287
g68
(g69
g70
NtRp2288
(dp2289
g73
(dp2290
g81
I4
ssg82
g2284
sg75
(lp2291
g1659
asbasbasbag68
(g84
g70
NtRp2292
(dp2293
g73
(dp2294
sg82
g2081
sg75
(lp2295
g68
(g89
g70
NtRp2296
(dp2297
g73
(dp2298
g93
g94
ssg82
g2292
sg75
(lp2299
g1689
asbag68
(g89
g70
NtRp2300
(dp2301
g73
(dp2302
g100
g101
ssg82
g2292
sg75
(lp2303
S':'
asbag68
(g89
g70
NtRp2304
(dp2305
g73
(dp2306
sg82
g2292
sg75
(lp2307
g68
(g69
g70
NtRp2308
(dp2309
g73
(dp2310
g81
I4
ssg82
g2304
sg75
(lp2311
g68
(g77
g70
NtRp2312
(dp2313
g73
(dp2314
g81
I3
ssg82
Nsg75
(lp2315
g68
(g84
g70
NtRp2316
(dp2317
g73
(dp2318
sg82
g2312
sg75
(lp2319
g68
(g89
g70
NtRp2320
(dp2321
g73
(dp2322
sg82
g2316
sg75
(lp2323
g68
(g69
g70
NtRp2324
(dp2325
g73
(dp2326
g81
I3
ssg82
g2320
sg75
(lp2327
S'2'
asbasbasbag68
(g84
g70
NtRp2328
(dp2329
g73
(dp2330
sg82
g2312
sg75
(lp2331
g68
(g89
g70
NtRp2332
(dp2333
g73
(dp2334
sg82
g2328
sg75
(lp2335
g68
(g69
g70
NtRp2336
(dp2337
g73
(dp2338
g81
I3
ssg82
g2332
sg75
(lp2339
S'0'
asbasbasbag68
(g84
g70
NtRp2340
(dp2341
g73
(dp2342
sg82
g2312
sg75
(lp2343
g68
(g89
g70
NtRp2344
(dp2345
g73
(dp2346
sg82
g2340
sg75
(lp2347
g68
(g69
g70
NtRp2348
(dp2349
g73
(dp2350
g81
I3
ssg82
g2344
sg75
(lp2351
S'9'
asbasbasbag68
(g84
g70
NtRp2352
(dp2353
g73
(dp2354
sg82
g2312
sg75
(lp2355
g68
(g89
g70
NtRp2356
(dp2357
g73
(dp2358
sg82
g2352
sg75
(lp2359
g68
(g69
g70
NtRp2360
(dp2361
g73
(dp2362
g81
I3
ssg82
g2356
sg75
(lp2363
S'datetime.datetime(2012, 9, 13, 23, 51, 30)'
p2364
asbasbasbag68
(g84
g70
NtRp2365
(dp2366
g73
(dp2367
sg82
g2312
sg75
(lp2368
g68
(g89
g70
NtRp2369
(dp2370
g73
(dp2371
sg82
g2365
sg75
(lp2372
g68
(g69
g70
NtRp2373
(dp2374
g73
(dp2375
g81
I3
ssg82
g2369
sg75
(lp2376
g1767
asbasbasbasbasbasbasbasbasbasbasbag68
(g84
g70
NtRp2377
(dp2378
g73
(dp2379
sg82
g78
sg75
(lp2380
g68
(g89
g70
NtRp2381
(dp2382
g73
(dp2383
g93
g94
ssg82
g2377
sg75
(lp2384
S'is_https'
p2385
asbag68
(g89
g70
NtRp2386
(dp2387
g73
(dp2388
g100
g101
ssg82
g2377
sg75
(lp2389
S':'
asbag68
(g89
g70
NtRp2390
(dp2391
g73
(dp2392
sg82
g2377
sg75
(lp2393
g68
(g69
g70
NtRp2394
(dp2395
g73
(dp2396
g81
I5
ssg82
g2390
sg75
(lp2397
g111
asbasbasbag68
(g84
g70
NtRp2398
(dp2399
g73
(dp2400
sg82
g78
sg75
(lp2401
g68
(g89
g70
NtRp2402
(dp2403
g73
(dp2404
g93
g94
ssg82
g2398
sg75
(lp2405
S'is_local'
p2406
asbag68
(g89
g70
NtRp2407
(dp2408
g73
(dp2409
g100
g101
ssg82
g2398
sg75
(lp2410
S':'
asbag68
(g89
g70
NtRp2411
(dp2412
g73
(dp2413
sg82
g2398
sg75
(lp2414
g68
(g69
g70
NtRp2415
(dp2416
g73
(dp2417
g81
I5
ssg82
g2411
sg75
(lp2418
g1876
asbasbasbag68
(g84
g70
NtRp2419
(dp2420
g73
(dp2421
sg82
g78
sg75
(lp2422
g68
(g89
g70
NtRp2423
(dp2424
g73
(dp2425
g93
g94
ssg82
g2419
sg75
(lp2426
S'is_restful'
p2427
asbag68
(g89
g70
NtRp2428
(dp2429
g73
(dp2430
g100
g101
ssg82
g2419
sg75
(lp2431
S':'
asbag68
(g89
g70
NtRp2432
(dp2433
g73
(dp2434
sg82
g2419
sg75
(lp2435
g68
(g69
g70
NtRp2436
(dp2437
g73
(dp2438
g81
I5
ssg82
g2432
sg75
(lp2439
g111
asbasbasbag68
(g84
g70
NtRp2440
(dp2441
g73
(dp2442
sg82
g78
sg75
(lp2443
g68
(g89
g70
NtRp2444
(dp2445
g73
(dp2446
g93
g94
ssg82
g2440
sg75
(lp2447
S'now'
p2448
asbag68
(g89
g70
NtRp2449
(dp2450
g73
(dp2451
g100
g101
ssg82
g2440
sg75
(lp2452
S':'
asbag68
(g89
g70
NtRp2453
(dp2454
g73
(dp2455
sg82
g2440
sg75
(lp2456
g68
(g69
g70
NtRp2457
(dp2458
g73
(dp2459
g81
I5
ssg82
g2453
sg75
(lp2460
S'datetime.datetime(2012, 10, 30, 15, 36, 41, 512965)'
p2461
asbasbasbag68
(g84
g70
NtRp2462
(dp2463
g73
(dp2464
sg82
g78
sg75
(lp2465
g68
(g89
g70
NtRp2466
(dp2467
g73
(dp2468
g93
g94
ssg82
g2462
sg75
(lp2469
S'post_vars'
p2470
asbag68
(g89
g70
NtRp2471
(dp2472
g73
(dp2473
g100
g101
ssg82
g2462
sg75
(lp2474
S':'
asbag68
(g89
g70
NtRp2475
(dp2476
g73
(dp2477
sg82
g2462
sg75
(lp2478
g68
(g69
g70
NtRp2479
(dp2480
g73
(dp2481
g81
I5
ssg82
g2475
sg75
(lp2482
g68
(g77
g70
NtRp2483
(dp2484
g73
(dp2485
g81
I4
ssg82
Nsg75
(lp2486
sbasbasbasbag68
(g84
g70
NtRp2487
(dp2488
g73
(dp2489
sg82
g78
sg75
(lp2490
g68
(g89
g70
NtRp2491
(dp2492
g73
(dp2493
g93
g94
ssg82
g2487
sg75
(lp2494
S'raw_args'
p2495
asbag68
(g89
g70
NtRp2496
(dp2497
g73
(dp2498
g100
g101
ssg82
g2487
sg75
(lp2499
S':'
asbag68
(g89
g70
NtRp2500
(dp2501
g73
(dp2502
sg82
g2487
sg75
(lp2503
g68
(g69
g70
NtRp2504
(dp2505
g73
(dp2506
g81
I5
ssg82
g2500
sg75
(lp2507
S'None'
p2508
asbasbasbag68
(g84
g70
NtRp2509
(dp2510
g73
(dp2511
sg82
g78
sg75
(lp2512
g68
(g89
g70
NtRp2513
(dp2514
g73
(dp2515
g93
g94
ssg82
g2509
sg75
(lp2516
S'raw_extension'
p2517
asbag68
(g89
g70
NtRp2518
(dp2519
g73
(dp2520
g100
g101
ssg82
g2509
sg75
(lp2521
S':'
asbag68
(g89
g70
NtRp2522
(dp2523
g73
(dp2524
sg82
g2509
sg75
(lp2525
g68
(g69
g70
NtRp2526
(dp2527
g73
(dp2528
g81
I5
ssg82
g2522
sg75
(lp2529
S'None'
p2530
asbasbasbag68
(g84
g70
NtRp2531
(dp2532
g73
(dp2533
sg82
g78
sg75
(lp2534
g68
(g89
g70
NtRp2535
(dp2536
g73
(dp2537
g93
g94
ssg82
g2531
sg75
(lp2538
S'url'
p2539
asbag68
(g89
g70
NtRp2540
(dp2541
g73
(dp2542
g100
g101
ssg82
g2531
sg75
(lp2543
S':'
asbag68
(g89
g70
NtRp2544
(dp2545
g73
(dp2546
sg82
g2531
sg75
(lp2547
g68
(g69
g70
NtRp2548
(dp2549
g73
(dp2550
g81
I5
ssg82
g2544
sg75
(lp2551
g1421
asbasbasbag68
(g84
g70
NtRp2552
(dp2553
g73
(dp2554
sg82
g78
sg75
(lp2555
g68
(g89
g70
NtRp2556
(dp2557
g73
(dp2558
g93
g94
ssg82
g2552
sg75
(lp2559
S'utcnow'
p2560
asbag68
(g89
g70
NtRp2561
(dp2562
g73
(dp2563
g100
g101
ssg82
g2552
sg75
(lp2564
S':'
asbag68
(g89
g70
NtRp2565
(dp2566
g73
(dp2567
sg82
g2552
sg75
(lp2568
g68
(g69
g70
NtRp2569
(dp2570
g73
(dp2571
g81
I5
ssg82
g2565
sg75
(lp2572
S'datetime.datetime(2012, 10, 30, 19, 36, 41, 512974)'
p2573
asbasbasbag68
(g84
g70
NtRp2574
(dp2575
g73
(dp2576
sg82
g78
sg75
(lp2577
g68
(g89
g70
NtRp2578
(dp2579
g73
(dp2580
g93
g94
ssg82
g2574
sg75
(lp2581
S'uuid'
p2582
asbag68
(g89
g70
NtRp2583
(dp2584
g73
(dp2585
g100
g101
ssg82
g2574
sg75
(lp2586
S':'
asbag68
(g89
g70
NtRp2587
(dp2588
g73
(dp2589
sg82
g2574
sg75
(lp2590
g68
(g69
g70
NtRp2591
(dp2592
g73
(dp2593
g81
I5
ssg82
g2587
sg75
(lp2594
S'newsFeed/127.0.0.1.2012-10-30.15-36-41.e17569ba-728e-49dd-961b-e1f1b02d3c70'
p2595
asbasbasbag68
(g84
g70
NtRp2596
(dp2597
g73
(dp2598
sg82
g78
sg75
(lp2599
g68
(g89
g70
NtRp2600
(dp2601
g73
(dp2602
g93
g94
ssg82
g2596
sg75
(lp2603
S'vars'
p2604
asbag68
(g89
g70
NtRp2605
(dp2606
g73
(dp2607
g100
g101
ssg82
g2596
sg75
(lp2608
S':'
asbag68
(g89
g70
NtRp2609
(dp2610
g73
(dp2611
sg82
g2596
sg75
(lp2612
g68
(g69
g70
NtRp2613
(dp2614
g73
(dp2615
g81
I5
ssg82
g2609
sg75
(lp2616
g68
(g77
g70
NtRp2617
(dp2618
g73
(dp2619
g81
I4
ssg82
Nsg75
(lp2620
sbasbasbasbag68
(g84
g70
NtRp2621
(dp2622
g73
(dp2623
sg82
g78
sg75
(lp2624
g68
(g89
g70
NtRp2625
(dp2626
g73
(dp2627
g93
g94
ssg82
g2621
sg75
(lp2628
S'wsgi'
p2629
asbag68
(g89
g70
NtRp2630
(dp2631
g73
(dp2632
g100
g101
ssg82
g2621
sg75
(lp2633
S':'
asbag68
(g89
g70
NtRp2634
(dp2635
g73
(dp2636
sg82
g2621
sg75
(lp2637
g68
(g69
g70
NtRp2638
(dp2639
g73
(dp2640
g81
I5
ssg82
g2634
sg75
(lp2641
g68
(g77
g70
NtRp2642
(dp2643
g73
(dp2644
g81
I4
ssg82
Nsg75
(lp2645
g68
(g84
g70
NtRp2646
(dp2647
g73
(dp2648
sg82
g2642
sg75
(lp2649
g68
(g89
g70
NtRp2650
(dp2651
g73
(dp2652
g93
g94
ssg82
g2646
sg75
(lp2653
S'environ'
p2654
asbag68
(g89
g70
NtRp2655
(dp2656
g73
(dp2657
g100
g101
ssg82
g2646
sg75
(lp2658
S':'
asbag68
(g89
g70
NtRp2659
(dp2660
g73
(dp2661
sg82
g2646
sg75
(lp2662
g68
(g69
g70
NtRp2663
(dp2664
g73
(dp2665
g81
I4
ssg82
g2659
sg75
(lp2666
g68
(g77
g70
NtRp2667
(dp2668
g73
(dp2669
g81
I3
ssg82
Nsg75
(lp2670
g68
(g84
g70
NtRp2671
(dp2672
g73
(dp2673
sg82
g2667
sg75
(lp2674
g68
(g89
g70
NtRp2675
(dp2676
g73
(dp2677
g93
g94
ssg82
g2671
sg75
(lp2678
S'HTTP_ACCEPT'
p2679
asbag68
(g89
g70
NtRp2680
(dp2681
g73
(dp2682
g100
g101
ssg82
g2671
sg75
(lp2683
S':'
asbag68
(g89
g70
NtRp2684
(dp2685
g73
(dp2686
sg82
g2671
sg75
(lp2687
g68
(g69
g70
NtRp2688
(dp2689
g73
(dp2690
g81
I3
ssg82
g2684
sg75
(lp2691
g1225
asbasbasbag68
(g84
g70
NtRp2692
(dp2693
g73
(dp2694
sg82
g2667
sg75
(lp2695
g68
(g89
g70
NtRp2696
(dp2697
g73
(dp2698
g93
g94
ssg82
g2692
sg75
(lp2699
S'HTTP_ACCEPT_ENCODING'
p2700
asbag68
(g89
g70
NtRp2701
(dp2702
g73
(dp2703
g100
g101
ssg82
g2692
sg75
(lp2704
S':'
asbag68
(g89
g70
NtRp2705
(dp2706
g73
(dp2707
sg82
g2692
sg75
(lp2708
g68
(g69
g70
NtRp2709
(dp2710
g73
(dp2711
g81
I3
ssg82
g2705
sg75
(lp2712
g1247
asbasbasbag68
(g84
g70
NtRp2713
(dp2714
g73
(dp2715
sg82
g2667
sg75
(lp2716
g68
(g89
g70
NtRp2717
(dp2718
g73
(dp2719
g93
g94
ssg82
g2713
sg75
(lp2720
S'HTTP_ACCEPT_LANGUAGE'
p2721
asbag68
(g89
g70
NtRp2722
(dp2723
g73
(dp2724
g100
g101
ssg82
g2713
sg75
(lp2725
S':'
asbag68
(g89
g70
NtRp2726
(dp2727
g73
(dp2728
sg82
g2713
sg75
(lp2729
g68
(g69
g70
NtRp2730
(dp2731
g73
(dp2732
g81
I3
ssg82
g2726
sg75
(lp2733
g1269
asbasbasbag68
(g84
g70
NtRp2734
(dp2735
g73
(dp2736
sg82
g2667
sg75
(lp2737
g68
(g89
g70
NtRp2738
(dp2739
g73
(dp2740
g93
g94
ssg82
g2734
sg75
(lp2741
S'HTTP_CONNECTION'
p2742
asbag68
(g89
g70
NtRp2743
(dp2744
g73
(dp2745
g100
g101
ssg82
g2734
sg75
(lp2746
S':'
asbag68
(g89
g70
NtRp2747
(dp2748
g73
(dp2749
sg82
g2734
sg75
(lp2750
g68
(g69
g70
NtRp2751
(dp2752
g73
(dp2753
g81
I3
ssg82
g2747
sg75
(lp2754
g1291
asbasbasbag68
(g84
g70
NtRp2755
(dp2756
g73
(dp2757
sg82
g2667
sg75
(lp2758
g68
(g89
g70
NtRp2759
(dp2760
g73
(dp2761
g93
g94
ssg82
g2755
sg75
(lp2762
S'HTTP_COOKIE'
p2763
asbag68
(g89
g70
NtRp2764
(dp2765
g73
(dp2766
g100
g101
ssg82
g2755
sg75
(lp2767
S':'
asbag68
(g89
g70
NtRp2768
(dp2769
g73
(dp2770
sg82
g2755
sg75
(lp2771
g68
(g69
g70
NtRp2772
(dp2773
g73
(dp2774
g81
I3
ssg82
g2768
sg75
(lp2775
g1313
asbasbasbag68
(g84
g70
NtRp2776
(dp2777
g73
(dp2778
sg82
g2667
sg75
(lp2779
g68
(g89
g70
NtRp2780
(dp2781
g73
(dp2782
g93
g94
ssg82
g2776
sg75
(lp2783
S'HTTP_HOST'
p2784
asbag68
(g89
g70
NtRp2785
(dp2786
g73
(dp2787
g100
g101
ssg82
g2776
sg75
(lp2788
S':'
asbag68
(g89
g70
NtRp2789
(dp2790
g73
(dp2791
sg82
g2776
sg75
(lp2792
g68
(g69
g70
NtRp2793
(dp2794
g73
(dp2795
g81
I3
ssg82
g2789
sg75
(lp2796
g1335
asbasbasbag68
(g84
g70
NtRp2797
(dp2798
g73
(dp2799
sg82
g2667
sg75
(lp2800
g68
(g89
g70
NtRp2801
(dp2802
g73
(dp2803
g93
g94
ssg82
g2797
sg75
(lp2804
S'HTTP_USER_AGENT'
p2805
asbag68
(g89
g70
NtRp2806
(dp2807
g73
(dp2808
g100
g101
ssg82
g2797
sg75
(lp2809
S':'
asbag68
(g89
g70
NtRp2810
(dp2811
g73
(dp2812
sg82
g2797
sg75
(lp2813
g68
(g69
g70
NtRp2814
(dp2815
g73
(dp2816
g81
I3
ssg82
g2810
sg75
(lp2817
g1357
asbasbasbag68
(g84
g70
NtRp2818
(dp2819
g73
(dp2820
sg82
g2667
sg75
(lp2821
g68
(g89
g70
NtRp2822
(dp2823
g73
(dp2824
g93
g94
ssg82
g2818
sg75
(lp2825
S'PATH_INFO'
p2826
asbag68
(g89
g70
NtRp2827
(dp2828
g73
(dp2829
g100
g101
ssg82
g2818
sg75
(lp2830
S':'
asbag68
(g89
g70
NtRp2831
(dp2832
g73
(dp2833
sg82
g2818
sg75
(lp2834
g68
(g69
g70
NtRp2835
(dp2836
g73
(dp2837
g81
I3
ssg82
g2831
sg75
(lp2838
g1421
asbasbasbag68
(g84
g70
NtRp2839
(dp2840
g73
(dp2841
sg82
g2667
sg75
(lp2842
g68
(g89
g70
NtRp2843
(dp2844
g73
(dp2845
g93
g94
ssg82
g2839
sg75
(lp2846
S'QUERY_STRING'
p2847
asbag68
(g89
g70
NtRp2848
(dp2849
g73
(dp2850
g100
g101
ssg82
g2839
sg75
(lp2851
S':'
asbag68
(g89
g70
NtRp2852
(dp2853
g73
(dp2854
sg82
g2839
sg75
(lp2855
g68
(g69
g70
NtRp2856
(dp2857
g73
(dp2858
g81
I3
ssg82
g2852
sg75
(lp2859
S''
asbasbasbag68
(g84
g70
NtRp2860
(dp2861
g73
(dp2862
sg82
g2667
sg75
(lp2863
g68
(g89
g70
NtRp2864
(dp2865
g73
(dp2866
g93
g94
ssg82
g2860
sg75
(lp2867
S'REMOTE_ADDR'
p2868
asbag68
(g89
g70
NtRp2869
(dp2870
g73
(dp2871
g100
g101
ssg82
g2860
sg75
(lp2872
S':'
asbag68
(g89
g70
NtRp2873
(dp2874
g73
(dp2875
sg82
g2860
sg75
(lp2876
g68
(g69
g70
NtRp2877
(dp2878
g73
(dp2879
g81
I3
ssg82
g2873
sg75
(lp2880
g223
asbasbasbag68
(g84
g70
NtRp2881
(dp2882
g73
(dp2883
sg82
g2667
sg75
(lp2884
g68
(g89
g70
NtRp2885
(dp2886
g73
(dp2887
g93
g94
ssg82
g2881
sg75
(lp2888
S'REMOTE_PORT'
p2889
asbag68
(g89
g70
NtRp2890
(dp2891
g73
(dp2892
g100
g101
ssg82
g2881
sg75
(lp2893
S':'
asbag68
(g89
g70
NtRp2894
(dp2895
g73
(dp2896
sg82
g2881
sg75
(lp2897
g68
(g69
g70
NtRp2898
(dp2899
g73
(dp2900
g81
I3
ssg82
g2894
sg75
(lp2901
g1485
asbasbasbag68
(g84
g70
NtRp2902
(dp2903
g73
(dp2904
sg82
g2667
sg75
(lp2905
g68
(g89
g70
NtRp2906
(dp2907
g73
(dp2908
g93
g94
ssg82
g2902
sg75
(lp2909
S'REQUEST_METHOD'
p2910
asbag68
(g89
g70
NtRp2911
(dp2912
g73
(dp2913
g100
g101
ssg82
g2902
sg75
(lp2914
S':'
asbag68
(g89
g70
NtRp2915
(dp2916
g73
(dp2917
sg82
g2902
sg75
(lp2918
g68
(g69
g70
NtRp2919
(dp2920
g73
(dp2921
g81
I3
ssg82
g2915
sg75
(lp2922
g1507
asbasbasbag68
(g84
g70
NtRp2923
(dp2924
g73
(dp2925
sg82
g2667
sg75
(lp2926
g68
(g89
g70
NtRp2927
(dp2928
g73
(dp2929
g93
g94
ssg82
g2923
sg75
(lp2930
S'REQUEST_URI'
p2931
asbag68
(g89
g70
NtRp2932
(dp2933
g73
(dp2934
g100
g101
ssg82
g2923
sg75
(lp2935
S':'
asbag68
(g89
g70
NtRp2936
(dp2937
g73
(dp2938
sg82
g2923
sg75
(lp2939
g68
(g69
g70
NtRp2940
(dp2941
g73
(dp2942
g81
I3
ssg82
g2936
sg75
(lp2943
g1421
asbasbasbag68
(g84
g70
NtRp2944
(dp2945
g73
(dp2946
sg82
g2667
sg75
(lp2947
g68
(g89
g70
NtRp2948
(dp2949
g73
(dp2950
g93
g94
ssg82
g2944
sg75
(lp2951
S'SCRIPT_NAME'
p2952
asbag68
(g89
g70
NtRp2953
(dp2954
g73
(dp2955
g100
g101
ssg82
g2944
sg75
(lp2956
S':'
asbag68
(g89
g70
NtRp2957
(dp2958
g73
(dp2959
sg82
g2944
sg75
(lp2960
g68
(g69
g70
NtRp2961
(dp2962
g73
(dp2963
g81
I3
ssg82
g2957
sg75
(lp2964
S''
asbasbasbag68
(g84
g70
NtRp2965
(dp2966
g73
(dp2967
sg82
g2667
sg75
(lp2968
g68
(g89
g70
NtRp2969
(dp2970
g73
(dp2971
g93
g94
ssg82
g2965
sg75
(lp2972
S'SERVER_NAME'
p2973
asbag68
(g89
g70
NtRp2974
(dp2975
g73
(dp2976
g100
g101
ssg82
g2965
sg75
(lp2977
S':'
asbag68
(g89
g70
NtRp2978
(dp2979
g73
(dp2980
sg82
g2965
sg75
(lp2981
g68
(g69
g70
NtRp2982
(dp2983
g73
(dp2984
g81
I3
ssg82
g2978
sg75
(lp2985
g1571
asbasbasbag68
(g84
g70
NtRp2986
(dp2987
g73
(dp2988
sg82
g2667
sg75
(lp2989
g68
(g89
g70
NtRp2990
(dp2991
g73
(dp2992
g93
g94
ssg82
g2986
sg75
(lp2993
S'SERVER_PORT'
p2994
asbag68
(g89
g70
NtRp2995
(dp2996
g73
(dp2997
g100
g101
ssg82
g2986
sg75
(lp2998
S':'
asbag68
(g89
g70
NtRp2999
(dp3000
g73
(dp3001
sg82
g2986
sg75
(lp3002
g68
(g69
g70
NtRp3003
(dp3004
g73
(dp3005
g81
I3
ssg82
g2999
sg75
(lp3006
g1593
asbasbasbag68
(g84
g70
NtRp3007
(dp3008
g73
(dp3009
sg82
g2667
sg75
(lp3010
g68
(g89
g70
NtRp3011
(dp3012
g73
(dp3013
g93
g94
ssg82
g3007
sg75
(lp3014
S'SERVER_PROTOCOL'
p3015
asbag68
(g89
g70
NtRp3016
(dp3017
g73
(dp3018
g100
g101
ssg82
g3007
sg75
(lp3019
S':'
asbag68
(g89
g70
NtRp3020
(dp3021
g73
(dp3022
sg82
g3007
sg75
(lp3023
g68
(g69
g70
NtRp3024
(dp3025
g73
(dp3026
g81
I3
ssg82
g3020
sg75
(lp3027
g1615
asbasbasbag68
(g84
g70
NtRp3028
(dp3029
g73
(dp3030
sg82
g2667
sg75
(lp3031
g68
(g89
g70
NtRp3032
(dp3033
g73
(dp3034
g93
g94
ssg82
g3028
sg75
(lp3035
S'SERVER_SOFTWARE'
p3036
asbag68
(g89
g70
NtRp3037
(dp3038
g73
(dp3039
g100
g101
ssg82
g3028
sg75
(lp3040
S':'
asbag68
(g89
g70
NtRp3041
(dp3042
g73
(dp3043
sg82
g3028
sg75
(lp3044
g68
(g69
g70
NtRp3045
(dp3046
g73
(dp3047
g81
I3
ssg82
g3041
sg75
(lp3048
g1637
asbasbasbag68
(g84
g70
NtRp3049
(dp3050
g73
(dp3051
sg82
g2667
sg75
(lp3052
g68
(g89
g70
NtRp3053
(dp3054
g73
(dp3055
g93
g94
ssg82
g3049
sg75
(lp3056
S'wsgi.errors'
p3057
asbag68
(g89
g70
NtRp3058
(dp3059
g73
(dp3060
g100
g101
ssg82
g3049
sg75
(lp3061
S':'
asbag68
(g89
g70
NtRp3062
(dp3063
g73
(dp3064
sg82
g3049
sg75
(lp3065
g68
(g69
g70
NtRp3066
(dp3067
g73
(dp3068
g81
I3
ssg82
g3062
sg75
(lp3069
S"<open file '<stderr>', mode 'w' at 0x100284270>"
p3070
asbasbasbag68
(g84
g70
NtRp3071
(dp3072
g73
(dp3073
sg82
g2667
sg75
(lp3074
g68
(g89
g70
NtRp3075
(dp3076
g73
(dp3077
g93
g94
ssg82
g3071
sg75
(lp3078
S'wsgi.file_wrapper'
p3079
asbag68
(g89
g70
NtRp3080
(dp3081
g73
(dp3082
g100
g101
ssg82
g3071
sg75
(lp3083
S':'
asbag68
(g89
g70
NtRp3084
(dp3085
g73
(dp3086
sg82
g3071
sg75
(lp3087
g68
(g69
g70
NtRp3088
(dp3089
g73
(dp3090
g81
I3
ssg82
g3084
sg75
(lp3091
S'<class wsgiref.util.FileWrapper at 0x101c53bb0>'
p3092
asbasbasbag68
(g84
g70
NtRp3093
(dp3094
g73
(dp3095
sg82
g2667
sg75
(lp3096
g68
(g89
g70
NtRp3097
(dp3098
g73
(dp3099
g93
g94
ssg82
g3093
sg75
(lp3100
S'wsgi.input'
p3101
asbag68
(g89
g70
NtRp3102
(dp3103
g73
(dp3104
g100
g101
ssg82
g3093
sg75
(lp3105
S':'
asbag68
(g89
g70
NtRp3106
(dp3107
g73
(dp3108
sg82
g3093
sg75
(lp3109
g68
(g69
g70
NtRp3110
(dp3111
g73
(dp3112
g81
I3
ssg82
g3106
sg75
(lp3113
S'<cStringIO.StringO object at 0x1076fc228>'
p3114
asbasbasbag68
(g84
g70
NtRp3115
(dp3116
g73
(dp3117
sg82
g2667
sg75
(lp3118
g68
(g89
g70
NtRp3119
(dp3120
g73
(dp3121
g93
g94
ssg82
g3115
sg75
(lp3122
S'wsgi.multiprocess'
p3123
asbag68
(g89
g70
NtRp3124
(dp3125
g73
(dp3126
g100
g101
ssg82
g3115
sg75
(lp3127
S':'
asbag68
(g89
g70
NtRp3128
(dp3129
g73
(dp3130
sg82
g3115
sg75
(lp3131
g68
(g69
g70
NtRp3132
(dp3133
g73
(dp3134
g81
I3
ssg82
g3128
sg75
(lp3135
g111
asbasbasbag68
(g84
g70
NtRp3136
(dp3137
g73
(dp3138
sg82
g2667
sg75
(lp3139
g68
(g89
g70
NtRp3140
(dp3141
g73
(dp3142
g93
g94
ssg82
g3136
sg75
(lp3143
S'wsgi.multithread'
p3144
asbag68
(g89
g70
NtRp3145
(dp3146
g73
(dp3147
g100
g101
ssg82
g3136
sg75
(lp3148
S':'
asbag68
(g89
g70
NtRp3149
(dp3150
g73
(dp3151
sg82
g3136
sg75
(lp3152
g68
(g69
g70
NtRp3153
(dp3154
g73
(dp3155
g81
I3
ssg82
g3149
sg75
(lp3156
g1876
asbasbasbag68
(g84
g70
NtRp3157
(dp3158
g73
(dp3159
sg82
g2667
sg75
(lp3160
g68
(g89
g70
NtRp3161
(dp3162
g73
(dp3163
g93
g94
ssg82
g3157
sg75
(lp3164
S'wsgi.run_once'
p3165
asbag68
(g89
g70
NtRp3166
(dp3167
g73
(dp3168
g100
g101
ssg82
g3157
sg75
(lp3169
S':'
asbag68
(g89
g70
NtRp3170
(dp3171
g73
(dp3172
sg82
g3157
sg75
(lp3173
g68
(g69
g70
NtRp3174
(dp3175
g73
(dp3176
g81
I3
ssg82
g3170
sg75
(lp3177
g111
asbasbasbag68
(g84
g70
NtRp3178
(dp3179
g73
(dp3180
sg82
g2667
sg75
(lp3181
g68
(g89
g70
NtRp3182
(dp3183
g73
(dp3184
g93
g94
ssg82
g3178
sg75
(lp3185
S'wsgi.url_scheme'
p3186
asbag68
(g89
g70
NtRp3187
(dp3188
g73
(dp3189
g100
g101
ssg82
g3178
sg75
(lp3190
S':'
asbag68
(g89
g70
NtRp3191
(dp3192
g73
(dp3193
sg82
g3178
sg75
(lp3194
g68
(g69
g70
NtRp3195
(dp3196
g73
(dp3197
g81
I3
ssg82
g3191
sg75
(lp3198
g1919
asbasbasbag68
(g84
g70
NtRp3199
(dp3200
g73
(dp3201
sg82
g2667
sg75
(lp3202
g68
(g89
g70
NtRp3203
(dp3204
g73
(dp3205
g93
g94
ssg82
g3199
sg75
(lp3206
S'wsgi.version'
p3207
asbag68
(g89
g70
NtRp3208
(dp3209
g73
(dp3210
g100
g101
ssg82
g3199
sg75
(lp3211
S':'
asbag68
(g89
g70
NtRp3212
(dp3213
g73
(dp3214
sg82
g3199
sg75
(lp3215
g68
(g69
g70
NtRp3216
(dp3217
g73
(dp3218
g81
I3
ssg82
g3212
sg75
(lp3219
S'1'
asbasbasbasbasbasbasbasbasbasbasbasbasbsS'frames'
p3220
(lp3221
(dp3222
S'file'
p3223
S'/Users/Karl/code/web2py/gluon/restricted.py'
p3224
sS'dump'
p3225
(dp3226
S'code'
p3227
S"'def index():\\n    images = db().select(db.image.A...uest, db)\\nresponse._vars=response._caller(index)\\n'"
p3228
sS'layer'
p3229
S"'/Users/Karl/code/web2py/applications/newsFeed/controllers/default.py'"
p3230
sS'global compile2'
p3231
S'<function compile2>'
p3232
sS'ccode'
p3233
S'undefined'
p3234
ssS'lnum'
p3235
I208
sS'lines'
p3236
(dp3237
I203
S"    environment['__name__'] = '__restricted__'"
p3238
sI204
S'    try:'
p3239
sI205
S'        if type(code) == types.CodeType:'
p3240
sI206
S'            ccode = code'
p3241
sI207
S'        else:'
p3242
sI208
S'            ccode = compile2(code,layer)'
p3243
sI209
S'        exec ccode in environment'
p3244
sI210
S'    except HTTP:'
p3245
sI211
S'        raise'
p3246
sI212
S'    except RestrictedError:'
p3247
ssS'call'
p3248
S"(code='def index():\\n    images = db().select(db.image.A...uest, db)\\nresponse._vars=response._caller(index)\\n', environment={'A': <class 'gluon.html.A'>, 'B': <class 'gluon.html.B'>, 'BEAUTIFY': <class 'gluon.html.BEAUTIFY'>, 'BODY': <class 'gluon.html.BODY'>, 'BR': <class 'gluon.html.BR'>, 'BUTTON': <class 'gluon.html.BUTTON'>, 'CAT': <class 'gluon.html.CAT'>, 'CENTER': <class 'gluon.html.CENTER'>, 'CLEANUP': <class 'gluon.validators.CLEANUP'>, 'CODE': <class 'gluon.html.CODE'>, ...}, layer='/Users/Karl/code/web2py/applications/newsFeed/controllers/default.py')"
p3249
sS'func'
p3250
S'restricted'
p3251
sa(dp3252
g3223
S'/Users/Karl/code/web2py/gluon/restricted.py'
p3253
sg3225
(dp3254
S'builtincompile'
p3255
S'<built-in function compile>'
p3256
sS'code'
p3257
S"'def index():\\n    images = db().select(db.image.A...uest, db)\\nresponse._vars=response._caller(index)\\n'"
p3258
sS'code.rstrip'
p3259
S'<built-in method rstrip of str object>'
p3260
sS').replace'
p3261
g3234
sS'layer'
p3262
S"'/Users/Karl/code/web2py/applications/newsFeed/controllers/default.py'"
p3263
ssg3235
I193
sg3236
(dp3264
I192
S'    """'
p3265
sI193
S"    return compile(code.rstrip().replace('\\r\\n','\\n')+'\\n', layer, 'exec')"
p3266
sI194
S''
sI195
S"def restricted(code, environment=None, layer='Unknown'):"
p3267
sI196
S'    """'
p3268
sI197
S'    runs code in environment and returns the output. if an exception occurs'
p3269
sI188
S''
sI189
S'def compile2(code,layer):'
p3270
sI190
S'    """'
p3271
sI191
S"    The +'\\n' is necessary else compile fails when code ends in a comment."
p3272
ssg3248
S"(code='def index():\\n    images = db().select(db.image.A...uest, db)\\nresponse._vars=response._caller(index)\\n', layer='/Users/Karl/code/web2py/applications/newsFeed/controllers/default.py')"
p3273
sg3250
S'compile2'
p3274
sasS'pyver'
p3275
S'Python 2.7.3: /Library/Frameworks/Python.framework/Versions/2.7/Resources/Python.app/Contents/MacOS/Python'
p3276
sS'session'
p3277
g68
(g69
g70
NtRp3278
(dp3279
g73
(dp3280
sg75
(lp3281
g68
(g77
g70
NtRp3282
(dp3283
g73
(dp3284
g81
I5
ssg82
Nsg75
(lp3285
sbasbsS'etype'
p3286
S"<type 'exceptions.SyntaxError'>"
p3287
sS'date'
p3288
S'Tue Oct 30 15:36:41 2012'
p3289
sS'response'
p3290
g68
(g69
g70
NtRp3291
(dp3292
g73
(dp3293
sg75
(lp3294
g68
(g77
g70
NtRp3295
(dp3296
g73
(dp3297
g81
I5
ssg82
Nsg75
(lp3298
g68
(g84
g70
NtRp3299
(dp3300
g73
(dp3301
sg82
g3295
sg75
(lp3302
g68
(g89
g70
NtRp3303
(dp3304
g73
(dp3305
g93
g94
ssg82
g3299
sg75
(lp3306
g166
asbag68
(g89
g70
NtRp3307
(dp3308
g73
(dp3309
g100
g101
ssg82
g3299
sg75
(lp3310
S':'
asbag68
(g89
g70
NtRp3311
(dp3312
g73
(dp3313
sg82
g3299
sg75
(lp3314
g68
(g69
g70
NtRp3315
(dp3316
g73
(dp3317
g81
I5
ssg82
g3311
sg75
(lp3318
S'<cStringIO.StringO object at 0x10a78b730>'
p3319
asbasbasbag68
(g84
g70
NtRp3320
(dp3321
g73
(dp3322
sg82
g3295
sg75
(lp3323
g68
(g89
g70
NtRp3324
(dp3325
g73
(dp3326
g93
g94
ssg82
g3320
sg75
(lp3327
g254
asbag68
(g89
g70
NtRp3328
(dp3329
g73
(dp3330
g100
g101
ssg82
g3320
sg75
(lp3331
S':'
asbag68
(g89
g70
NtRp3332
(dp3333
g73
(dp3334
sg82
g3320
sg75
(lp3335
g68
(g69
g70
NtRp3336
(dp3337
g73
(dp3338
g81
I5
ssg82
g3332
sg75
(lp3339
g68
(g77
g70
NtRp3340
(dp3341
g73
(dp3342
g81
I4
ssg82
Nsg75
(lp3343
g68
(g84
g70
NtRp3344
(dp3345
g73
(dp3346
sg82
g3340
sg75
(lp3347
g68
(g89
g70
NtRp3348
(dp3349
g73
(dp3350
g93
g94
ssg82
g3344
sg75
(lp3351
S'session_id_newsfeed'
p3352
asbag68
(g89
g70
NtRp3353
(dp3354
g73
(dp3355
g100
g101
ssg82
g3344
sg75
(lp3356
S':'
asbag68
(g89
g70
NtRp3357
(dp3358
g73
(dp3359
sg82
g3344
sg75
(lp3360
g68
(g69
g70
NtRp3361
(dp3362
g73
(dp3363
g81
I4
ssg82
g3357
sg75
(lp3364
g486
ag68
(g77
g70
NtRp3365
(dp3366
g73
(dp3367
g81
I3
ssg82
Nsg75
(lp3368
g68
(g84
g70
NtRp3369
(dp3370
g73
(dp3371
sg82
g3365
sg75
(lp3372
g68
(g89
g70
NtRp3373
(dp3374
g73
(dp3375
g93
g94
ssg82
g3369
sg75
(lp3376
g305
asbag68
(g89
g70
NtRp3377
(dp3378
g73
(dp3379
g100
g101
ssg82
g3369
sg75
(lp3380
S':'
asbag68
(g89
g70
NtRp3381
(dp3382
g73
(dp3383
sg82
g3369
sg75
(lp3384
g68
(g69
g70
NtRp3385
(dp3386
g73
(dp3387
g81
I3
ssg82
g3381
sg75
(lp3388
S''
asbasbasbag68
(g84
g70
NtRp3389
(dp3390
g73
(dp3391
sg82
g3365
sg75
(lp3392
g68
(g89
g70
NtRp3393
(dp3394
g73
(dp3395
g93
g94
ssg82
g3389
sg75
(lp3396
g326
asbag68
(g89
g70
NtRp3397
(dp3398
g73
(dp3399
g100
g101
ssg82
g3389
sg75
(lp3400
S':'
asbag68
(g89
g70
NtRp3401
(dp3402
g73
(dp3403
sg82
g3389
sg75
(lp3404
g68
(g69
g70
NtRp3405
(dp3406
g73
(dp3407
g81
I3
ssg82
g3401
sg75
(lp3408
S''
asbasbasbag68
(g84
g70
NtRp3409
(dp3410
g73
(dp3411
sg82
g3365
sg75
(lp3412
g68
(g89
g70
NtRp3413
(dp3414
g73
(dp3415
g93
g94
ssg82
g3409
sg75
(lp3416
g347
asbag68
(g89
g70
NtRp3417
(dp3418
g73
(dp3419
g100
g101
ssg82
g3409
sg75
(lp3420
S':'
asbag68
(g89
g70
NtRp3421
(dp3422
g73
(dp3423
sg82
g3409
sg75
(lp3424
g68
(g69
g70
NtRp3425
(dp3426
g73
(dp3427
g81
I3
ssg82
g3421
sg75
(lp3428
S''
asbasbasbag68
(g84
g70
NtRp3429
(dp3430
g73
(dp3431
sg82
g3365
sg75
(lp3432
g68
(g89
g70
NtRp3433
(dp3434
g73
(dp3435
g93
g94
ssg82
g3429
sg75
(lp3436
g368
asbag68
(g89
g70
NtRp3437
(dp3438
g73
(dp3439
g100
g101
ssg82
g3429
sg75
(lp3440
S':'
asbag68
(g89
g70
NtRp3441
(dp3442
g73
(dp3443
sg82
g3429
sg75
(lp3444
g68
(g69
g70
NtRp3445
(dp3446
g73
(dp3447
g81
I3
ssg82
g3441
sg75
(lp3448
S''
asbasbasbag68
(g84
g70
NtRp3449
(dp3450
g73
(dp3451
sg82
g3365
sg75
(lp3452
g68
(g89
g70
NtRp3453
(dp3454
g73
(dp3455
g93
g94
ssg82
g3449
sg75
(lp3456
g389
asbag68
(g89
g70
NtRp3457
(dp3458
g73
(dp3459
g100
g101
ssg82
g3449
sg75
(lp3460
S':'
asbag68
(g89
g70
NtRp3461
(dp3462
g73
(dp3463
sg82
g3449
sg75
(lp3464
g68
(g69
g70
NtRp3465
(dp3466
g73
(dp3467
g81
I3
ssg82
g3461
sg75
(lp3468
S''
asbasbasbag68
(g84
g70
NtRp3469
(dp3470
g73
(dp3471
sg82
g3365
sg75
(lp3472
g68
(g89
g70
NtRp3473
(dp3474
g73
(dp3475
g93
g94
ssg82
g3469
sg75
(lp3476
g410
asbag68
(g89
g70
NtRp3477
(dp3478
g73
(dp3479
g100
g101
ssg82
g3469
sg75
(lp3480
S':'
asbag68
(g89
g70
NtRp3481
(dp3482
g73
(dp3483
sg82
g3469
sg75
(lp3484
g68
(g69
g70
NtRp3485
(dp3486
g73
(dp3487
g81
I3
ssg82
g3481
sg75
(lp3488
S'/'
asbasbasbag68
(g84
g70
NtRp3489
(dp3490
g73
(dp3491
sg82
g3365
sg75
(lp3492
g68
(g89
g70
NtRp3493
(dp3494
g73
(dp3495
g93
g94
ssg82
g3489
sg75
(lp3496
g431
asbag68
(g89
g70
NtRp3497
(dp3498
g73
(dp3499
g100
g101
ssg82
g3489
sg75
(lp3500
S':'
asbag68
(g89
g70
NtRp3501
(dp3502
g73
(dp3503
sg82
g3489
sg75
(lp3504
g68
(g69
g70
NtRp3505
(dp3506
g73
(dp3507
g81
I3
ssg82
g3501
sg75
(lp3508
S''
asbasbasbag68
(g84
g70
NtRp3509
(dp3510
g73
(dp3511
sg82
g3365
sg75
(lp3512
g68
(g89
g70
NtRp3513
(dp3514
g73
(dp3515
g93
g94
ssg82
g3509
sg75
(lp3516
g452
asbag68
(g89
g70
NtRp3517
(dp3518
g73
(dp3519
g100
g101
ssg82
g3509
sg75
(lp3520
S':'
asbag68
(g89
g70
NtRp3521
(dp3522
g73
(dp3523
sg82
g3509
sg75
(lp3524
g68
(g69
g70
NtRp3525
(dp3526
g73
(dp3527
g81
I3
ssg82
g3521
sg75
(lp3528
S''
asbasbasbasbasbasbasbasbasbasbasbag68
(g84
g70
NtRp3529
(dp3530
g73
(dp3531
sg82
g3295
sg75
(lp3532
g68
(g89
g70
NtRp3533
(dp3534
g73
(dp3535
g93
g94
ssg82
g3529
sg75
(lp3536
S'delimiters'
p3537
asbag68
(g89
g70
NtRp3538
(dp3539
g73
(dp3540
g100
g101
ssg82
g3529
sg75
(lp3541
S':'
asbag68
(g89
g70
NtRp3542
(dp3543
g73
(dp3544
sg82
g3529
sg75
(lp3545
g68
(g69
g70
NtRp3546
(dp3547
g73
(dp3548
g81
I5
ssg82
g3542
sg75
(lp3549
g68
(g77
g70
NtRp3550
(dp3551
g73
(dp3552
g81
I4
ssg82
Nsg75
(lp3553
g68
(g84
g70
NtRp3554
(dp3555
g73
(dp3556
sg82
g3550
sg75
(lp3557
g68
(g89
g70
NtRp3558
(dp3559
g73
(dp3560
sg82
g3554
sg75
(lp3561
g68
(g69
g70
NtRp3562
(dp3563
g73
(dp3564
g81
I4
ssg82
g3558
sg75
(lp3565
S'{{'
p3566
asbasbasbag68
(g84
g70
NtRp3567
(dp3568
g73
(dp3569
sg82
g3550
sg75
(lp3570
g68
(g89
g70
NtRp3571
(dp3572
g73
(dp3573
sg82
g3567
sg75
(lp3574
g68
(g69
g70
NtRp3575
(dp3576
g73
(dp3577
g81
I4
ssg82
g3571
sg75
(lp3578
S'}}'
p3579
asbasbasbasbasbasbasbag68
(g84
g70
NtRp3580
(dp3581
g73
(dp3582
sg82
g3295
sg75
(lp3583
g68
(g89
g70
NtRp3584
(dp3585
g73
(dp3586
g93
g94
ssg82
g3580
sg75
(lp3587
S'files'
p3588
asbag68
(g89
g70
NtRp3589
(dp3590
g73
(dp3591
g100
g101
ssg82
g3580
sg75
(lp3592
S':'
asbag68
(g89
g70
NtRp3593
(dp3594
g73
(dp3595
sg82
g3580
sg75
(lp3596
g68
(g69
g70
NtRp3597
(dp3598
g73
(dp3599
g81
I5
ssg82
g3593
sg75
(lp3600
g68
(g77
g70
NtRp3601
(dp3602
g73
(dp3603
g81
I4
ssg82
Nsg75
(lp3604
sbasbasbasbag68
(g84
g70
NtRp3605
(dp3606
g73
(dp3607
sg82
g3295
sg75
(lp3608
g68
(g89
g70
NtRp3609
(dp3610
g73
(dp3611
g93
g94
ssg82
g3605
sg75
(lp3612
S'flash'
p3613
asbag68
(g89
g70
NtRp3614
(dp3615
g73
(dp3616
g100
g101
ssg82
g3605
sg75
(lp3617
S':'
asbag68
(g89
g70
NtRp3618
(dp3619
g73
(dp3620
sg82
g3605
sg75
(lp3621
g68
(g69
g70
NtRp3622
(dp3623
g73
(dp3624
g81
I5
ssg82
g3618
sg75
(lp3625
S''
asbasbasbag68
(g84
g70
NtRp3626
(dp3627
g73
(dp3628
sg82
g3295
sg75
(lp3629
g68
(g89
g70
NtRp3630
(dp3631
g73
(dp3632
g93
g94
ssg82
g3626
sg75
(lp3633
S'generic_patterns'
p3634
asbag68
(g89
g70
NtRp3635
(dp3636
g73
(dp3637
g100
g101
ssg82
g3626
sg75
(lp3638
S':'
asbag68
(g89
g70
NtRp3639
(dp3640
g73
(dp3641
sg82
g3626
sg75
(lp3642
g68
(g69
g70
NtRp3643
(dp3644
g73
(dp3645
g81
I5
ssg82
g3639
sg75
(lp3646
g68
(g77
g70
NtRp3647
(dp3648
g73
(dp3649
g81
I4
ssg82
Nsg75
(lp3650
sbasbasbasbag68
(g84
g70
NtRp3651
(dp3652
g73
(dp3653
sg82
g3295
sg75
(lp3654
g68
(g89
g70
NtRp3655
(dp3656
g73
(dp3657
g93
g94
ssg82
g3651
sg75
(lp3658
S'google_analytics_id'
p3659
asbag68
(g89
g70
NtRp3660
(dp3661
g73
(dp3662
g100
g101
ssg82
g3651
sg75
(lp3663
S':'
asbag68
(g89
g70
NtRp3664
(dp3665
g73
(dp3666
sg82
g3651
sg75
(lp3667
g68
(g69
g70
NtRp3668
(dp3669
g73
(dp3670
g81
I5
ssg82
g3664
sg75
(lp3671
S'None'
p3672
asbasbasbag68
(g84
g70
NtRp3673
(dp3674
g73
(dp3675
sg82
g3295
sg75
(lp3676
g68
(g89
g70
NtRp3677
(dp3678
g73
(dp3679
g93
g94
ssg82
g3673
sg75
(lp3680
S'headers'
p3681
asbag68
(g89
g70
NtRp3682
(dp3683
g73
(dp3684
g100
g101
ssg82
g3673
sg75
(lp3685
S':'
asbag68
(g89
g70
NtRp3686
(dp3687
g73
(dp3688
sg82
g3673
sg75
(lp3689
g68
(g69
g70
NtRp3690
(dp3691
g73
(dp3692
g81
I5
ssg82
g3686
sg75
(lp3693
g68
(g77
g70
NtRp3694
(dp3695
g73
(dp3696
g81
I4
ssg82
Nsg75
(lp3697
g68
(g84
g70
NtRp3698
(dp3699
g73
(dp3700
sg82
g3694
sg75
(lp3701
g68
(g89
g70
NtRp3702
(dp3703
g73
(dp3704
g93
g94
ssg82
g3698
sg75
(lp3705
S'X-Powered-By'
p3706
asbag68
(g89
g70
NtRp3707
(dp3708
g73
(dp3709
g100
g101
ssg82
g3698
sg75
(lp3710
S':'
asbag68
(g89
g70
NtRp3711
(dp3712
g73
(dp3713
sg82
g3698
sg75
(lp3714
g68
(g69
g70
NtRp3715
(dp3716
g73
(dp3717
g81
I4
ssg82
g3711
sg75
(lp3718
S'web2py'
p3719
asbasbasbasbasbasbasbag68
(g84
g70
NtRp3720
(dp3721
g73
(dp3722
sg82
g3295
sg75
(lp3723
g68
(g89
g70
NtRp3724
(dp3725
g73
(dp3726
g93
g94
ssg82
g3720
sg75
(lp3727
S'menu'
p3728
asbag68
(g89
g70
NtRp3729
(dp3730
g73
(dp3731
g100
g101
ssg82
g3720
sg75
(lp3732
S':'
asbag68
(g89
g70
NtRp3733
(dp3734
g73
(dp3735
sg82
g3720
sg75
(lp3736
g68
(g69
g70
NtRp3737
(dp3738
g73
(dp3739
g81
I5
ssg82
g3733
sg75
(lp3740
g68
(g77
g70
NtRp3741
(dp3742
g73
(dp3743
g81
I4
ssg82
Nsg75
(lp3744
g68
(g84
g70
NtRp3745
(dp3746
g73
(dp3747
sg82
g3741
sg75
(lp3748
g68
(g89
g70
NtRp3749
(dp3750
g73
(dp3751
sg82
g3745
sg75
(lp3752
g68
(g69
g70
NtRp3753
(dp3754
g73
(dp3755
g81
I4
ssg82
g3749
sg75
(lp3756
g68
(g77
g70
NtRp3757
(dp3758
g73
(dp3759
g81
I3
ssg82
Nsg75
(lp3760
g68
(g84
g70
NtRp3761
(dp3762
g73
(dp3763
sg82
g3757
sg75
(lp3764
g68
(g89
g70
NtRp3765
(dp3766
g73
(dp3767
sg82
g3761
sg75
(lp3768
g68
(g69
g70
NtRp3769
(dp3770
g73
(dp3771
g81
I3
ssg82
g3765
sg75
(lp3772
cgluon.languages
lazyT_unpickle
p3773
(S's\x04\x00\x00\x00Home'
tRp3774
asbasbasbag68
(g84
g70
NtRp3775
(dp3776
g73
(dp3777
sg82
g3757
sg75
(lp3778
g68
(g89
g70
NtRp3779
(dp3780
g73
(dp3781
sg82
g3775
sg75
(lp3782
g68
(g69
g70
NtRp3783
(dp3784
g73
(dp3785
g81
I3
ssg82
g3779
sg75
(lp3786
g111
asbasbasbag68
(g84
g70
NtRp3787
(dp3788
g73
(dp3789
sg82
g3757
sg75
(lp3790
g68
(g89
g70
NtRp3791
(dp3792
g73
(dp3793
sg82
g3787
sg75
(lp3794
g68
(g69
g70
NtRp3795
(dp3796
g73
(dp3797
g81
I3
ssg82
g3791
sg75
(lp3798
S'/newsFeed/default/index'
p3799
asbasbasbag68
(g84
g70
NtRp3800
(dp3801
g73
(dp3802
sg82
g3757
sg75
(lp3803
g68
(g89
g70
NtRp3804
(dp3805
g73
(dp3806
sg82
g3800
sg75
(lp3807
g68
(g69
g70
NtRp3808
(dp3809
g73
(dp3810
g81
I3
ssg82
g3804
sg75
(lp3811
g68
(g77
g70
NtRp3812
(dp3813
g73
(dp3814
g81
I2
ssg82
Nsg75
(lp3815
sbasbasbasbasbasbasbasbag68
(g84
g70
NtRp3816
(dp3817
g73
(dp3818
sg82
g3741
sg75
(lp3819
g68
(g89
g70
NtRp3820
(dp3821
g73
(dp3822
sg82
g3816
sg75
(lp3823
g68
(g69
g70
NtRp3824
(dp3825
g73
(dp3826
g81
I4
ssg82
g3820
sg75
(lp3827
g68
(g77
g70
NtRp3828
(dp3829
g73
(dp3830
g81
I3
ssg82
Nsg75
(lp3831
g68
(g84
g70
NtRp3832
(dp3833
g73
(dp3834
sg82
g3828
sg75
(lp3835
g68
(g89
g70
NtRp3836
(dp3837
g73
(dp3838
sg82
g3832
sg75
(lp3839
g68
(g69
g70
NtRp3840
(dp3841
g73
(dp3842
g81
I3
ssg82
g3836
sg75
(lp3843
g68
(cgluon.html
SPAN
p3844
g70
NtRp3845
(dp3846
g73
(dp3847
g93
S'color:yellow'
p3848
ssg82
Nsg75
(lp3849
g3719
asbasbasbasbag68
(g84
g70
NtRp3850
(dp3851
g73
(dp3852
sg82
g3828
sg75
(lp3853
g68
(g89
g70
NtRp3854
(dp3855
g73
(dp3856
sg82
g3850
sg75
(lp3857
g68
(g69
g70
NtRp3858
(dp3859
g73
(dp3860
g81
I3
ssg82
g3854
sg75
(lp3861
g111
asbasbasbag68
(g84
g70
NtRp3862
(dp3863
g73
(dp3864
sg82
g3828
sg75
(lp3865
g68
(g89
g70
NtRp3866
(dp3867
g73
(dp3868
sg82
g3862
sg75
(lp3869
g68
(g69
g70
NtRp3870
(dp3871
g73
(dp3872
g81
I3
ssg82
g3866
sg75
(lp3873
S'http://web2py.com'
p3874
asbasbasbag68
(g84
g70
NtRp3875
(dp3876
g73
(dp3877
sg82
g3828
sg75
(lp3878
g68
(g89
g70
NtRp3879
(dp3880
g73
(dp3881
sg82
g3875
sg75
(lp3882
g68
(g69
g70
NtRp3883
(dp3884
g73
(dp3885
g81
I3
ssg82
g3879
sg75
(lp3886
g68
(g77
g70
NtRp3887
(dp3888
g73
(dp3889
g81
I2
ssg82
Nsg75
(lp3890
g68
(g84
g70
NtRp3891
(dp3892
g73
(dp3893
sg82
g3887
sg75
(lp3894
g68
(g89
g70
NtRp3895
(dp3896
g73
(dp3897
sg82
g3891
sg75
(lp3898
g68
(g69
g70
NtRp3899
(dp3900
g73
(dp3901
g81
I2
ssg82
g3895
sg75
(lp3902
g68
(g77
g70
NtRp3903
(dp3904
g73
(dp3905
g81
I1
ssg82
Nsg75
(lp3906
g68
(g84
g70
NtRp3907
(dp3908
g73
(dp3909
sg82
g3903
sg75
(lp3910
g68
(g89
g70
NtRp3911
(dp3912
g73
(dp3913
sg82
g3907
sg75
(lp3914
g68
(g69
g70
NtRp3915
(dp3916
g73
(dp3917
g81
I1
ssg82
g3911
sg75
(lp3918
g3773
(S's\x08\x00\x00\x00My Sites'
tRp3919
asbasbasbag68
(g84
g70
NtRp3920
(dp3921
g73
(dp3922
sg82
g3903
sg75
(lp3923
g68
(g89
g70
NtRp3924
(dp3925
g73
(dp3926
sg82
g3920
sg75
(lp3927
g68
(g69
g70
NtRp3928
(dp3929
g73
(dp3930
g81
I1
ssg82
g3924
sg75
(lp3931
I00
asbasbasbag68
(g84
g70
NtRp3932
(dp3933
g73
(dp3934
sg82
g3903
sg75
(lp3935
g68
(g89
g70
NtRp3936
(dp3937
g73
(dp3938
sg82
g3932
sg75
(lp3939
g68
(g69
g70
NtRp3940
(dp3941
g73
(dp3942
g81
I1
ssg82
g3936
sg75
(lp3943
S'/admin/default/site'
p3944
asbasbasbasbasbasbasbag68
(g84
g70
NtRp3945
(dp3946
g73
(dp3947
sg82
g3887
sg75
(lp3948
g68
(g89
g70
NtRp3949
(dp3950
g73
(dp3951
sg82
g3945
sg75
(lp3952
g68
(g69
g70
NtRp3953
(dp3954
g73
(dp3955
g81
I2
ssg82
g3949
sg75
(lp3956
g68
(g77
g70
NtRp3957
(dp3958
g73
(dp3959
g81
I1
ssg82
Nsg75
(lp3960
g68
(g84
g70
NtRp3961
(dp3962
g73
(dp3963
sg82
g3957
sg75
(lp3964
g68
(g89
g70
NtRp3965
(dp3966
g73
(dp3967
sg82
g3961
sg75
(lp3968
g68
(g69
g70
NtRp3969
(dp3970
g73
(dp3971
g81
I1
ssg82
g3965
sg75
(lp3972
g3773
(S's\x08\x00\x00\x00This App'
tRp3973
asbasbasbag68
(g84
g70
NtRp3974
(dp3975
g73
(dp3976
sg82
g3957
sg75
(lp3977
g68
(g89
g70
NtRp3978
(dp3979
g73
(dp3980
sg82
g3974
sg75
(lp3981
g68
(g69
g70
NtRp3982
(dp3983
g73
(dp3984
g81
I1
ssg82
g3978
sg75
(lp3985
I00
asbasbasbag68
(g84
g70
NtRp3986
(dp3987
g73
(dp3988
sg82
g3957
sg75
(lp3989
g68
(g89
g70
NtRp3990
(dp3991
g73
(dp3992
sg82
g3986
sg75
(lp3993
g68
(g69
g70
NtRp3994
(dp3995
g73
(dp3996
g81
I1
ssg82
g3990
sg75
(lp3997
S'/admin/default/design/newsFeed'
p3998
asbasbasbag68
(g84
g70
NtRp3999
(dp4000
g73
(dp4001
sg82
g3957
sg75
(lp4002
g68
(g89
g70
NtRp4003
(dp4004
g73
(dp4005
sg82
g3999
sg75
(lp4006
g68
(g69
g70
NtRp4007
(dp4008
g73
(dp4009
g81
I1
ssg82
g4003
sg75
(lp4010
(lp4011
(g3773
(S's\n\x00\x00\x00Controller'
tRp4012
I00
S'/admin/default/edit/newsFeed/controllers/default.py'
tp4013
a(g3773
(S's\x04\x00\x00\x00View'
tRp4014
I00
S'/admin/default/edit/newsFeed/views/default/index.html'
tp4015
a(g3773
(S's\x06\x00\x00\x00Layout'
tRp4016
I00
S'/admin/default/edit/newsFeed/views/layout.html'
tp4017
a(g3773
(S's\n\x00\x00\x00Stylesheet'
tRp4018
I00
S'/admin/default/edit/newsFeed/static/css/web2py.css'
tp4019
a(g3773
(S's\x08\x00\x00\x00DB Model'
tRp4020
I00
S'/admin/default/edit/newsFeed/models/db.py'
tp4021
a(g3773
(S's\n\x00\x00\x00Menu Model'
tRp4022
I00
S'/admin/default/edit/newsFeed/models/menu.py'
tp4023
a(g3773
(S's\x08\x00\x00\x00Database'
tRp4024
I00
S'/newsFeed/appadmin/index'
tp4025
a(g3773
(S's\x06\x00\x00\x00Errors'
tRp4026
I00
S'/admin/default/errors/newsFeed'
tp4027
a(g3773
(S's\x05\x00\x00\x00About'
tRp4028
I00
S'/admin/default/about/newsFeed'
tp4029
aasbasbasbasbasbasbasbag68
(g84
g70
NtRp4030
(dp4031
g73
(dp4032
sg82
g3887
sg75
(lp4033
g68
(g89
g70
NtRp4034
(dp4035
g73
(dp4036
sg82
g4030
sg75
(lp4037
g68
(g69
g70
NtRp4038
(dp4039
g73
(dp4040
g81
I2
ssg82
g4034
sg75
(lp4041
g68
(g77
g70
NtRp4042
(dp4043
g73
(dp4044
g81
I1
ssg82
Nsg75
(lp4045
g68
(g84
g70
NtRp4046
(dp4047
g73
(dp4048
sg82
g4042
sg75
(lp4049
g68
(g89
g70
NtRp4050
(dp4051
g73
(dp4052
sg82
g4046
sg75
(lp4053
g68
(g69
g70
NtRp4054
(dp4055
g73
(dp4056
g81
I1
ssg82
g4050
sg75
(lp4057
S'web2py.com'
p4058
asbasbasbag68
(g84
g70
NtRp4059
(dp4060
g73
(dp4061
sg82
g4042
sg75
(lp4062
g68
(g89
g70
NtRp4063
(dp4064
g73
(dp4065
sg82
g4059
sg75
(lp4066
g68
(g69
g70
NtRp4067
(dp4068
g73
(dp4069
g81
I1
ssg82
g4063
sg75
(lp4070
I00
asbasbasbag68
(g84
g70
NtRp4071
(dp4072
g73
(dp4073
sg82
g4042
sg75
(lp4074
g68
(g89
g70
NtRp4075
(dp4076
g73
(dp4077
sg82
g4071
sg75
(lp4078
g68
(g69
g70
NtRp4079
(dp4080
g73
(dp4081
g81
I1
ssg82
g4075
sg75
(lp4082
S'http://www.web2py.com'
p4083
asbasbasbag68
(g84
g70
NtRp4084
(dp4085
g73
(dp4086
sg82
g4042
sg75
(lp4087
g68
(g89
g70
NtRp4088
(dp4089
g73
(dp4090
sg82
g4084
sg75
(lp4091
g68
(g69
g70
NtRp4092
(dp4093
g73
(dp4094
g81
I1
ssg82
g4088
sg75
(lp4095
(lp4096
(g3773
(S's\x08\x00\x00\x00Download'
tRp4097
I00
S'http://www.web2py.com/examples/default/download'
p4098
tp4099
a(g3773
(S's\x07\x00\x00\x00Support'
tRp4100
I00
S'http://www.web2py.com/examples/default/support'
p4101
tp4102
a(g3773
(S's\x04\x00\x00\x00Demo'
tRp4103
I00
S'http://web2py.com/demo_admin'
p4104
tp4105
a(g3773
(S's\x0e\x00\x00\x00Quick Examples'
tRp4106
I00
S'http://web2py.com/examples/default/examples'
p4107
tp4108
a(g3773
(S's\x03\x00\x00\x00FAQ'
tRp4109
I00
S'http://web2py.com/AlterEgo'
p4110
tp4111
a(g3773
(S's\x06\x00\x00\x00Videos'
tRp4112
I00
S'http://www.web2py.com/examples/default/videos/'
p4113
tp4114
a(g3773
(S's\x11\x00\x00\x00Free Applications'
tRp4115
I00
S'http://web2py.com/appliances'
p4116
tp4117
a(g3773
(S's\x07\x00\x00\x00Plugins'
tRp4118
I00
S'http://web2py.com/plugins'
p4119
tp4120
a(g3773
(S's\x07\x00\x00\x00Layouts'
tRp4121
I00
S'http://web2py.com/layouts'
p4122
tp4123
a(g3773
(S's\x07\x00\x00\x00Recipes'
tRp4124
I00
S'http://web2pyslices.com/'
p4125
tp4126
a(g3773
(S's\x08\x00\x00\x00Semantic'
tRp4127
I00
S'http://web2py.com/semantic'
p4128
tp4129
aasbasbasbasbasbasbasbag68
(g84
g70
NtRp4130
(dp4131
g73
(dp4132
sg82
g3887
sg75
(lp4133
g68
(g89
g70
NtRp4134
(dp4135
g73
(dp4136
sg82
g4130
sg75
(lp4137
g68
(g69
g70
NtRp4138
(dp4139
g73
(dp4140
g81
I2
ssg82
g4134
sg75
(lp4141
g68
(g77
g70
NtRp4142
(dp4143
g73
(dp4144
g81
I1
ssg82
Nsg75
(lp4145
g68
(g84
g70
NtRp4146
(dp4147
g73
(dp4148
sg82
g4142
sg75
(lp4149
g68
(g89
g70
NtRp4150
(dp4151
g73
(dp4152
sg82
g4146
sg75
(lp4153
g68
(g69
g70
NtRp4154
(dp4155
g73
(dp4156
g81
I1
ssg82
g4150
sg75
(lp4157
g3773
(S's\r\x00\x00\x00Documentation'
tRp4158
asbasbasbag68
(g84
g70
NtRp4159
(dp4160
g73
(dp4161
sg82
g4142
sg75
(lp4162
g68
(g89
g70
NtRp4163
(dp4164
g73
(dp4165
sg82
g4159
sg75
(lp4166
g68
(g69
g70
NtRp4167
(dp4168
g73
(dp4169
g81
I1
ssg82
g4163
sg75
(lp4170
I00
asbasbasbag68
(g84
g70
NtRp4171
(dp4172
g73
(dp4173
sg82
g4142
sg75
(lp4174
g68
(g89
g70
NtRp4175
(dp4176
g73
(dp4177
sg82
g4171
sg75
(lp4178
g68
(g69
g70
NtRp4179
(dp4180
g73
(dp4181
g81
I1
ssg82
g4175
sg75
(lp4182
S'http://www.web2py.com/book'
p4183
asbasbasbag68
(g84
g70
NtRp4184
(dp4185
g73
(dp4186
sg82
g4142
sg75
(lp4187
g68
(g89
g70
NtRp4188
(dp4189
g73
(dp4190
sg82
g4184
sg75
(lp4191
g68
(g69
g70
NtRp4192
(dp4193
g73
(dp4194
g81
I1
ssg82
g4188
sg75
(lp4195
(lp4196
(g3773
(S's\x07\x00\x00\x00Preface'
tRp4197
I00
S'http://www.web2py.com/book/default/chapter/00'
p4198
tp4199
a(g3773
(S's\x0c\x00\x00\x00Introduction'
tRp4200
I00
S'http://www.web2py.com/book/default/chapter/01'
p4201
tp4202
a(g3773
(S's\x06\x00\x00\x00Python'
tRp4203
I00
S'http://www.web2py.com/book/default/chapter/02'
p4204
tp4205
a(g3773
(S's\x08\x00\x00\x00Overview'
tRp4206
I00
S'http://www.web2py.com/book/default/chapter/03'
p4207
tp4208
a(g3773
(S's\x08\x00\x00\x00The Core'
tRp4209
I00
S'http://www.web2py.com/book/default/chapter/04'
p4210
tp4211
a(g3773
(S's\t\x00\x00\x00The Views'
tRp4212
I00
S'http://www.web2py.com/book/default/chapter/05'
p4213
tp4214
a(g3773
(S's\x08\x00\x00\x00Database'
tRp4215
I00
S'http://www.web2py.com/book/default/chapter/06'
p4216
tp4217
a(g3773
(S's\x14\x00\x00\x00Forms and Validators'
tRp4218
I00
S'http://www.web2py.com/book/default/chapter/07'
p4219
tp4220
a(g3773
(S's\r\x00\x00\x00Email and SMS'
tRp4221
I00
S'http://www.web2py.com/book/default/chapter/08'
p4222
tp4223
a(g3773
(S's\x0e\x00\x00\x00Access Control'
tRp4224
I00
S'http://www.web2py.com/book/default/chapter/09'
p4225
tp4226
a(g3773
(S's\x08\x00\x00\x00Services'
tRp4227
I00
S'http://www.web2py.com/book/default/chapter/10'
p4228
tp4229
a(g3773
(S's\x0c\x00\x00\x00Ajax Recipes'
tRp4230
I00
S'http://www.web2py.com/book/default/chapter/11'
p4231
tp4232
a(g3773
(S's\x16\x00\x00\x00Components and Plugins'
tRp4233
I00
S'http://www.web2py.com/book/default/chapter/12'
p4234
tp4235
a(g3773
(S's\x12\x00\x00\x00Deployment Recipes'
tRp4236
I00
S'http://www.web2py.com/book/default/chapter/13'
p4237
tp4238
a(g3773
(S's\r\x00\x00\x00Other Recipes'
tRp4239
I00
S'http://www.web2py.com/book/default/chapter/14'
p4240
tp4241
a(g3773
(S's\r\x00\x00\x00Buy this book'
tRp4242
I00
S'http://stores.lulu.com/web2py'
p4243
tp4244
aasbasbasbasbasbasbasbag68
(g84
g70
NtRp4245
(dp4246
g73
(dp4247
sg82
g3887
sg75
(lp4248
g68
(g89
g70
NtRp4249
(dp4250
g73
(dp4251
sg82
g4245
sg75
(lp4252
g68
(g69
g70
NtRp4253
(dp4254
g73
(dp4255
g81
I2
ssg82
g4249
sg75
(lp4256
g68
(g77
g70
NtRp4257
(dp4258
g73
(dp4259
g81
I1
ssg82
Nsg75
(lp4260
g68
(g84
g70
NtRp4261
(dp4262
g73
(dp4263
sg82
g4257
sg75
(lp4264
g68
(g89
g70
NtRp4265
(dp4266
g73
(dp4267
sg82
g4261
sg75
(lp4268
g68
(g69
g70
NtRp4269
(dp4270
g73
(dp4271
g81
I1
ssg82
g4265
sg75
(lp4272
g3773
(S's\t\x00\x00\x00Community'
tRp4273
asbasbasbag68
(g84
g70
NtRp4274
(dp4275
g73
(dp4276
sg82
g4257
sg75
(lp4277
g68
(g89
g70
NtRp4278
(dp4279
g73
(dp4280
sg82
g4274
sg75
(lp4281
g68
(g69
g70
NtRp4282
(dp4283
g73
(dp4284
g81
I1
ssg82
g4278
sg75
(lp4285
I00
asbasbasbag68
(g84
g70
NtRp4286
(dp4287
g73
(dp4288
sg82
g4257
sg75
(lp4289
g68
(g89
g70
NtRp4290
(dp4291
g73
(dp4292
sg82
g4286
sg75
(lp4293
g68
(g69
g70
NtRp4294
(dp4295
g73
(dp4296
g81
I1
ssg82
g4290
sg75
(lp4297
Nasbasbasbag68
(g84
g70
NtRp4298
(dp4299
g73
(dp4300
sg82
g4257
sg75
(lp4301
g68
(g89
g70
NtRp4302
(dp4303
g73
(dp4304
sg82
g4298
sg75
(lp4305
g68
(g69
g70
NtRp4306
(dp4307
g73
(dp4308
g81
I1
ssg82
g4302
sg75
(lp4309
(lp4310
(g3773
(S's\x06\x00\x00\x00Groups'
tRp4311
I00
S'http://www.web2py.com/examples/default/usergroups'
p4312
tp4313
a(g3773
(S's\x07\x00\x00\x00Twitter'
tRp4314
I00
S'http://twitter.com/web2py'
p4315
tp4316
a(g3773
(S's\t\x00\x00\x00Live Chat'
tRp4317
I00
S'http://webchat.freenode.net/?channels=web2py'
p4318
tp4319
aasbasbasbasbasbasbasbag68
(g84
g70
NtRp4320
(dp4321
g73
(dp4322
sg82
g3887
sg75
(lp4323
g68
(g89
g70
NtRp4324
(dp4325
g73
(dp4326
sg82
g4320
sg75
(lp4327
g68
(g69
g70
NtRp4328
(dp4329
g73
(dp4330
g81
I2
ssg82
g4324
sg75
(lp4331
g68
(g77
g70
NtRp4332
(dp4333
g73
(dp4334
g81
I1
ssg82
Nsg75
(lp4335
g68
(g84
g70
NtRp4336
(dp4337
g73
(dp4338
sg82
g4332
sg75
(lp4339
g68
(g89
g70
NtRp4340
(dp4341
g73
(dp4342
sg82
g4336
sg75
(lp4343
g68
(g69
g70
NtRp4344
(dp4345
g73
(dp4346
g81
I1
ssg82
g4340
sg75
(lp4347
g3773
(S's\x07\x00\x00\x00Plugins'
tRp4348
asbasbasbag68
(g84
g70
NtRp4349
(dp4350
g73
(dp4351
sg82
g4332
sg75
(lp4352
g68
(g89
g70
NtRp4353
(dp4354
g73
(dp4355
sg82
g4349
sg75
(lp4356
g68
(g69
g70
NtRp4357
(dp4358
g73
(dp4359
g81
I1
ssg82
g4353
sg75
(lp4360
I00
asbasbasbag68
(g84
g70
NtRp4361
(dp4362
g73
(dp4363
sg82
g4332
sg75
(lp4364
g68
(g89
g70
NtRp4365
(dp4366
g73
(dp4367
sg82
g4361
sg75
(lp4368
g68
(g69
g70
NtRp4369
(dp4370
g73
(dp4371
g81
I1
ssg82
g4365
sg75
(lp4372
Nasbasbasbag68
(g84
g70
NtRp4373
(dp4374
g73
(dp4375
sg82
g4332
sg75
(lp4376
g68
(g89
g70
NtRp4377
(dp4378
g73
(dp4379
sg82
g4373
sg75
(lp4380
g68
(g69
g70
NtRp4381
(dp4382
g73
(dp4383
g81
I1
ssg82
g4377
sg75
(lp4384
(lp4385
(S'plugin_wiki'
p4386
I00
S'http://web2py.com/examples/default/download'
p4387
tp4388
a(g3773
(S's\r\x00\x00\x00Other Plugins'
tRp4389
I00
g4119
tp4390
a(g3773
(S's\x0e\x00\x00\x00Layout Plugins'
tRp4391
I00
g4122
tp4392
aasbasbasbasbasbasbasbasbasbasbasbasbasbasbasbasbasbasbasbag68
(g84
g70
NtRp4393
(dp4394
g73
(dp4395
sg82
g3295
sg75
(lp4396
g68
(g89
g70
NtRp4397
(dp4398
g73
(dp4399
g93
g94
ssg82
g4393
sg75
(lp4400
S'meta'
p4401
asbag68
(g89
g70
NtRp4402
(dp4403
g73
(dp4404
g100
g101
ssg82
g4393
sg75
(lp4405
S':'
asbag68
(g89
g70
NtRp4406
(dp4407
g73
(dp4408
sg82
g4393
sg75
(lp4409
g68
(g69
g70
NtRp4410
(dp4411
g73
(dp4412
g81
I5
ssg82
g4406
sg75
(lp4413
g68
(g77
g70
NtRp4414
(dp4415
g73
(dp4416
g81
I4
ssg82
Nsg75
(lp4417
g68
(g84
g70
NtRp4418
(dp4419
g73
(dp4420
sg82
g4414
sg75
(lp4421
g68
(g89
g70
NtRp4422
(dp4423
g73
(dp4424
g93
g94
ssg82
g4418
sg75
(lp4425
S'author'
p4426
asbag68
(g89
g70
NtRp4427
(dp4428
g73
(dp4429
g100
g101
ssg82
g4418
sg75
(lp4430
S':'
asbag68
(g89
g70
NtRp4431
(dp4432
g73
(dp4433
sg82
g4418
sg75
(lp4434
g68
(g69
g70
NtRp4435
(dp4436
g73
(dp4437
g81
I4
ssg82
g4431
sg75
(lp4438
S'Your Name <you@example.com>'
p4439
asbasbasbag68
(g84
g70
NtRp4440
(dp4441
g73
(dp4442
sg82
g4414
sg75
(lp4443
g68
(g89
g70
NtRp4444
(dp4445
g73
(dp4446
g93
g94
ssg82
g4440
sg75
(lp4447
S'description'
p4448
asbag68
(g89
g70
NtRp4449
(dp4450
g73
(dp4451
g100
g101
ssg82
g4440
sg75
(lp4452
S':'
asbag68
(g89
g70
NtRp4453
(dp4454
g73
(dp4455
sg82
g4440
sg75
(lp4456
g68
(g69
g70
NtRp4457
(dp4458
g73
(dp4459
g81
I4
ssg82
g4453
sg75
(lp4460
S'a cool new app'
p4461
asbasbasbag68
(g84
g70
NtRp4462
(dp4463
g73
(dp4464
sg82
g4414
sg75
(lp4465
g68
(g89
g70
NtRp4466
(dp4467
g73
(dp4468
g93
g94
ssg82
g4462
sg75
(lp4469
S'generator'
p4470
asbag68
(g89
g70
NtRp4471
(dp4472
g73
(dp4473
g100
g101
ssg82
g4462
sg75
(lp4474
S':'
asbag68
(g89
g70
NtRp4475
(dp4476
g73
(dp4477
sg82
g4462
sg75
(lp4478
g68
(g69
g70
NtRp4479
(dp4480
g73
(dp4481
g81
I4
ssg82
g4475
sg75
(lp4482
S'Web2py Web Framework'
p4483
asbasbasbag68
(g84
g70
NtRp4484
(dp4485
g73
(dp4486
sg82
g4414
sg75
(lp4487
g68
(g89
g70
NtRp4488
(dp4489
g73
(dp4490
g93
g94
ssg82
g4484
sg75
(lp4491
S'keywords'
p4492
asbag68
(g89
g70
NtRp4493
(dp4494
g73
(dp4495
g100
g101
ssg82
g4484
sg75
(lp4496
S':'
asbag68
(g89
g70
NtRp4497
(dp4498
g73
(dp4499
sg82
g4484
sg75
(lp4500
g68
(g69
g70
NtRp4501
(dp4502
g73
(dp4503
g81
I4
ssg82
g4497
sg75
(lp4504
S'web2py, python, framework'
p4505
asbasbasbasbasbasbasbag68
(g84
g70
NtRp4506
(dp4507
g73
(dp4508
sg82
g3295
sg75
(lp4509
g68
(g89
g70
NtRp4510
(dp4511
g73
(dp4512
g93
g94
ssg82
g4506
sg75
(lp4513
S'models_to_run'
p4514
asbag68
(g89
g70
NtRp4515
(dp4516
g73
(dp4517
g100
g101
ssg82
g4506
sg75
(lp4518
S':'
asbag68
(g89
g70
NtRp4519
(dp4520
g73
(dp4521
sg82
g4506
sg75
(lp4522
g68
(g69
g70
NtRp4523
(dp4524
g73
(dp4525
g81
I5
ssg82
g4519
sg75
(lp4526
g68
(g77
g70
NtRp4527
(dp4528
g73
(dp4529
g81
I4
ssg82
Nsg75
(lp4530
g68
(g84
g70
NtRp4531
(dp4532
g73
(dp4533
sg82
g4527
sg75
(lp4534
g68
(g89
g70
NtRp4535
(dp4536
g73
(dp4537
sg82
g4531
sg75
(lp4538
g68
(g69
g70
NtRp4539
(dp4540
g73
(dp4541
g81
I4
ssg82
g4535
sg75
(lp4542
S'^\\w+\\.py$'
p4543
asbasbasbag68
(g84
g70
NtRp4544
(dp4545
g73
(dp4546
sg82
g4527
sg75
(lp4547
g68
(g89
g70
NtRp4548
(dp4549
g73
(dp4550
sg82
g4544
sg75
(lp4551
g68
(g69
g70
NtRp4552
(dp4553
g73
(dp4554
g81
I4
ssg82
g4548
sg75
(lp4555
S'^default/\\w+\\.py$'
p4556
asbasbasbag68
(g84
g70
NtRp4557
(dp4558
g73
(dp4559
sg82
g4527
sg75
(lp4560
g68
(g89
g70
NtRp4561
(dp4562
g73
(dp4563
sg82
g4557
sg75
(lp4564
g68
(g69
g70
NtRp4565
(dp4566
g73
(dp4567
g81
I4
ssg82
g4561
sg75
(lp4568
S'^default/index/\\w+\\.py$'
p4569
asbasbasbasbasbasbasbag68
(g84
g70
NtRp4570
(dp4571
g73
(dp4572
sg82
g3295
sg75
(lp4573
g68
(g89
g70
NtRp4574
(dp4575
g73
(dp4576
g93
g94
ssg82
g4570
sg75
(lp4577
S'postprocessing'
p4578
asbag68
(g89
g70
NtRp4579
(dp4580
g73
(dp4581
g100
g101
ssg82
g4570
sg75
(lp4582
S':'
asbag68
(g89
g70
NtRp4583
(dp4584
g73
(dp4585
sg82
g4570
sg75
(lp4586
g68
(g69
g70
NtRp4587
(dp4588
g73
(dp4589
g81
I5
ssg82
g4583
sg75
(lp4590
g68
(g77
g70
NtRp4591
(dp4592
g73
(dp4593
g81
I4
ssg82
Nsg75
(lp4594
sbasbasbasbag68
(g84
g70
NtRp4595
(dp4596
g73
(dp4597
sg82
g3295
sg75
(lp4598
g68
(g89
g70
NtRp4599
(dp4600
g73
(dp4601
g93
g94
ssg82
g4595
sg75
(lp4602
S'session_file'
p4603
asbag68
(g89
g70
NtRp4604
(dp4605
g73
(dp4606
g100
g101
ssg82
g4595
sg75
(lp4607
S':'
asbag68
(g89
g70
NtRp4608
(dp4609
g73
(dp4610
sg82
g4595
sg75
(lp4611
g68
(g69
g70
NtRp4612
(dp4613
g73
(dp4614
g81
I5
ssg82
g4608
sg75
(lp4615
S"<open file '/Users/Karl/code/web2py/applications/newsFeed/sessions/127.0.0.1-cf681d17-4d34-47c3-b25e-cb18b12cf401', mode 'rb+' at 0x10a5ebdb0>"
p4616
asbasbasbag68
(g84
g70
NtRp4617
(dp4618
g73
(dp4619
sg82
g3295
sg75
(lp4620
g68
(g89
g70
NtRp4621
(dp4622
g73
(dp4623
g93
g94
ssg82
g4617
sg75
(lp4624
S'session_filename'
p4625
asbag68
(g89
g70
NtRp4626
(dp4627
g73
(dp4628
g100
g101
ssg82
g4617
sg75
(lp4629
S':'
asbag68
(g89
g70
NtRp4630
(dp4631
g73
(dp4632
sg82
g4617
sg75
(lp4633
g68
(g69
g70
NtRp4634
(dp4635
g73
(dp4636
g81
I5
ssg82
g4630
sg75
(lp4637
S'/Users/Karl/code/web2py/applications/newsFeed/sessions/127.0.0.1-cf681d17-4d34-47c3-b25e-cb18b12cf401'
p4638
asbasbasbag68
(g84
g70
NtRp4639
(dp4640
g73
(dp4641
sg82
g3295
sg75
(lp4642
g68
(g89
g70
NtRp4643
(dp4644
g73
(dp4645
g93
g94
ssg82
g4639
sg75
(lp4646
S'session_id'
p4647
asbag68
(g89
g70
NtRp4648
(dp4649
g73
(dp4650
g100
g101
ssg82
g4639
sg75
(lp4651
S':'
asbag68
(g89
g70
NtRp4652
(dp4653
g73
(dp4654
sg82
g4639
sg75
(lp4655
g68
(g69
g70
NtRp4656
(dp4657
g73
(dp4658
g81
I5
ssg82
g4652
sg75
(lp4659
g486
asbasbasbag68
(g84
g70
NtRp4660
(dp4661
g73
(dp4662
sg82
g3295
sg75
(lp4663
g68
(g89
g70
NtRp4664
(dp4665
g73
(dp4666
g93
g94
ssg82
g4660
sg75
(lp4667
S'session_id_name'
p4668
asbag68
(g89
g70
NtRp4669
(dp4670
g73
(dp4671
g100
g101
ssg82
g4660
sg75
(lp4672
S':'
asbag68
(g89
g70
NtRp4673
(dp4674
g73
(dp4675
sg82
g4660
sg75
(lp4676
g68
(g69
g70
NtRp4677
(dp4678
g73
(dp4679
g81
I5
ssg82
g4673
sg75
(lp4680
g3352
asbasbasbag68
(g84
g70
NtRp4681
(dp4682
g73
(dp4683
sg82
g3295
sg75
(lp4684
g68
(g89
g70
NtRp4685
(dp4686
g73
(dp4687
g93
g94
ssg82
g4681
sg75
(lp4688
S'session_locked'
p4689
asbag68
(g89
g70
NtRp4690
(dp4691
g73
(dp4692
g100
g101
ssg82
g4681
sg75
(lp4693
S':'
asbag68
(g89
g70
NtRp4694
(dp4695
g73
(dp4696
sg82
g4681
sg75
(lp4697
g68
(g69
g70
NtRp4698
(dp4699
g73
(dp4700
g81
I5
ssg82
g4694
sg75
(lp4701
g1876
asbasbasbag68
(g84
g70
NtRp4702
(dp4703
g73
(dp4704
sg82
g3295
sg75
(lp4705
g68
(g89
g70
NtRp4706
(dp4707
g73
(dp4708
g93
g94
ssg82
g4702
sg75
(lp4709
S'session_new'
p4710
asbag68
(g89
g70
NtRp4711
(dp4712
g73
(dp4713
g100
g101
ssg82
g4702
sg75
(lp4714
S':'
asbag68
(g89
g70
NtRp4715
(dp4716
g73
(dp4717
sg82
g4702
sg75
(lp4718
g68
(g69
g70
NtRp4719
(dp4720
g73
(dp4721
g81
I5
ssg82
g4715
sg75
(lp4722
g111
asbasbasbag68
(g84
g70
NtRp4723
(dp4724
g73
(dp4725
sg82
g3295
sg75
(lp4726
g68
(g89
g70
NtRp4727
(dp4728
g73
(dp4729
g93
g94
ssg82
g4723
sg75
(lp4730
S'status'
p4731
asbag68
(g89
g70
NtRp4732
(dp4733
g73
(dp4734
g100
g101
ssg82
g4723
sg75
(lp4735
S':'
asbag68
(g89
g70
NtRp4736
(dp4737
g73
(dp4738
sg82
g4723
sg75
(lp4739
g68
(g69
g70
NtRp4740
(dp4741
g73
(dp4742
g81
I5
ssg82
g4736
sg75
(lp4743
S'200'
p4744
asbasbasbag68
(g84
g70
NtRp4745
(dp4746
g73
(dp4747
sg82
g3295
sg75
(lp4748
g68
(g89
g70
NtRp4749
(dp4750
g73
(dp4751
g93
g94
ssg82
g4745
sg75
(lp4752
S'subtitle'
p4753
asbag68
(g89
g70
NtRp4754
(dp4755
g73
(dp4756
g100
g101
ssg82
g4745
sg75
(lp4757
S':'
asbag68
(g89
g70
NtRp4758
(dp4759
g73
(dp4760
sg82
g4745
sg75
(lp4761
g68
(g69
g70
NtRp4762
(dp4763
g73
(dp4764
g81
I5
ssg82
g4758
sg75
(lp4765
g3773
(S's\r\x00\x00\x00customize me!'
tRp4766
asbasbasbag68
(g84
g70
NtRp4767
(dp4768
g73
(dp4769
sg82
g3295
sg75
(lp4770
g68
(g89
g70
NtRp4771
(dp4772
g73
(dp4773
g93
g94
ssg82
g4767
sg75
(lp4774
S'title'
p4775
asbag68
(g89
g70
NtRp4776
(dp4777
g73
(dp4778
g100
g101
ssg82
g4767
sg75
(lp4779
S':'
asbag68
(g89
g70
NtRp4780
(dp4781
g73
(dp4782
sg82
g4767
sg75
(lp4783
g68
(g69
g70
NtRp4784
(dp4785
g73
(dp4786
g81
I5
ssg82
g4780
sg75
(lp4787
S'Newsfeed'
p4788
asbasbasbag68
(g84
g70
NtRp4789
(dp4790
g73
(dp4791
sg82
g3295
sg75
(lp4792
g68
(g89
g70
NtRp4793
(dp4794
g73
(dp4795
g93
g94
ssg82
g4789
sg75
(lp4796
S'view'
p4797
asbag68
(g89
g70
NtRp4798
(dp4799
g73
(dp4800
g100
g101
ssg82
g4789
sg75
(lp4801
S':'
asbag68
(g89
g70
NtRp4802
(dp4803
g73
(dp4804
sg82
g4789
sg75
(lp4805
g68
(g69
g70
NtRp4806
(dp4807
g73
(dp4808
g81
I5
ssg82
g4802
sg75
(lp4809
S'default/index.html'
p4810
asbasbasbasbasbsS'locals'
p4811
(dp4812
g4
S"'/Users/Karl/code/web2py/applications/newsFeed/controllers/default.py'"
p4813
sg6
S"'def index():\\n    images = db().select(db.image.A...uest, db)\\nresponse._vars=response._caller(index)\\n'"
p4814
sssS'traceback'
p4815
S'Traceback (most recent call last):\n  File "/Users/Karl/code/web2py/gluon/restricted.py", line 208, in restricted\n    ccode = compile2(code,layer)\n  File "/Users/Karl/code/web2py/gluon/restricted.py", line 193, in compile2\n    return compile(code.rstrip().replace(\'\\r\\n\',\'\\n\')+\'\\n\', layer, \'exec\')\n  File "/Users/Karl/code/web2py/applications/newsFeed/controllers/default.py", line 2\n    images = db().select(db.image.ALL, orderby=db.image.title) return dict(images=images)\n                                                                    ^\nSyntaxError: invalid syntax\n'
p4816
s.