(dp1
S'output'
p2
S"<type 'exceptions.SyntaxError'> invalid syntax (default.py, line 2)"
p3
sS'layer'
p4
S'/Users/Karl/code/web2py/applications/newsFeed/controllers/default.py'
p5
sS'code'
p6
S"def index():\n    images = db().select(db.image.ALL, orderby=db.image.title) return dict(images=images)\ndef show():\n    image = db(db.image.id==request.args(0)).select().first() db.comment.image_id.default = image.id\nform = SQLFORM(db.comment)\nif form.process().accepted:\n    response.flash = 'your comment is posted'\ncomments = db(db.comment.image_id==image.id).select() return dict(image=image, comments=comments, form=form)\ndef download():\n    return response.download(request, db)\nresponse._vars=response._caller(index)\n"
p7
sS'snapshot'
p8
(dp9
S'exception'
p10
(dp11
S'__getslice__'
p12
S"<method-wrapper '__getslice__' of exceptions.SyntaxError object>"
p13
sS'text'
p14
S"'    images = db().select(db.image.ALL, orderby=db.image.title) return dict(images=images)\\n'"
p15
sS'__str__'
p16
S"<method-wrapper '__str__' of exceptions.SyntaxError object>"
p17
sS'__reduce__'
p18
S'<built-in method __reduce__ of exceptions.SyntaxError object>'
p19
sS'__dict__'
p20
S'{}'
p21
sS'__sizeof__'
p22
S'<built-in method __sizeof__ of exceptions.SyntaxError object>'
p23
sS'__init__'
p24
S"<method-wrapper '__init__' of exceptions.SyntaxError object>"
p25
sS'__setattr__'
p26
S"<method-wrapper '__setattr__' of exceptions.SyntaxError object>"
p27
sS'__reduce_ex__'
p28
S'<built-in method __reduce_ex__ of exceptions.SyntaxError object>'
p29
sS'__new__'
p30
S'<built-in method __new__ of type object>'
p31
sS'__format__'
p32
S'<built-in method __format__ of exceptions.SyntaxError object>'
p33
sS'__class__'
p34
S"<type 'exceptions.SyntaxError'>"
p35
sS'filename'
p36
S"'/Users/Karl/code/web2py/applications/newsFeed/controllers/default.py'"
p37
sS'lineno'
p38
S'2'
sS'msg'
p39
S"'invalid syntax'"
p40
sS'__doc__'
p41
S"'Invalid syntax.'"
p42
sS'__getitem__'
p43
S"<method-wrapper '__getitem__' of exceptions.SyntaxError object>"
p44
sS'__setstate__'
p45
S'<built-in method __setstate__ of exceptions.SyntaxError object>'
p46
sS'__getattribute__'
p47
S"<method-wrapper '__getattribute__' of exceptions.SyntaxError object>"
p48
sS'print_file_and_line'
p49
S'None'
p50
sS'args'
p51
S"('invalid syntax', ('/Users/Karl/code/web2py/applications/newsFeed/controllers/default.py', 2, 69, '    images = db().select(db.image.ALL, orderby=db.image.title) return dict(images=images)\\n'))"
p52
sS'__subclasshook__'
p53
S'<built-in method __subclasshook__ of type object>'
p54
sS'offset'
p55
S'69'
p56
sS'__unicode__'
p57
S'<built-in method __unicode__ of exceptions.SyntaxError object>'
p58
sS'__delattr__'
p59
S"<method-wrapper '__delattr__' of exceptions.SyntaxError object>"
p60
sS'__repr__'
p61
S"<method-wrapper '__repr__' of exceptions.SyntaxError object>"
p62
sS'__hash__'
p63
S"<method-wrapper '__hash__' of exceptions.SyntaxError object>"
p64
ssS'evalue'
p65
S'invalid syntax (default.py, line 2)'
p66
sS'request'
p67
ccopy_reg
_reconstructor
p68
(cgluon.html
BEAUTIFY
p69
c__builtin__
object
p70
NtRp71
(dp72
S'attributes'
p73
(dp74
sS'components'
p75
(lp76
g68
(cgluon.html
TABLE
p77
g70
NtRp78
(dp79
g73
(dp80
S'level'
p81
I5
ssS'parent'
p82
Nsg75
(lp83
g68
(cgluon.html
TR
p84
g70
NtRp85
(dp86
g73
(dp87
sg82
g78
sg75
(lp88
g68
(cgluon.html
TD
p89
g70
NtRp90
(dp91
g73
(dp92
S'_style'
p93
S'font-weight:bold;vertical-align:top'
p94
ssg82
g85
sg75
(lp95
S'ajax'
p96
asbag68
(g89
g70
NtRp97
(dp98
g73
(dp99
S'_valign'
p100
S'top'
p101
ssg82
g85
sg75
(lp102
S':'
asbag68
(g89
g70
NtRp103
(dp104
g73
(dp105
sg82
g85
sg75
(lp106
g68
(g69
g70
NtRp107
(dp108
g73
(dp109
g81
I5
ssg82
g103
sg75
(lp110
S'False'
p111
asbasbasbag68
(g84
g70
NtRp112
(dp113
g73
(dp114
sg82
g78
sg75
(lp115
g68
(g89
g70
NtRp116
(dp117
g73
(dp118
g93
g94
ssg82
g112
sg75
(lp119
S'application'
p120
asbag68
(g89
g70
NtRp121
(dp122
g73
(dp123
g100
g101
ssg82
g112
sg75
(lp124
S':'
asbag68
(g89
g70
NtRp125
(dp126
g73
(dp127
sg82
g112
sg75
(lp128
g68
(g69
g70
NtRp129
(dp130
g73
(dp131
g81
I5
ssg82
g125
sg75
(lp132
S'newsFeed'
p133
asbasbasbag68
(g84
g70
NtRp134
(dp135
g73
(dp136
sg82
g78
sg75
(lp137
g68
(g89
g70
NtRp138
(dp139
g73
(dp140
g93
g94
ssg82
g134
sg75
(lp141
g51
asbag68
(g89
g70
NtRp142
(dp143
g73
(dp144
g100
g101
ssg82
g134
sg75
(lp145
S':'
asbag68
(g89
g70
NtRp146
(dp147
g73
(dp148
sg82
g134
sg75
(lp149
g68
(g69
g70
NtRp150
(dp151
g73
(dp152
g81
I5
ssg82
g146
sg75
(lp153
g68
(g77
g70
NtRp154
(dp155
g73
(dp156
g81
I4
ssg82
Nsg75
(lp157
sbasbasbasbag68
(g84
g70
NtRp158
(dp159
g73
(dp160
sg82
g78
sg75
(lp161
g68
(g89
g70
NtRp162
(dp163
g73
(dp164
g93
g94
ssg82
g158
sg75
(lp165
S'body'
p166
asbag68
(g89
g70
NtRp167
(dp168
g73
(dp169
g100
g101
ssg82
g158
sg75
(lp170
S':'
asbag68
(g89
g70
NtRp171
(dp172
g73
(dp173
sg82
g158
sg75
(lp174
g68
(g69
g70
NtRp175
(dp176
g73
(dp177
g81
I5
ssg82
g171
sg75
(lp178
S'<cStringIO.StringO object at 0x109caf378>'
p179
asbasbasbag68
(g84
g70
NtRp180
(dp181
g73
(dp182
sg82
g78
sg75
(lp183
g68
(g89
g70
NtRp184
(dp185
g73
(dp186
g93
g94
ssg82
g180
sg75
(lp187
S'cid'
p188
asbag68
(g89
g70
NtRp189
(dp190
g73
(dp191
g100
g101
ssg82
g180
sg75
(lp192
S':'
asbag68
(g89
g70
NtRp193
(dp194
g73
(dp195
sg82
g180
sg75
(lp196
g68
(g69
g70
NtRp197
(dp198
g73
(dp199
g81
I5
ssg82
g193
sg75
(lp200
S'None'
p201
asbasbasbag68
(g84
g70
NtRp202
(dp203
g73
(dp204
sg82
g78
sg75
(lp205
g68
(g89
g70
NtRp206
(dp207
g73
(dp208
g93
g94
ssg82
g202
sg75
(lp209
S'client'
p210
asbag68
(g89
g70
NtRp211
(dp212
g73
(dp213
g100
g101
ssg82
g202
sg75
(lp214
S':'
asbag68
(g89
g70
NtRp215
(dp216
g73
(dp217
sg82
g202
sg75
(lp218
g68
(g69
g70
NtRp219
(dp220
g73
(dp221
g81
I5
ssg82
g215
sg75
(lp222
S'127.0.0.1'
p223
asbasbasbag68
(g84
g70
NtRp224
(dp225
g73
(dp226
sg82
g78
sg75
(lp227
g68
(g89
g70
NtRp228
(dp229
g73
(dp230
g93
g94
ssg82
g224
sg75
(lp231
S'controller'
p232
asbag68
(g89
g70
NtRp233
(dp234
g73
(dp235
g100
g101
ssg82
g224
sg75
(lp236
S':'
asbag68
(g89
g70
NtRp237
(dp238
g73
(dp239
sg82
g224
sg75
(lp240
g68
(g69
g70
NtRp241
(dp242
g73
(dp243
g81
I5
ssg82
g237
sg75
(lp244
S'default'
p245
asbasbasbag68
(g84
g70
NtRp246
(dp247
g73
(dp248
sg82
g78
sg75
(lp249
g68
(g89
g70
NtRp250
(dp251
g73
(dp252
g93
g94
ssg82
g246
sg75
(lp253
S'cookies'
p254
asbag68
(g89
g70
NtRp255
(dp256
g73
(dp257
g100
g101
ssg82
g246
sg75
(lp258
S':'
asbag68
(g89
g70
NtRp259
(dp260
g73
(dp261
sg82
g246
sg75
(lp262
g68
(g69
g70
NtRp263
(dp264
g73
(dp265
g81
I5
ssg82
g259
sg75
(lp266
g68
(g77
g70
NtRp267
(dp268
g73
(dp269
g81
I4
ssg82
Nsg75
(lp270
g68
(g84
g70
NtRp271
(dp272
g73
(dp273
sg82
g267
sg75
(lp274
g68
(g89
g70
NtRp275
(dp276
g73
(dp277
g93
g94
ssg82
g271
sg75
(lp278
S'session_id_admin'
p279
asbag68
(g89
g70
NtRp280
(dp281
g73
(dp282
g100
g101
ssg82
g271
sg75
(lp283
S':'
asbag68
(g89
g70
NtRp284
(dp285
g73
(dp286
sg82
g271
sg75
(lp287
g68
(g69
g70
NtRp288
(dp289
g73
(dp290
g81
I4
ssg82
g284
sg75
(lp291
S'127.0.0.1-7bf5236b-8ca1-4e3e-a316-0858e3e6db30'
p292
ag68
(g77
g70
NtRp293
(dp294
g73
(dp295
g81
I3
ssg82
Nsg75
(lp296
g68
(g84
g70
NtRp297
(dp298
g73
(dp299
sg82
g293
sg75
(lp300
g68
(g89
g70
NtRp301
(dp302
g73
(dp303
g93
g94
ssg82
g297
sg75
(lp304
S'comment'
p305
asbag68
(g89
g70
NtRp306
(dp307
g73
(dp308
g100
g101
ssg82
g297
sg75
(lp309
S':'
asbag68
(g89
g70
NtRp310
(dp311
g73
(dp312
sg82
g297
sg75
(lp313
g68
(g69
g70
NtRp314
(dp315
g73
(dp316
g81
I3
ssg82
g310
sg75
(lp317
S''
asbasbasbag68
(g84
g70
NtRp318
(dp319
g73
(dp320
sg82
g293
sg75
(lp321
g68
(g89
g70
NtRp322
(dp323
g73
(dp324
g93
g94
ssg82
g318
sg75
(lp325
S'domain'
p326
asbag68
(g89
g70
NtRp327
(dp328
g73
(dp329
g100
g101
ssg82
g318
sg75
(lp330
S':'
asbag68
(g89
g70
NtRp331
(dp332
g73
(dp333
sg82
g318
sg75
(lp334
g68
(g69
g70
NtRp335
(dp336
g73
(dp337
g81
I3
ssg82
g331
sg75
(lp338
S''
asbasbasbag68
(g84
g70
NtRp339
(dp340
g73
(dp341
sg82
g293
sg75
(lp342
g68
(g89
g70
NtRp343
(dp344
g73
(dp345
g93
g94
ssg82
g339
sg75
(lp346
S'expires'
p347
asbag68
(g89
g70
NtRp348
(dp349
g73
(dp350
g100
g101
ssg82
g339
sg75
(lp351
S':'
asbag68
(g89
g70
NtRp352
(dp353
g73
(dp354
sg82
g339
sg75
(lp355
g68
(g69
g70
NtRp356
(dp357
g73
(dp358
g81
I3
ssg82
g352
sg75
(lp359
S''
asbasbasbag68
(g84
g70
NtRp360
(dp361
g73
(dp362
sg82
g293
sg75
(lp363
g68
(g89
g70
NtRp364
(dp365
g73
(dp366
g93
g94
ssg82
g360
sg75
(lp367
S'httponly'
p368
asbag68
(g89
g70
NtRp369
(dp370
g73
(dp371
g100
g101
ssg82
g360
sg75
(lp372
S':'
asbag68
(g89
g70
NtRp373
(dp374
g73
(dp375
sg82
g360
sg75
(lp376
g68
(g69
g70
NtRp377
(dp378
g73
(dp379
g81
I3
ssg82
g373
sg75
(lp380
S''
asbasbasbag68
(g84
g70
NtRp381
(dp382
g73
(dp383
sg82
g293
sg75
(lp384
g68
(g89
g70
NtRp385
(dp386
g73
(dp387
g93
g94
ssg82
g381
sg75
(lp388
S'max-age'
p389
asbag68
(g89
g70
NtRp390
(dp391
g73
(dp392
g100
g101
ssg82
g381
sg75
(lp393
S':'
asbag68
(g89
g70
NtRp394
(dp395
g73
(dp396
sg82
g381
sg75
(lp397
g68
(g69
g70
NtRp398
(dp399
g73
(dp400
g81
I3
ssg82
g394
sg75
(lp401
S''
asbasbasbag68
(g84
g70
NtRp402
(dp403
g73
(dp404
sg82
g293
sg75
(lp405
g68
(g89
g70
NtRp406
(dp407
g73
(dp408
g93
g94
ssg82
g402
sg75
(lp409
S'path'
p410
asbag68
(g89
g70
NtRp411
(dp412
g73
(dp413
g100
g101
ssg82
g402
sg75
(lp414
S':'
asbag68
(g89
g70
NtRp415
(dp416
g73
(dp417
sg82
g402
sg75
(lp418
g68
(g69
g70
NtRp419
(dp420
g73
(dp421
g81
I3
ssg82
g415
sg75
(lp422
S''
asbasbasbag68
(g84
g70
NtRp423
(dp424
g73
(dp425
sg82
g293
sg75
(lp426
g68
(g89
g70
NtRp427
(dp428
g73
(dp429
g93
g94
ssg82
g423
sg75
(lp430
S'secure'
p431
asbag68
(g89
g70
NtRp432
(dp433
g73
(dp434
g100
g101
ssg82
g423
sg75
(lp435
S':'
asbag68
(g89
g70
NtRp436
(dp437
g73
(dp438
sg82
g423
sg75
(lp439
g68
(g69
g70
NtRp440
(dp441
g73
(dp442
g81
I3
ssg82
g436
sg75
(lp443
S''
asbasbasbag68
(g84
g70
NtRp444
(dp445
g73
(dp446
sg82
g293
sg75
(lp447
g68
(g89
g70
NtRp448
(dp449
g73
(dp450
g93
g94
ssg82
g444
sg75
(lp451
S'version'
p452
asbag68
(g89
g70
NtRp453
(dp454
g73
(dp455
g100
g101
ssg82
g444
sg75
(lp456
S':'
asbag68
(g89
g70
NtRp457
(dp458
g73
(dp459
sg82
g444
sg75
(lp460
g68
(g69
g70
NtRp461
(dp462
g73
(dp463
g81
I3
ssg82
g457
sg75
(lp464
S''
asbasbasbasbasbasbasbag68
(g84
g70
NtRp465
(dp466
g73
(dp467
sg82
g267
sg75
(lp468
g68
(g89
g70
NtRp469
(dp470
g73
(dp471
g93
g94
ssg82
g465
sg75
(lp472
S'session_id_textentries'
p473
asbag68
(g89
g70
NtRp474
(dp475
g73
(dp476
g100
g101
ssg82
g465
sg75
(lp477
S':'
asbag68
(g89
g70
NtRp478
(dp479
g73
(dp480
sg82
g465
sg75
(lp481
g68
(g69
g70
NtRp482
(dp483
g73
(dp484
g81
I4
ssg82
g478
sg75
(lp485
S'127.0.0.1-74aec935-c7d0-4514-a6ce-84e446edd182'
p486
ag68
(g77
g70
NtRp487
(dp488
g73
(dp489
g81
I3
ssg82
Nsg75
(lp490
g68
(g84
g70
NtRp491
(dp492
g73
(dp493
sg82
g487
sg75
(lp494
g68
(g89
g70
NtRp495
(dp496
g73
(dp497
g93
g94
ssg82
g491
sg75
(lp498
g305
asbag68
(g89
g70
NtRp499
(dp500
g73
(dp501
g100
g101
ssg82
g491
sg75
(lp502
S':'
asbag68
(g89
g70
NtRp503
(dp504
g73
(dp505
sg82
g491
sg75
(lp506
g68
(g69
g70
NtRp507
(dp508
g73
(dp509
g81
I3
ssg82
g503
sg75
(lp510
S''
asbasbasbag68
(g84
g70
NtRp511
(dp512
g73
(dp513
sg82
g487
sg75
(lp514
g68
(g89
g70
NtRp515
(dp516
g73
(dp517
g93
g94
ssg82
g511
sg75
(lp518
g326
asbag68
(g89
g70
NtRp519
(dp520
g73
(dp521
g100
g101
ssg82
g511
sg75
(lp522
S':'
asbag68
(g89
g70
NtRp523
(dp524
g73
(dp525
sg82
g511
sg75
(lp526
g68
(g69
g70
NtRp527
(dp528
g73
(dp529
g81
I3
ssg82
g523
sg75
(lp530
S''
asbasbasbag68
(g84
g70
NtRp531
(dp532
g73
(dp533
sg82
g487
sg75
(lp534
g68
(g89
g70
NtRp535
(dp536
g73
(dp537
g93
g94
ssg82
g531
sg75
(lp538
g347
asbag68
(g89
g70
NtRp539
(dp540
g73
(dp541
g100
g101
ssg82
g531
sg75
(lp542
S':'
asbag68
(g89
g70
NtRp543
(dp544
g73
(dp545
sg82
g531
sg75
(lp546
g68
(g69
g70
NtRp547
(dp548
g73
(dp549
g81
I3
ssg82
g543
sg75
(lp550
S''
asbasbasbag68
(g84
g70
NtRp551
(dp552
g73
(dp553
sg82
g487
sg75
(lp554
g68
(g89
g70
NtRp555
(dp556
g73
(dp557
g93
g94
ssg82
g551
sg75
(lp558
g368
asbag68
(g89
g70
NtRp559
(dp560
g73
(dp561
g100
g101
ssg82
g551
sg75
(lp562
S':'
asbag68
(g89
g70
NtRp563
(dp564
g73
(dp565
sg82
g551
sg75
(lp566
g68
(g69
g70
NtRp567
(dp568
g73
(dp569
g81
I3
ssg82
g563
sg75
(lp570
S''
asbasbasbag68
(g84
g70
NtRp571
(dp572
g73
(dp573
sg82
g487
sg75
(lp574
g68
(g89
g70
NtRp575
(dp576
g73
(dp577
g93
g94
ssg82
g571
sg75
(lp578
g389
asbag68
(g89
g70
NtRp579
(dp580
g73
(dp581
g100
g101
ssg82
g571
sg75
(lp582
S':'
asbag68
(g89
g70
NtRp583
(dp584
g73
(dp585
sg82
g571
sg75
(lp586
g68
(g69
g70
NtRp587
(dp588
g73
(dp589
g81
I3
ssg82
g583
sg75
(lp590
S''
asbasbasbag68
(g84
g70
NtRp591
(dp592
g73
(dp593
sg82
g487
sg75
(lp594
g68
(g89
g70
NtRp595
(dp596
g73
(dp597
g93
g94
ssg82
g591
sg75
(lp598
g410
asbag68
(g89
g70
NtRp599
(dp600
g73
(dp601
g100
g101
ssg82
g591
sg75
(lp602
S':'
asbag68
(g89
g70
NtRp603
(dp604
g73
(dp605
sg82
g591
sg75
(lp606
g68
(g69
g70
NtRp607
(dp608
g73
(dp609
g81
I3
ssg82
g603
sg75
(lp610
S''
asbasbasbag68
(g84
g70
NtRp611
(dp612
g73
(dp613
sg82
g487
sg75
(lp614
g68
(g89
g70
NtRp615
(dp616
g73
(dp617
g93
g94
ssg82
g611
sg75
(lp618
g431
asbag68
(g89
g70
NtRp619
(dp620
g73
(dp621
g100
g101
ssg82
g611
sg75
(lp622
S':'
asbag68
(g89
g70
NtRp623
(dp624
g73
(dp625
sg82
g611
sg75
(lp626
g68
(g69
g70
NtRp627
(dp628
g73
(dp629
g81
I3
ssg82
g623
sg75
(lp630
S''
asbasbasbag68
(g84
g70
NtRp631
(dp632
g73
(dp633
sg82
g487
sg75
(lp634
g68
(g89
g70
NtRp635
(dp636
g73
(dp637
g93
g94
ssg82
g631
sg75
(lp638
g452
asbag68
(g89
g70
NtRp639
(dp640
g73
(dp641
g100
g101
ssg82
g631
sg75
(lp642
S':'
asbag68
(g89
g70
NtRp643
(dp644
g73
(dp645
sg82
g631
sg75
(lp646
g68
(g69
g70
NtRp647
(dp648
g73
(dp649
g81
I3
ssg82
g643
sg75
(lp650
S''
asbasbasbasbasbasbasbag68
(g84
g70
NtRp651
(dp652
g73
(dp653
sg82
g267
sg75
(lp654
g68
(g89
g70
NtRp655
(dp656
g73
(dp657
g93
g94
ssg82
g651
sg75
(lp658
S'session_id_welcome'
p659
asbag68
(g89
g70
NtRp660
(dp661
g73
(dp662
g100
g101
ssg82
g651
sg75
(lp663
S':'
asbag68
(g89
g70
NtRp664
(dp665
g73
(dp666
sg82
g651
sg75
(lp667
g68
(g69
g70
NtRp668
(dp669
g73
(dp670
g81
I4
ssg82
g664
sg75
(lp671
S'127.0.0.1-c9d00889-6dea-42d9-8854-eed4cc7ca179'
p672
ag68
(g77
g70
NtRp673
(dp674
g73
(dp675
g81
I3
ssg82
Nsg75
(lp676
g68
(g84
g70
NtRp677
(dp678
g73
(dp679
sg82
g673
sg75
(lp680
g68
(g89
g70
NtRp681
(dp682
g73
(dp683
g93
g94
ssg82
g677
sg75
(lp684
g305
asbag68
(g89
g70
NtRp685
(dp686
g73
(dp687
g100
g101
ssg82
g677
sg75
(lp688
S':'
asbag68
(g89
g70
NtRp689
(dp690
g73
(dp691
sg82
g677
sg75
(lp692
g68
(g69
g70
NtRp693
(dp694
g73
(dp695
g81
I3
ssg82
g689
sg75
(lp696
S''
asbasbasbag68
(g84
g70
NtRp697
(dp698
g73
(dp699
sg82
g673
sg75
(lp700
g68
(g89
g70
NtRp701
(dp702
g73
(dp703
g93
g94
ssg82
g697
sg75
(lp704
g326
asbag68
(g89
g70
NtRp705
(dp706
g73
(dp707
g100
g101
ssg82
g697
sg75
(lp708
S':'
asbag68
(g89
g70
NtRp709
(dp710
g73
(dp711
sg82
g697
sg75
(lp712
g68
(g69
g70
NtRp713
(dp714
g73
(dp715
g81
I3
ssg82
g709
sg75
(lp716
S''
asbasbasbag68
(g84
g70
NtRp717
(dp718
g73
(dp719
sg82
g673
sg75
(lp720
g68
(g89
g70
NtRp721
(dp722
g73
(dp723
g93
g94
ssg82
g717
sg75
(lp724
g347
asbag68
(g89
g70
NtRp725
(dp726
g73
(dp727
g100
g101
ssg82
g717
sg75
(lp728
S':'
asbag68
(g89
g70
NtRp729
(dp730
g73
(dp731
sg82
g717
sg75
(lp732
g68
(g69
g70
NtRp733
(dp734
g73
(dp735
g81
I3
ssg82
g729
sg75
(lp736
S''
asbasbasbag68
(g84
g70
NtRp737
(dp738
g73
(dp739
sg82
g673
sg75
(lp740
g68
(g89
g70
NtRp741
(dp742
g73
(dp743
g93
g94
ssg82
g737
sg75
(lp744
g368
asbag68
(g89
g70
NtRp745
(dp746
g73
(dp747
g100
g101
ssg82
g737
sg75
(lp748
S':'
asbag68
(g89
g70
NtRp749
(dp750
g73
(dp751
sg82
g737
sg75
(lp752
g68
(g69
g70
NtRp753
(dp754
g73
(dp755
g81
I3
ssg82
g749
sg75
(lp756
S''
asbasbasbag68
(g84
g70
NtRp757
(dp758
g73
(dp759
sg82
g673
sg75
(lp760
g68
(g89
g70
NtRp761
(dp762
g73
(dp763
g93
g94
ssg82
g757
sg75
(lp764
g389
asbag68
(g89
g70
NtRp765
(dp766
g73
(dp767
g100
g101
ssg82
g757
sg75
(lp768
S':'
asbag68
(g89
g70
NtRp769
(dp770
g73
(dp771
sg82
g757
sg75
(lp772
g68
(g69
g70
NtRp773
(dp774
g73
(dp775
g81
I3
ssg82
g769
sg75
(lp776
S''
asbasbasbag68
(g84
g70
NtRp777
(dp778
g73
(dp779
sg82
g673
sg75
(lp780
g68
(g89
g70
NtRp781
(dp782
g73
(dp783
g93
g94
ssg82
g777
sg75
(lp784
g410
asbag68
(g89
g70
NtRp785
(dp786
g73
(dp787
g100
g101
ssg82
g777
sg75
(lp788
S':'
asbag68
(g89
g70
NtRp789
(dp790
g73
(dp791
sg82
g777
sg75
(lp792
g68
(g69
g70
NtRp793
(dp794
g73
(dp795
g81
I3
ssg82
g789
sg75
(lp796
S''
asbasbasbag68
(g84
g70
NtRp797
(dp798
g73
(dp799
sg82
g673
sg75
(lp800
g68
(g89
g70
NtRp801
(dp802
g73
(dp803
g93
g94
ssg82
g797
sg75
(lp804
g431
asbag68
(g89
g70
NtRp805
(dp806
g73
(dp807
g100
g101
ssg82
g797
sg75
(lp808
S':'
asbag68
(g89
g70
NtRp809
(dp810
g73
(dp811
sg82
g797
sg75
(lp812
g68
(g69
g70
NtRp813
(dp814
g73
(dp815
g81
I3
ssg82
g809
sg75
(lp816
S''
asbasbasbag68
(g84
g70
NtRp817
(dp818
g73
(dp819
sg82
g673
sg75
(lp820
g68
(g89
g70
NtRp821
(dp822
g73
(dp823
g93
g94
ssg82
g817
sg75
(lp824
g452
asbag68
(g89
g70
NtRp825
(dp826
g73
(dp827
g100
g101
ssg82
g817
sg75
(lp828
S':'
asbag68
(g89
g70
NtRp829
(dp830
g73
(dp831
sg82
g817
sg75
(lp832
g68
(g69
g70
NtRp833
(dp834
g73
(dp835
g81
I3
ssg82
g829
sg75
(lp836
S''
asbasbasbasbasbasbasbasbasbasbasbag68
(g84
g70
NtRp837
(dp838
g73
(dp839
sg82
g78
sg75
(lp840
g68
(g89
g70
NtRp841
(dp842
g73
(dp843
g93
g94
ssg82
g837
sg75
(lp844
S'env'
p845
asbag68
(g89
g70
NtRp846
(dp847
g73
(dp848
g100
g101
ssg82
g837
sg75
(lp849
S':'
asbag68
(g89
g70
NtRp850
(dp851
g73
(dp852
sg82
g837
sg75
(lp853
g68
(g69
g70
NtRp854
(dp855
g73
(dp856
g81
I5
ssg82
g850
sg75
(lp857
g68
(g77
g70
NtRp858
(dp859
g73
(dp860
g81
I4
ssg82
Nsg75
(lp861
g68
(g84
g70
NtRp862
(dp863
g73
(dp864
sg82
g858
sg75
(lp865
g68
(g89
g70
NtRp866
(dp867
g73
(dp868
g93
g94
ssg82
g862
sg75
(lp869
S'app_folders'
p870
asbag68
(g89
g70
NtRp871
(dp872
g73
(dp873
g100
g101
ssg82
g862
sg75
(lp874
S':'
asbag68
(g89
g70
NtRp875
(dp876
g73
(dp877
sg82
g862
sg75
(lp878
g68
(g69
g70
NtRp879
(dp880
g73
(dp881
g81
I4
ssg82
g875
sg75
(lp882
S"set(['/Users/Karl/code/web2py/applications/newsFeed/', '/Users/Karl/code/web2py/applications/admin/', '/Users/Karl/code/web2py/applications/welcome/'])"
p883
asbasbasbag68
(g84
g70
NtRp884
(dp885
g73
(dp886
sg82
g858
sg75
(lp887
g68
(g89
g70
NtRp888
(dp889
g73
(dp890
g93
g94
ssg82
g884
sg75
(lp891
S'applications_parent'
p892
asbag68
(g89
g70
NtRp893
(dp894
g73
(dp895
g100
g101
ssg82
g884
sg75
(lp896
S':'
asbag68
(g89
g70
NtRp897
(dp898
g73
(dp899
sg82
g884
sg75
(lp900
g68
(g69
g70
NtRp901
(dp902
g73
(dp903
g81
I4
ssg82
g897
sg75
(lp904
S'/Users/Karl/code/web2py'
p905
asbasbasbag68
(g84
g70
NtRp906
(dp907
g73
(dp908
sg82
g858
sg75
(lp909
g68
(g89
g70
NtRp910
(dp911
g73
(dp912
g93
g94
ssg82
g906
sg75
(lp913
S'cmd_args'
p914
asbag68
(g89
g70
NtRp915
(dp916
g73
(dp917
g100
g101
ssg82
g906
sg75
(lp918
S':'
asbag68
(g89
g70
NtRp919
(dp920
g73
(dp921
sg82
g906
sg75
(lp922
g68
(g69
g70
NtRp923
(dp924
g73
(dp925
g81
I4
ssg82
g919
sg75
(lp926
g68
(g77
g70
NtRp927
(dp928
g73
(dp929
g81
I3
ssg82
Nsg75
(lp930
sbasbasbasbag68
(g84
g70
NtRp931
(dp932
g73
(dp933
sg82
g858
sg75
(lp934
g68
(g89
g70
NtRp935
(dp936
g73
(dp937
g93
g94
ssg82
g931
sg75
(lp938
S'cmd_options'
p939
asbag68
(g89
g70
NtRp940
(dp941
g73
(dp942
g100
g101
ssg82
g931
sg75
(lp943
S':'
asbag68
(g89
g70
NtRp944
(dp945
g73
(dp946
sg82
g931
sg75
(lp947
g68
(g69
g70
NtRp948
(dp949
g73
(dp950
g81
I4
ssg82
g944
sg75
(lp951
S"<Values at 0x101caf200: {'verbose': False, 'ip': '127.0.0.1', 'with_scheduler': False, 'ips': ['172.25.51.201'], 'shutdown_timeout': 5, 'taskbar': False, 'port': 8000, 'maxthreads': None, 'softcron': False, 'server_name': 'Karls-MacBook-Pro.local', 'bpython': False, 'nogui': False, 'nocron': False, 'extcron': False, 'run_system_tests': False, 'test': None, 'folder': '/Users/Karl/code/web2py', 'config': '', 'import_models': False, 'winservice': '', 'shell': None, 'run': '', 'log_filename': 'httpserver.log', 'debuglevel': 30, 'args': [''], 'socket_timeout': 5, 'ssl_ca_certificate': None, 'scheduler': None, 'profiler_filename': None, 'ssl_private_key': '', 'scheduler_groups': None, 'password': '<ask>', 'request_queue_size': 5, 'ssl_certificate': '', 'cronjob': False, 'numthreads': None, 'quiet': False, 'interfaces': None, 'minthreads': None, 'timeout': 10, 'plain': False, 'nobanner': False, 'pid_filename': 'httpserver.pid'}>"
p952
asbasbasbag68
(g84
g70
NtRp953
(dp954
g73
(dp955
sg82
g858
sg75
(lp956
g68
(g89
g70
NtRp957
(dp958
g73
(dp959
g93
g94
ssg82
g953
sg75
(lp960
S'db_sessions'
p961
asbag68
(g89
g70
NtRp962
(dp963
g73
(dp964
g100
g101
ssg82
g953
sg75
(lp965
S':'
asbag68
(g89
g70
NtRp966
(dp967
g73
(dp968
sg82
g953
sg75
(lp969
g68
(g69
g70
NtRp970
(dp971
g73
(dp972
g81
I4
ssg82
g966
sg75
(lp973
S'set([])'
p974
asbasbasbag68
(g84
g70
NtRp975
(dp976
g73
(dp977
sg82
g858
sg75
(lp978
g68
(g89
g70
NtRp979
(dp980
g73
(dp981
g93
g94
ssg82
g975
sg75
(lp982
S'debugging'
p983
asbag68
(g89
g70
NtRp984
(dp985
g73
(dp986
g100
g101
ssg82
g975
sg75
(lp987
S':'
asbag68
(g89
g70
NtRp988
(dp989
g73
(dp990
sg82
g975
sg75
(lp991
g68
(g69
g70
NtRp992
(dp993
g73
(dp994
g81
I4
ssg82
g988
sg75
(lp995
g111
asbasbasbag68
(g84
g70
NtRp996
(dp997
g73
(dp998
sg82
g858
sg75
(lp999
g68
(g89
g70
NtRp1000
(dp1001
g73
(dp1002
g93
g94
ssg82
g996
sg75
(lp1003
S'gluon_parent'
p1004
asbag68
(g89
g70
NtRp1005
(dp1006
g73
(dp1007
g100
g101
ssg82
g996
sg75
(lp1008
S':'
asbag68
(g89
g70
NtRp1009
(dp1010
g73
(dp1011
sg82
g996
sg75
(lp1012
g68
(g69
g70
NtRp1013
(dp1014
g73
(dp1015
g81
I4
ssg82
g1009
sg75
(lp1016
S'/Users/Karl/code/web2py'
p1017
asbasbasbag68
(g84
g70
NtRp1018
(dp1019
g73
(dp1020
sg82
g858
sg75
(lp1021
g68
(g89
g70
NtRp1022
(dp1023
g73
(dp1024
g93
g94
ssg82
g1018
sg75
(lp1025
S'http_accept'
p1026
asbag68
(g89
g70
NtRp1027
(dp1028
g73
(dp1029
g100
g101
ssg82
g1018
sg75
(lp1030
S':'
asbag68
(g89
g70
NtRp1031
(dp1032
g73
(dp1033
sg82
g1018
sg75
(lp1034
g68
(g69
g70
NtRp1035
(dp1036
g73
(dp1037
g81
I4
ssg82
g1031
sg75
(lp1038
S'text/html,application/xhtml+xml,application/xml;q=0.9,*/*;q=0.8'
p1039
asbasbasbag68
(g84
g70
NtRp1040
(dp1041
g73
(dp1042
sg82
g858
sg75
(lp1043
g68
(g89
g70
NtRp1044
(dp1045
g73
(dp1046
g93
g94
ssg82
g1040
sg75
(lp1047
S'http_accept_encoding'
p1048
asbag68
(g89
g70
NtRp1049
(dp1050
g73
(dp1051
g100
g101
ssg82
g1040
sg75
(lp1052
S':'
asbag68
(g89
g70
NtRp1053
(dp1054
g73
(dp1055
sg82
g1040
sg75
(lp1056
g68
(g69
g70
NtRp1057
(dp1058
g73
(dp1059
g81
I4
ssg82
g1053
sg75
(lp1060
S'gzip, deflate'
p1061
asbasbasbag68
(g84
g70
NtRp1062
(dp1063
g73
(dp1064
sg82
g858
sg75
(lp1065
g68
(g89
g70
NtRp1066
(dp1067
g73
(dp1068
g93
g94
ssg82
g1062
sg75
(lp1069
S'http_accept_language'
p1070
asbag68
(g89
g70
NtRp1071
(dp1072
g73
(dp1073
g100
g101
ssg82
g1062
sg75
(lp1074
S':'
asbag68
(g89
g70
NtRp1075
(dp1076
g73
(dp1077
sg82
g1062
sg75
(lp1078
g68
(g69
g70
NtRp1079
(dp1080
g73
(dp1081
g81
I4
ssg82
g1075
sg75
(lp1082
S'en-us'
p1083
asbasbasbag68
(g84
g70
NtRp1084
(dp1085
g73
(dp1086
sg82
g858
sg75
(lp1087
g68
(g89
g70
NtRp1088
(dp1089
g73
(dp1090
g93
g94
ssg82
g1084
sg75
(lp1091
S'http_connection'
p1092
asbag68
(g89
g70
NtRp1093
(dp1094
g73
(dp1095
g100
g101
ssg82
g1084
sg75
(lp1096
S':'
asbag68
(g89
g70
NtRp1097
(dp1098
g73
(dp1099
sg82
g1084
sg75
(lp1100
g68
(g69
g70
NtRp1101
(dp1102
g73
(dp1103
g81
I4
ssg82
g1097
sg75
(lp1104
S'keep-alive'
p1105
asbasbasbag68
(g84
g70
NtRp1106
(dp1107
g73
(dp1108
sg82
g858
sg75
(lp1109
g68
(g89
g70
NtRp1110
(dp1111
g73
(dp1112
g93
g94
ssg82
g1106
sg75
(lp1113
S'http_cookie'
p1114
asbag68
(g89
g70
NtRp1115
(dp1116
g73
(dp1117
g100
g101
ssg82
g1106
sg75
(lp1118
S':'
asbag68
(g89
g70
NtRp1119
(dp1120
g73
(dp1121
sg82
g1106
sg75
(lp1122
g68
(g69
g70
NtRp1123
(dp1124
g73
(dp1125
g81
I4
ssg82
g1119
sg75
(lp1126
S'session_id_admin=127.0.0.1-7bf5236b-8ca1-4e3e-a316-0858e3e6db30; session_id_welcome=127.0.0.1-c9d00889-6dea-42d9-8854-eed4cc7ca179; session_id_textentries=127.0.0.1-74aec935-c7d0-4514-a6ce-84e446edd182'
p1127
asbasbasbag68
(g84
g70
NtRp1128
(dp1129
g73
(dp1130
sg82
g858
sg75
(lp1131
g68
(g89
g70
NtRp1132
(dp1133
g73
(dp1134
g93
g94
ssg82
g1128
sg75
(lp1135
S'http_host'
p1136
asbag68
(g89
g70
NtRp1137
(dp1138
g73
(dp1139
g100
g101
ssg82
g1128
sg75
(lp1140
S':'
asbag68
(g89
g70
NtRp1141
(dp1142
g73
(dp1143
sg82
g1128
sg75
(lp1144
g68
(g69
g70
NtRp1145
(dp1146
g73
(dp1147
g81
I4
ssg82
g1141
sg75
(lp1148
S'127.0.0.1:8000'
p1149
asbasbasbag68
(g84
g70
NtRp1150
(dp1151
g73
(dp1152
sg82
g858
sg75
(lp1153
g68
(g89
g70
NtRp1154
(dp1155
g73
(dp1156
g93
g94
ssg82
g1150
sg75
(lp1157
S'http_user_agent'
p1158
asbag68
(g89
g70
NtRp1159
(dp1160
g73
(dp1161
g100
g101
ssg82
g1150
sg75
(lp1162
S':'
asbag68
(g89
g70
NtRp1163
(dp1164
g73
(dp1165
sg82
g1150
sg75
(lp1166
g68
(g69
g70
NtRp1167
(dp1168
g73
(dp1169
g81
I4
ssg82
g1163
sg75
(lp1170
S'Mozilla/5.0 (Macintosh; Intel Mac OS X 10_8_2) AppleWebKit/536.26.14 (KHTML, like Gecko) Version/6.0.1 Safari/536.26.14'
p1171
asbasbasbag68
(g84
g70
NtRp1172
(dp1173
g73
(dp1174
sg82
g858
sg75
(lp1175
g68
(g89
g70
NtRp1176
(dp1177
g73
(dp1178
g93
g94
ssg82
g1172
sg75
(lp1179
S'is_jython'
p1180
asbag68
(g89
g70
NtRp1181
(dp1182
g73
(dp1183
g100
g101
ssg82
g1172
sg75
(lp1184
S':'
asbag68
(g89
g70
NtRp1185
(dp1186
g73
(dp1187
sg82
g1172
sg75
(lp1188
g68
(g69
g70
NtRp1189
(dp1190
g73
(dp1191
g81
I4
ssg82
g1185
sg75
(lp1192
g111
asbasbasbag68
(g84
g70
NtRp1193
(dp1194
g73
(dp1195
sg82
g858
sg75
(lp1196
g68
(g89
g70
NtRp1197
(dp1198
g73
(dp1199
g93
g94
ssg82
g1193
sg75
(lp1200
S'is_pypy'
p1201
asbag68
(g89
g70
NtRp1202
(dp1203
g73
(dp1204
g100
g101
ssg82
g1193
sg75
(lp1205
S':'
asbag68
(g89
g70
NtRp1206
(dp1207
g73
(dp1208
sg82
g1193
sg75
(lp1209
g68
(g69
g70
NtRp1210
(dp1211
g73
(dp1212
g81
I4
ssg82
g1206
sg75
(lp1213
g111
asbasbasbag68
(g84
g70
NtRp1214
(dp1215
g73
(dp1216
sg82
g858
sg75
(lp1217
g68
(g89
g70
NtRp1218
(dp1219
g73
(dp1220
g93
g94
ssg82
g1214
sg75
(lp1221
S'path_info'
p1222
asbag68
(g89
g70
NtRp1223
(dp1224
g73
(dp1225
g100
g101
ssg82
g1214
sg75
(lp1226
S':'
asbag68
(g89
g70
NtRp1227
(dp1228
g73
(dp1229
sg82
g1214
sg75
(lp1230
g68
(g69
g70
NtRp1231
(dp1232
g73
(dp1233
g81
I4
ssg82
g1227
sg75
(lp1234
S'/newsFeed/default/'
p1235
asbasbasbag68
(g84
g70
NtRp1236
(dp1237
g73
(dp1238
sg82
g858
sg75
(lp1239
g68
(g89
g70
NtRp1240
(dp1241
g73
(dp1242
g93
g94
ssg82
g1236
sg75
(lp1243
S'query_string'
p1244
asbag68
(g89
g70
NtRp1245
(dp1246
g73
(dp1247
g100
g101
ssg82
g1236
sg75
(lp1248
S':'
asbag68
(g89
g70
NtRp1249
(dp1250
g73
(dp1251
sg82
g1236
sg75
(lp1252
g68
(g69
g70
NtRp1253
(dp1254
g73
(dp1255
g81
I4
ssg82
g1249
sg75
(lp1256
S''
asbasbasbag68
(g84
g70
NtRp1257
(dp1258
g73
(dp1259
sg82
g858
sg75
(lp1260
g68
(g89
g70
NtRp1261
(dp1262
g73
(dp1263
g93
g94
ssg82
g1257
sg75
(lp1264
S'remote_addr'
p1265
asbag68
(g89
g70
NtRp1266
(dp1267
g73
(dp1268
g100
g101
ssg82
g1257
sg75
(lp1269
S':'
asbag68
(g89
g70
NtRp1270
(dp1271
g73
(dp1272
sg82
g1257
sg75
(lp1273
g68
(g69
g70
NtRp1274
(dp1275
g73
(dp1276
g81
I4
ssg82
g1270
sg75
(lp1277
g223
asbasbasbag68
(g84
g70
NtRp1278
(dp1279
g73
(dp1280
sg82
g858
sg75
(lp1281
g68
(g89
g70
NtRp1282
(dp1283
g73
(dp1284
g93
g94
ssg82
g1278
sg75
(lp1285
S'remote_port'
p1286
asbag68
(g89
g70
NtRp1287
(dp1288
g73
(dp1289
g100
g101
ssg82
g1278
sg75
(lp1290
S':'
asbag68
(g89
g70
NtRp1291
(dp1292
g73
(dp1293
sg82
g1278
sg75
(lp1294
g68
(g69
g70
NtRp1295
(dp1296
g73
(dp1297
g81
I4
ssg82
g1291
sg75
(lp1298
S'53720'
p1299
asbasbasbag68
(g84
g70
NtRp1300
(dp1301
g73
(dp1302
sg82
g858
sg75
(lp1303
g68
(g89
g70
NtRp1304
(dp1305
g73
(dp1306
g93
g94
ssg82
g1300
sg75
(lp1307
S'request_method'
p1308
asbag68
(g89
g70
NtRp1309
(dp1310
g73
(dp1311
g100
g101
ssg82
g1300
sg75
(lp1312
S':'
asbag68
(g89
g70
NtRp1313
(dp1314
g73
(dp1315
sg82
g1300
sg75
(lp1316
g68
(g69
g70
NtRp1317
(dp1318
g73
(dp1319
g81
I4
ssg82
g1313
sg75
(lp1320
S'GET'
p1321
asbasbasbag68
(g84
g70
NtRp1322
(dp1323
g73
(dp1324
sg82
g858
sg75
(lp1325
g68
(g89
g70
NtRp1326
(dp1327
g73
(dp1328
g93
g94
ssg82
g1322
sg75
(lp1329
S'request_uri'
p1330
asbag68
(g89
g70
NtRp1331
(dp1332
g73
(dp1333
g100
g101
ssg82
g1322
sg75
(lp1334
S':'
asbag68
(g89
g70
NtRp1335
(dp1336
g73
(dp1337
sg82
g1322
sg75
(lp1338
g68
(g69
g70
NtRp1339
(dp1340
g73
(dp1341
g81
I4
ssg82
g1335
sg75
(lp1342
g1235
asbasbasbag68
(g84
g70
NtRp1343
(dp1344
g73
(dp1345
sg82
g858
sg75
(lp1346
g68
(g89
g70
NtRp1347
(dp1348
g73
(dp1349
g93
g94
ssg82
g1343
sg75
(lp1350
S'script_name'
p1351
asbag68
(g89
g70
NtRp1352
(dp1353
g73
(dp1354
g100
g101
ssg82
g1343
sg75
(lp1355
S':'
asbag68
(g89
g70
NtRp1356
(dp1357
g73
(dp1358
sg82
g1343
sg75
(lp1359
g68
(g69
g70
NtRp1360
(dp1361
g73
(dp1362
g81
I4
ssg82
g1356
sg75
(lp1363
S''
asbasbasbag68
(g84
g70
NtRp1364
(dp1365
g73
(dp1366
sg82
g858
sg75
(lp1367
g68
(g89
g70
NtRp1368
(dp1369
g73
(dp1370
g93
g94
ssg82
g1364
sg75
(lp1371
S'server_name'
p1372
asbag68
(g89
g70
NtRp1373
(dp1374
g73
(dp1375
g100
g101
ssg82
g1364
sg75
(lp1376
S':'
asbag68
(g89
g70
NtRp1377
(dp1378
g73
(dp1379
sg82
g1364
sg75
(lp1380
g68
(g69
g70
NtRp1381
(dp1382
g73
(dp1383
g81
I4
ssg82
g1377
sg75
(lp1384
S'Karls-MacBook-Pro.local'
p1385
asbasbasbag68
(g84
g70
NtRp1386
(dp1387
g73
(dp1388
sg82
g858
sg75
(lp1389
g68
(g89
g70
NtRp1390
(dp1391
g73
(dp1392
g93
g94
ssg82
g1386
sg75
(lp1393
S'server_port'
p1394
asbag68
(g89
g70
NtRp1395
(dp1396
g73
(dp1397
g100
g101
ssg82
g1386
sg75
(lp1398
S':'
asbag68
(g89
g70
NtRp1399
(dp1400
g73
(dp1401
sg82
g1386
sg75
(lp1402
g68
(g69
g70
NtRp1403
(dp1404
g73
(dp1405
g81
I4
ssg82
g1399
sg75
(lp1406
S'8000'
p1407
asbasbasbag68
(g84
g70
NtRp1408
(dp1409
g73
(dp1410
sg82
g858
sg75
(lp1411
g68
(g89
g70
NtRp1412
(dp1413
g73
(dp1414
g93
g94
ssg82
g1408
sg75
(lp1415
S'server_protocol'
p1416
asbag68
(g89
g70
NtRp1417
(dp1418
g73
(dp1419
g100
g101
ssg82
g1408
sg75
(lp1420
S':'
asbag68
(g89
g70
NtRp1421
(dp1422
g73
(dp1423
sg82
g1408
sg75
(lp1424
g68
(g69
g70
NtRp1425
(dp1426
g73
(dp1427
g81
I4
ssg82
g1421
sg75
(lp1428
S'HTTP/1.1'
p1429
asbasbasbag68
(g84
g70
NtRp1430
(dp1431
g73
(dp1432
sg82
g858
sg75
(lp1433
g68
(g89
g70
NtRp1434
(dp1435
g73
(dp1436
g93
g94
ssg82
g1430
sg75
(lp1437
S'server_software'
p1438
asbag68
(g89
g70
NtRp1439
(dp1440
g73
(dp1441
g100
g101
ssg82
g1430
sg75
(lp1442
S':'
asbag68
(g89
g70
NtRp1443
(dp1444
g73
(dp1445
sg82
g1430
sg75
(lp1446
g68
(g69
g70
NtRp1447
(dp1448
g73
(dp1449
g81
I4
ssg82
g1443
sg75
(lp1450
S'Rocket 1.2.4'
p1451
asbasbasbag68
(g84
g70
NtRp1452
(dp1453
g73
(dp1454
sg82
g858
sg75
(lp1455
g68
(g89
g70
NtRp1456
(dp1457
g73
(dp1458
g93
g94
ssg82
g1452
sg75
(lp1459
S'web2py_crontype'
p1460
asbag68
(g89
g70
NtRp1461
(dp1462
g73
(dp1463
g100
g101
ssg82
g1452
sg75
(lp1464
S':'
asbag68
(g89
g70
NtRp1465
(dp1466
g73
(dp1467
sg82
g1452
sg75
(lp1468
g68
(g69
g70
NtRp1469
(dp1470
g73
(dp1471
g81
I4
ssg82
g1465
sg75
(lp1472
S'hard'
p1473
asbasbasbag68
(g84
g70
NtRp1474
(dp1475
g73
(dp1476
sg82
g858
sg75
(lp1477
g68
(g89
g70
NtRp1478
(dp1479
g73
(dp1480
g93
g94
ssg82
g1474
sg75
(lp1481
S'web2py_path'
p1482
asbag68
(g89
g70
NtRp1483
(dp1484
g73
(dp1485
g100
g101
ssg82
g1474
sg75
(lp1486
S':'
asbag68
(g89
g70
NtRp1487
(dp1488
g73
(dp1489
sg82
g1474
sg75
(lp1490
g68
(g69
g70
NtRp1491
(dp1492
g73
(dp1493
g81
I4
ssg82
g1487
sg75
(lp1494
g905
asbasbasbag68
(g84
g70
NtRp1495
(dp1496
g73
(dp1497
sg82
g858
sg75
(lp1498
g68
(g89
g70
NtRp1499
(dp1500
g73
(dp1501
g93
g94
ssg82
g1495
sg75
(lp1502
S'web2py_version'
p1503
asbag68
(g89
g70
NtRp1504
(dp1505
g73
(dp1506
g100
g101
ssg82
g1495
sg75
(lp1507
S':'
asbag68
(g89
g70
NtRp1508
(dp1509
g73
(dp1510
sg82
g1495
sg75
(lp1511
g68
(g69
g70
NtRp1512
(dp1513
g73
(dp1514
g81
I4
ssg82
g1508
sg75
(lp1515
g68
(g77
g70
NtRp1516
(dp1517
g73
(dp1518
g81
I3
ssg82
Nsg75
(lp1519
g68
(g84
g70
NtRp1520
(dp1521
g73
(dp1522
sg82
g1516
sg75
(lp1523
g68
(g89
g70
NtRp1524
(dp1525
g73
(dp1526
sg82
g1520
sg75
(lp1527
g68
(g69
g70
NtRp1528
(dp1529
g73
(dp1530
g81
I3
ssg82
g1524
sg75
(lp1531
S'2'
asbasbasbag68
(g84
g70
NtRp1532
(dp1533
g73
(dp1534
sg82
g1516
sg75
(lp1535
g68
(g89
g70
NtRp1536
(dp1537
g73
(dp1538
sg82
g1532
sg75
(lp1539
g68
(g69
g70
NtRp1540
(dp1541
g73
(dp1542
g81
I3
ssg82
g1536
sg75
(lp1543
S'0'
asbasbasbag68
(g84
g70
NtRp1544
(dp1545
g73
(dp1546
sg82
g1516
sg75
(lp1547
g68
(g89
g70
NtRp1548
(dp1549
g73
(dp1550
sg82
g1544
sg75
(lp1551
g68
(g69
g70
NtRp1552
(dp1553
g73
(dp1554
g81
I3
ssg82
g1548
sg75
(lp1555
S'9'
asbasbasbag68
(g84
g70
NtRp1556
(dp1557
g73
(dp1558
sg82
g1516
sg75
(lp1559
g68
(g89
g70
NtRp1560
(dp1561
g73
(dp1562
sg82
g1556
sg75
(lp1563
g68
(g69
g70
NtRp1564
(dp1565
g73
(dp1566
g81
I3
ssg82
g1560
sg75
(lp1567
S'datetime.datetime(2012, 9, 13, 23, 51, 30)'
p1568
asbasbasbag68
(g84
g70
NtRp1569
(dp1570
g73
(dp1571
sg82
g1516
sg75
(lp1572
g68
(g89
g70
NtRp1573
(dp1574
g73
(dp1575
sg82
g1569
sg75
(lp1576
g68
(g69
g70
NtRp1577
(dp1578
g73
(dp1579
g81
I3
ssg82
g1573
sg75
(lp1580
S'stable'
p1581
asbasbasbasbasbasbasbag68
(g84
g70
NtRp1582
(dp1583
g73
(dp1584
sg82
g858
sg75
(lp1585
g68
(g89
g70
NtRp1586
(dp1587
g73
(dp1588
g93
g94
ssg82
g1582
sg75
(lp1589
S'wsgi_errors'
p1590
asbag68
(g89
g70
NtRp1591
(dp1592
g73
(dp1593
g100
g101
ssg82
g1582
sg75
(lp1594
S':'
asbag68
(g89
g70
NtRp1595
(dp1596
g73
(dp1597
sg82
g1582
sg75
(lp1598
g68
(g69
g70
NtRp1599
(dp1600
g73
(dp1601
g81
I4
ssg82
g1595
sg75
(lp1602
S"<open file '<stderr>', mode 'w' at 0x100284270>"
p1603
asbasbasbag68
(g84
g70
NtRp1604
(dp1605
g73
(dp1606
sg82
g858
sg75
(lp1607
g68
(g89
g70
NtRp1608
(dp1609
g73
(dp1610
g93
g94
ssg82
g1604
sg75
(lp1611
S'wsgi_file_wrapper'
p1612
asbag68
(g89
g70
NtRp1613
(dp1614
g73
(dp1615
g100
g101
ssg82
g1604
sg75
(lp1616
S':'
asbag68
(g89
g70
NtRp1617
(dp1618
g73
(dp1619
sg82
g1604
sg75
(lp1620
g68
(g69
g70
NtRp1621
(dp1622
g73
(dp1623
g81
I4
ssg82
g1617
sg75
(lp1624
S'<class wsgiref.util.FileWrapper at 0x101c53bb0>'
p1625
asbasbasbag68
(g84
g70
NtRp1626
(dp1627
g73
(dp1628
sg82
g858
sg75
(lp1629
g68
(g89
g70
NtRp1630
(dp1631
g73
(dp1632
g93
g94
ssg82
g1626
sg75
(lp1633
S'wsgi_input'
p1634
asbag68
(g89
g70
NtRp1635
(dp1636
g73
(dp1637
g100
g101
ssg82
g1626
sg75
(lp1638
S':'
asbag68
(g89
g70
NtRp1639
(dp1640
g73
(dp1641
sg82
g1626
sg75
(lp1642
g68
(g69
g70
NtRp1643
(dp1644
g73
(dp1645
g81
I4
ssg82
g1639
sg75
(lp1646
S'<socket._fileobject object at 0x10232c2d0>'
p1647
asbasbasbag68
(g84
g70
NtRp1648
(dp1649
g73
(dp1650
sg82
g858
sg75
(lp1651
g68
(g89
g70
NtRp1652
(dp1653
g73
(dp1654
g93
g94
ssg82
g1648
sg75
(lp1655
S'wsgi_multiprocess'
p1656
asbag68
(g89
g70
NtRp1657
(dp1658
g73
(dp1659
g100
g101
ssg82
g1648
sg75
(lp1660
S':'
asbag68
(g89
g70
NtRp1661
(dp1662
g73
(dp1663
sg82
g1648
sg75
(lp1664
g68
(g69
g70
NtRp1665
(dp1666
g73
(dp1667
g81
I4
ssg82
g1661
sg75
(lp1668
g111
asbasbasbag68
(g84
g70
NtRp1669
(dp1670
g73
(dp1671
sg82
g858
sg75
(lp1672
g68
(g89
g70
NtRp1673
(dp1674
g73
(dp1675
g93
g94
ssg82
g1669
sg75
(lp1676
S'wsgi_multithread'
p1677
asbag68
(g89
g70
NtRp1678
(dp1679
g73
(dp1680
g100
g101
ssg82
g1669
sg75
(lp1681
S':'
asbag68
(g89
g70
NtRp1682
(dp1683
g73
(dp1684
sg82
g1669
sg75
(lp1685
g68
(g69
g70
NtRp1686
(dp1687
g73
(dp1688
g81
I4
ssg82
g1682
sg75
(lp1689
S'True'
p1690
asbasbasbag68
(g84
g70
NtRp1691
(dp1692
g73
(dp1693
sg82
g858
sg75
(lp1694
g68
(g89
g70
NtRp1695
(dp1696
g73
(dp1697
g93
g94
ssg82
g1691
sg75
(lp1698
S'wsgi_run_once'
p1699
asbag68
(g89
g70
NtRp1700
(dp1701
g73
(dp1702
g100
g101
ssg82
g1691
sg75
(lp1703
S':'
asbag68
(g89
g70
NtRp1704
(dp1705
g73
(dp1706
sg82
g1691
sg75
(lp1707
g68
(g69
g70
NtRp1708
(dp1709
g73
(dp1710
g81
I4
ssg82
g1704
sg75
(lp1711
g111
asbasbasbag68
(g84
g70
NtRp1712
(dp1713
g73
(dp1714
sg82
g858
sg75
(lp1715
g68
(g89
g70
NtRp1716
(dp1717
g73
(dp1718
g93
g94
ssg82
g1712
sg75
(lp1719
S'wsgi_url_scheme'
p1720
asbag68
(g89
g70
NtRp1721
(dp1722
g73
(dp1723
g100
g101
ssg82
g1712
sg75
(lp1724
S':'
asbag68
(g89
g70
NtRp1725
(dp1726
g73
(dp1727
sg82
g1712
sg75
(lp1728
g68
(g69
g70
NtRp1729
(dp1730
g73
(dp1731
g81
I4
ssg82
g1725
sg75
(lp1732
S'http'
p1733
asbasbasbag68
(g84
g70
NtRp1734
(dp1735
g73
(dp1736
sg82
g858
sg75
(lp1737
g68
(g89
g70
NtRp1738
(dp1739
g73
(dp1740
g93
g94
ssg82
g1734
sg75
(lp1741
S'wsgi_version'
p1742
asbag68
(g89
g70
NtRp1743
(dp1744
g73
(dp1745
g100
g101
ssg82
g1734
sg75
(lp1746
S':'
asbag68
(g89
g70
NtRp1747
(dp1748
g73
(dp1749
sg82
g1734
sg75
(lp1750
g68
(g69
g70
NtRp1751
(dp1752
g73
(dp1753
g81
I4
ssg82
g1747
sg75
(lp1754
g68
(g77
g70
NtRp1755
(dp1756
g73
(dp1757
g81
I3
ssg82
Nsg75
(lp1758
g68
(g84
g70
NtRp1759
(dp1760
g73
(dp1761
sg82
g1755
sg75
(lp1762
g68
(g89
g70
NtRp1763
(dp1764
g73
(dp1765
sg82
g1759
sg75
(lp1766
g68
(g69
g70
NtRp1767
(dp1768
g73
(dp1769
g81
I3
ssg82
g1763
sg75
(lp1770
S'1'
asbasbasbag68
(g84
g70
NtRp1771
(dp1772
g73
(dp1773
sg82
g1755
sg75
(lp1774
g68
(g89
g70
NtRp1775
(dp1776
g73
(dp1777
sg82
g1771
sg75
(lp1778
g68
(g69
g70
NtRp1779
(dp1780
g73
(dp1781
g81
I3
ssg82
g1775
sg75
(lp1782
S'0'
asbasbasbasbasbasbasbasbasbasbasbag68
(g84
g70
NtRp1783
(dp1784
g73
(dp1785
sg82
g78
sg75
(lp1786
g68
(g89
g70
NtRp1787
(dp1788
g73
(dp1789
g93
g94
ssg82
g1783
sg75
(lp1790
S'extension'
p1791
asbag68
(g89
g70
NtRp1792
(dp1793
g73
(dp1794
g100
g101
ssg82
g1783
sg75
(lp1795
S':'
asbag68
(g89
g70
NtRp1796
(dp1797
g73
(dp1798
sg82
g1783
sg75
(lp1799
g68
(g69
g70
NtRp1800
(dp1801
g73
(dp1802
g81
I5
ssg82
g1796
sg75
(lp1803
S'html'
p1804
asbasbasbag68
(g84
g70
NtRp1805
(dp1806
g73
(dp1807
sg82
g78
sg75
(lp1808
g68
(g89
g70
NtRp1809
(dp1810
g73
(dp1811
g93
g94
ssg82
g1805
sg75
(lp1812
S'folder'
p1813
asbag68
(g89
g70
NtRp1814
(dp1815
g73
(dp1816
g100
g101
ssg82
g1805
sg75
(lp1817
S':'
asbag68
(g89
g70
NtRp1818
(dp1819
g73
(dp1820
sg82
g1805
sg75
(lp1821
g68
(g69
g70
NtRp1822
(dp1823
g73
(dp1824
g81
I5
ssg82
g1818
sg75
(lp1825
S'/Users/Karl/code/web2py/applications/newsFeed/'
p1826
asbasbasbag68
(g84
g70
NtRp1827
(dp1828
g73
(dp1829
sg82
g78
sg75
(lp1830
g68
(g89
g70
NtRp1831
(dp1832
g73
(dp1833
g93
g94
ssg82
g1827
sg75
(lp1834
S'function'
p1835
asbag68
(g89
g70
NtRp1836
(dp1837
g73
(dp1838
g100
g101
ssg82
g1827
sg75
(lp1839
S':'
asbag68
(g89
g70
NtRp1840
(dp1841
g73
(dp1842
sg82
g1827
sg75
(lp1843
g68
(g69
g70
NtRp1844
(dp1845
g73
(dp1846
g81
I5
ssg82
g1840
sg75
(lp1847
S'index'
p1848
asbasbasbag68
(g84
g70
NtRp1849
(dp1850
g73
(dp1851
sg82
g78
sg75
(lp1852
g68
(g89
g70
NtRp1853
(dp1854
g73
(dp1855
g93
g94
ssg82
g1849
sg75
(lp1856
S'get_vars'
p1857
asbag68
(g89
g70
NtRp1858
(dp1859
g73
(dp1860
g100
g101
ssg82
g1849
sg75
(lp1861
S':'
asbag68
(g89
g70
NtRp1862
(dp1863
g73
(dp1864
sg82
g1849
sg75
(lp1865
g68
(g69
g70
NtRp1866
(dp1867
g73
(dp1868
g81
I5
ssg82
g1862
sg75
(lp1869
g68
(g77
g70
NtRp1870
(dp1871
g73
(dp1872
g81
I4
ssg82
Nsg75
(lp1873
sbasbasbasbag68
(g84
g70
NtRp1874
(dp1875
g73
(dp1876
sg82
g78
sg75
(lp1877
g68
(g89
g70
NtRp1878
(dp1879
g73
(dp1880
g93
g94
ssg82
g1874
sg75
(lp1881
S'global_settings'
p1882
asbag68
(g89
g70
NtRp1883
(dp1884
g73
(dp1885
g100
g101
ssg82
g1874
sg75
(lp1886
S':'
asbag68
(g89
g70
NtRp1887
(dp1888
g73
(dp1889
sg82
g1874
sg75
(lp1890
g68
(g69
g70
NtRp1891
(dp1892
g73
(dp1893
g81
I5
ssg82
g1887
sg75
(lp1894
g68
(g77
g70
NtRp1895
(dp1896
g73
(dp1897
g81
I4
ssg82
Nsg75
(lp1898
g68
(g84
g70
NtRp1899
(dp1900
g73
(dp1901
sg82
g1895
sg75
(lp1902
g68
(g89
g70
NtRp1903
(dp1904
g73
(dp1905
g93
g94
ssg82
g1899
sg75
(lp1906
g870
asbag68
(g89
g70
NtRp1907
(dp1908
g73
(dp1909
g100
g101
ssg82
g1899
sg75
(lp1910
S':'
asbag68
(g89
g70
NtRp1911
(dp1912
g73
(dp1913
sg82
g1899
sg75
(lp1914
g68
(g69
g70
NtRp1915
(dp1916
g73
(dp1917
g81
I4
ssg82
g1911
sg75
(lp1918
S"set(['/Users/Karl/code/web2py/applications/newsFeed/', '/Users/Karl/code/web2py/applications/admin/', '/Users/Karl/code/web2py/applications/welcome/'])"
p1919
asbasbasbag68
(g84
g70
NtRp1920
(dp1921
g73
(dp1922
sg82
g1895
sg75
(lp1923
g68
(g89
g70
NtRp1924
(dp1925
g73
(dp1926
g93
g94
ssg82
g1920
sg75
(lp1927
g892
asbag68
(g89
g70
NtRp1928
(dp1929
g73
(dp1930
g100
g101
ssg82
g1920
sg75
(lp1931
S':'
asbag68
(g89
g70
NtRp1932
(dp1933
g73
(dp1934
sg82
g1920
sg75
(lp1935
g68
(g69
g70
NtRp1936
(dp1937
g73
(dp1938
g81
I4
ssg82
g1932
sg75
(lp1939
g905
asbasbasbag68
(g84
g70
NtRp1940
(dp1941
g73
(dp1942
sg82
g1895
sg75
(lp1943
g68
(g89
g70
NtRp1944
(dp1945
g73
(dp1946
g93
g94
ssg82
g1940
sg75
(lp1947
g914
asbag68
(g89
g70
NtRp1948
(dp1949
g73
(dp1950
g100
g101
ssg82
g1940
sg75
(lp1951
S':'
asbag68
(g89
g70
NtRp1952
(dp1953
g73
(dp1954
sg82
g1940
sg75
(lp1955
g68
(g69
g70
NtRp1956
(dp1957
g73
(dp1958
g81
I4
ssg82
g1952
sg75
(lp1959
g68
(g77
g70
NtRp1960
(dp1961
g73
(dp1962
g81
I3
ssg82
Nsg75
(lp1963
sbasbasbasbag68
(g84
g70
NtRp1964
(dp1965
g73
(dp1966
sg82
g1895
sg75
(lp1967
g68
(g89
g70
NtRp1968
(dp1969
g73
(dp1970
g93
g94
ssg82
g1964
sg75
(lp1971
g939
asbag68
(g89
g70
NtRp1972
(dp1973
g73
(dp1974
g100
g101
ssg82
g1964
sg75
(lp1975
S':'
asbag68
(g89
g70
NtRp1976
(dp1977
g73
(dp1978
sg82
g1964
sg75
(lp1979
g68
(g69
g70
NtRp1980
(dp1981
g73
(dp1982
g81
I4
ssg82
g1976
sg75
(lp1983
S"<Values at 0x101caf200: {'verbose': False, 'ip': '127.0.0.1', 'with_scheduler': False, 'ips': ['172.25.51.201'], 'shutdown_timeout': 5, 'taskbar': False, 'port': 8000, 'maxthreads': None, 'softcron': False, 'server_name': 'Karls-MacBook-Pro.local', 'bpython': False, 'nogui': False, 'nocron': False, 'extcron': False, 'run_system_tests': False, 'test': None, 'folder': '/Users/Karl/code/web2py', 'config': '', 'import_models': False, 'winservice': '', 'shell': None, 'run': '', 'log_filename': 'httpserver.log', 'debuglevel': 30, 'args': [''], 'socket_timeout': 5, 'ssl_ca_certificate': None, 'scheduler': None, 'profiler_filename': None, 'ssl_private_key': '', 'scheduler_groups': None, 'password': '<ask>', 'request_queue_size': 5, 'ssl_certificate': '', 'cronjob': False, 'numthreads': None, 'quiet': False, 'interfaces': None, 'minthreads': None, 'timeout': 10, 'plain': False, 'nobanner': False, 'pid_filename': 'httpserver.pid'}>"
p1984
asbasbasbag68
(g84
g70
NtRp1985
(dp1986
g73
(dp1987
sg82
g1895
sg75
(lp1988
g68
(g89
g70
NtRp1989
(dp1990
g73
(dp1991
g93
g94
ssg82
g1985
sg75
(lp1992
g961
asbag68
(g89
g70
NtRp1993
(dp1994
g73
(dp1995
g100
g101
ssg82
g1985
sg75
(lp1996
S':'
asbag68
(g89
g70
NtRp1997
(dp1998
g73
(dp1999
sg82
g1985
sg75
(lp2000
g68
(g69
g70
NtRp2001
(dp2002
g73
(dp2003
g81
I4
ssg82
g1997
sg75
(lp2004
S'set([])'
p2005
asbasbasbag68
(g84
g70
NtRp2006
(dp2007
g73
(dp2008
sg82
g1895
sg75
(lp2009
g68
(g89
g70
NtRp2010
(dp2011
g73
(dp2012
g93
g94
ssg82
g2006
sg75
(lp2013
g983
asbag68
(g89
g70
NtRp2014
(dp2015
g73
(dp2016
g100
g101
ssg82
g2006
sg75
(lp2017
S':'
asbag68
(g89
g70
NtRp2018
(dp2019
g73
(dp2020
sg82
g2006
sg75
(lp2021
g68
(g69
g70
NtRp2022
(dp2023
g73
(dp2024
g81
I4
ssg82
g2018
sg75
(lp2025
g111
asbasbasbag68
(g84
g70
NtRp2026
(dp2027
g73
(dp2028
sg82
g1895
sg75
(lp2029
g68
(g89
g70
NtRp2030
(dp2031
g73
(dp2032
g93
g94
ssg82
g2026
sg75
(lp2033
g1004
asbag68
(g89
g70
NtRp2034
(dp2035
g73
(dp2036
g100
g101
ssg82
g2026
sg75
(lp2037
S':'
asbag68
(g89
g70
NtRp2038
(dp2039
g73
(dp2040
sg82
g2026
sg75
(lp2041
g68
(g69
g70
NtRp2042
(dp2043
g73
(dp2044
g81
I4
ssg82
g2038
sg75
(lp2045
g1017
asbasbasbag68
(g84
g70
NtRp2046
(dp2047
g73
(dp2048
sg82
g1895
sg75
(lp2049
g68
(g89
g70
NtRp2050
(dp2051
g73
(dp2052
g93
g94
ssg82
g2046
sg75
(lp2053
g1180
asbag68
(g89
g70
NtRp2054
(dp2055
g73
(dp2056
g100
g101
ssg82
g2046
sg75
(lp2057
S':'
asbag68
(g89
g70
NtRp2058
(dp2059
g73
(dp2060
sg82
g2046
sg75
(lp2061
g68
(g69
g70
NtRp2062
(dp2063
g73
(dp2064
g81
I4
ssg82
g2058
sg75
(lp2065
g111
asbasbasbag68
(g84
g70
NtRp2066
(dp2067
g73
(dp2068
sg82
g1895
sg75
(lp2069
g68
(g89
g70
NtRp2070
(dp2071
g73
(dp2072
g93
g94
ssg82
g2066
sg75
(lp2073
g1201
asbag68
(g89
g70
NtRp2074
(dp2075
g73
(dp2076
g100
g101
ssg82
g2066
sg75
(lp2077
S':'
asbag68
(g89
g70
NtRp2078
(dp2079
g73
(dp2080
sg82
g2066
sg75
(lp2081
g68
(g69
g70
NtRp2082
(dp2083
g73
(dp2084
g81
I4
ssg82
g2078
sg75
(lp2085
g111
asbasbasbag68
(g84
g70
NtRp2086
(dp2087
g73
(dp2088
sg82
g1895
sg75
(lp2089
g68
(g89
g70
NtRp2090
(dp2091
g73
(dp2092
g93
g94
ssg82
g2086
sg75
(lp2093
g1460
asbag68
(g89
g70
NtRp2094
(dp2095
g73
(dp2096
g100
g101
ssg82
g2086
sg75
(lp2097
S':'
asbag68
(g89
g70
NtRp2098
(dp2099
g73
(dp2100
sg82
g2086
sg75
(lp2101
g68
(g69
g70
NtRp2102
(dp2103
g73
(dp2104
g81
I4
ssg82
g2098
sg75
(lp2105
g1473
asbasbasbag68
(g84
g70
NtRp2106
(dp2107
g73
(dp2108
sg82
g1895
sg75
(lp2109
g68
(g89
g70
NtRp2110
(dp2111
g73
(dp2112
g93
g94
ssg82
g2106
sg75
(lp2113
g1503
asbag68
(g89
g70
NtRp2114
(dp2115
g73
(dp2116
g100
g101
ssg82
g2106
sg75
(lp2117
S':'
asbag68
(g89
g70
NtRp2118
(dp2119
g73
(dp2120
sg82
g2106
sg75
(lp2121
g68
(g69
g70
NtRp2122
(dp2123
g73
(dp2124
g81
I4
ssg82
g2118
sg75
(lp2125
g68
(g77
g70
NtRp2126
(dp2127
g73
(dp2128
g81
I3
ssg82
Nsg75
(lp2129
g68
(g84
g70
NtRp2130
(dp2131
g73
(dp2132
sg82
g2126
sg75
(lp2133
g68
(g89
g70
NtRp2134
(dp2135
g73
(dp2136
sg82
g2130
sg75
(lp2137
g68
(g69
g70
NtRp2138
(dp2139
g73
(dp2140
g81
I3
ssg82
g2134
sg75
(lp2141
S'2'
asbasbasbag68
(g84
g70
NtRp2142
(dp2143
g73
(dp2144
sg82
g2126
sg75
(lp2145
g68
(g89
g70
NtRp2146
(dp2147
g73
(dp2148
sg82
g2142
sg75
(lp2149
g68
(g69
g70
NtRp2150
(dp2151
g73
(dp2152
g81
I3
ssg82
g2146
sg75
(lp2153
S'0'
asbasbasbag68
(g84
g70
NtRp2154
(dp2155
g73
(dp2156
sg82
g2126
sg75
(lp2157
g68
(g89
g70
NtRp2158
(dp2159
g73
(dp2160
sg82
g2154
sg75
(lp2161
g68
(g69
g70
NtRp2162
(dp2163
g73
(dp2164
g81
I3
ssg82
g2158
sg75
(lp2165
S'9'
asbasbasbag68
(g84
g70
NtRp2166
(dp2167
g73
(dp2168
sg82
g2126
sg75
(lp2169
g68
(g89
g70
NtRp2170
(dp2171
g73
(dp2172
sg82
g2166
sg75
(lp2173
g68
(g69
g70
NtRp2174
(dp2175
g73
(dp2176
g81
I3
ssg82
g2170
sg75
(lp2177
S'datetime.datetime(2012, 9, 13, 23, 51, 30)'
p2178
asbasbasbag68
(g84
g70
NtRp2179
(dp2180
g73
(dp2181
sg82
g2126
sg75
(lp2182
g68
(g89
g70
NtRp2183
(dp2184
g73
(dp2185
sg82
g2179
sg75
(lp2186
g68
(g69
g70
NtRp2187
(dp2188
g73
(dp2189
g81
I3
ssg82
g2183
sg75
(lp2190
g1581
asbasbasbasbasbasbasbasbasbasbasbag68
(g84
g70
NtRp2191
(dp2192
g73
(dp2193
sg82
g78
sg75
(lp2194
g68
(g89
g70
NtRp2195
(dp2196
g73
(dp2197
g93
g94
ssg82
g2191
sg75
(lp2198
S'is_https'
p2199
asbag68
(g89
g70
NtRp2200
(dp2201
g73
(dp2202
g100
g101
ssg82
g2191
sg75
(lp2203
S':'
asbag68
(g89
g70
NtRp2204
(dp2205
g73
(dp2206
sg82
g2191
sg75
(lp2207
g68
(g69
g70
NtRp2208
(dp2209
g73
(dp2210
g81
I5
ssg82
g2204
sg75
(lp2211
g111
asbasbasbag68
(g84
g70
NtRp2212
(dp2213
g73
(dp2214
sg82
g78
sg75
(lp2215
g68
(g89
g70
NtRp2216
(dp2217
g73
(dp2218
g93
g94
ssg82
g2212
sg75
(lp2219
S'is_local'
p2220
asbag68
(g89
g70
NtRp2221
(dp2222
g73
(dp2223
g100
g101
ssg82
g2212
sg75
(lp2224
S':'
asbag68
(g89
g70
NtRp2225
(dp2226
g73
(dp2227
sg82
g2212
sg75
(lp2228
g68
(g69
g70
NtRp2229
(dp2230
g73
(dp2231
g81
I5
ssg82
g2225
sg75
(lp2232
g1690
asbasbasbag68
(g84
g70
NtRp2233
(dp2234
g73
(dp2235
sg82
g78
sg75
(lp2236
g68
(g89
g70
NtRp2237
(dp2238
g73
(dp2239
g93
g94
ssg82
g2233
sg75
(lp2240
S'is_restful'
p2241
asbag68
(g89
g70
NtRp2242
(dp2243
g73
(dp2244
g100
g101
ssg82
g2233
sg75
(lp2245
S':'
asbag68
(g89
g70
NtRp2246
(dp2247
g73
(dp2248
sg82
g2233
sg75
(lp2249
g68
(g69
g70
NtRp2250
(dp2251
g73
(dp2252
g81
I5
ssg82
g2246
sg75
(lp2253
g111
asbasbasbag68
(g84
g70
NtRp2254
(dp2255
g73
(dp2256
sg82
g78
sg75
(lp2257
g68
(g89
g70
NtRp2258
(dp2259
g73
(dp2260
g93
g94
ssg82
g2254
sg75
(lp2261
S'now'
p2262
asbag68
(g89
g70
NtRp2263
(dp2264
g73
(dp2265
g100
g101
ssg82
g2254
sg75
(lp2266
S':'
asbag68
(g89
g70
NtRp2267
(dp2268
g73
(dp2269
sg82
g2254
sg75
(lp2270
g68
(g69
g70
NtRp2271
(dp2272
g73
(dp2273
g81
I5
ssg82
g2267
sg75
(lp2274
S'datetime.datetime(2012, 10, 30, 15, 20, 7, 245344)'
p2275
asbasbasbag68
(g84
g70
NtRp2276
(dp2277
g73
(dp2278
sg82
g78
sg75
(lp2279
g68
(g89
g70
NtRp2280
(dp2281
g73
(dp2282
g93
g94
ssg82
g2276
sg75
(lp2283
S'post_vars'
p2284
asbag68
(g89
g70
NtRp2285
(dp2286
g73
(dp2287
g100
g101
ssg82
g2276
sg75
(lp2288
S':'
asbag68
(g89
g70
NtRp2289
(dp2290
g73
(dp2291
sg82
g2276
sg75
(lp2292
g68
(g69
g70
NtRp2293
(dp2294
g73
(dp2295
g81
I5
ssg82
g2289
sg75
(lp2296
g68
(g77
g70
NtRp2297
(dp2298
g73
(dp2299
g81
I4
ssg82
Nsg75
(lp2300
sbasbasbasbag68
(g84
g70
NtRp2301
(dp2302
g73
(dp2303
sg82
g78
sg75
(lp2304
g68
(g89
g70
NtRp2305
(dp2306
g73
(dp2307
g93
g94
ssg82
g2301
sg75
(lp2308
S'raw_args'
p2309
asbag68
(g89
g70
NtRp2310
(dp2311
g73
(dp2312
g100
g101
ssg82
g2301
sg75
(lp2313
S':'
asbag68
(g89
g70
NtRp2314
(dp2315
g73
(dp2316
sg82
g2301
sg75
(lp2317
g68
(g69
g70
NtRp2318
(dp2319
g73
(dp2320
g81
I5
ssg82
g2314
sg75
(lp2321
S'None'
p2322
asbasbasbag68
(g84
g70
NtRp2323
(dp2324
g73
(dp2325
sg82
g78
sg75
(lp2326
g68
(g89
g70
NtRp2327
(dp2328
g73
(dp2329
g93
g94
ssg82
g2323
sg75
(lp2330
S'raw_extension'
p2331
asbag68
(g89
g70
NtRp2332
(dp2333
g73
(dp2334
g100
g101
ssg82
g2323
sg75
(lp2335
S':'
asbag68
(g89
g70
NtRp2336
(dp2337
g73
(dp2338
sg82
g2323
sg75
(lp2339
g68
(g69
g70
NtRp2340
(dp2341
g73
(dp2342
g81
I5
ssg82
g2336
sg75
(lp2343
S'None'
p2344
asbasbasbag68
(g84
g70
NtRp2345
(dp2346
g73
(dp2347
sg82
g78
sg75
(lp2348
g68
(g89
g70
NtRp2349
(dp2350
g73
(dp2351
g93
g94
ssg82
g2345
sg75
(lp2352
S'url'
p2353
asbag68
(g89
g70
NtRp2354
(dp2355
g73
(dp2356
g100
g101
ssg82
g2345
sg75
(lp2357
S':'
asbag68
(g89
g70
NtRp2358
(dp2359
g73
(dp2360
sg82
g2345
sg75
(lp2361
g68
(g69
g70
NtRp2362
(dp2363
g73
(dp2364
g81
I5
ssg82
g2358
sg75
(lp2365
g1235
asbasbasbag68
(g84
g70
NtRp2366
(dp2367
g73
(dp2368
sg82
g78
sg75
(lp2369
g68
(g89
g70
NtRp2370
(dp2371
g73
(dp2372
g93
g94
ssg82
g2366
sg75
(lp2373
S'utcnow'
p2374
asbag68
(g89
g70
NtRp2375
(dp2376
g73
(dp2377
g100
g101
ssg82
g2366
sg75
(lp2378
S':'
asbag68
(g89
g70
NtRp2379
(dp2380
g73
(dp2381
sg82
g2366
sg75
(lp2382
g68
(g69
g70
NtRp2383
(dp2384
g73
(dp2385
g81
I5
ssg82
g2379
sg75
(lp2386
S'datetime.datetime(2012, 10, 30, 19, 20, 7, 245353)'
p2387
asbasbasbag68
(g84
g70
NtRp2388
(dp2389
g73
(dp2390
sg82
g78
sg75
(lp2391
g68
(g89
g70
NtRp2392
(dp2393
g73
(dp2394
g93
g94
ssg82
g2388
sg75
(lp2395
S'uuid'
p2396
asbag68
(g89
g70
NtRp2397
(dp2398
g73
(dp2399
g100
g101
ssg82
g2388
sg75
(lp2400
S':'
asbag68
(g89
g70
NtRp2401
(dp2402
g73
(dp2403
sg82
g2388
sg75
(lp2404
g68
(g69
g70
NtRp2405
(dp2406
g73
(dp2407
g81
I5
ssg82
g2401
sg75
(lp2408
S'newsFeed/127.0.0.1.2012-10-30.15-20-07.10de77c8-7143-4e1e-8937-e98bc4468e59'
p2409
asbasbasbag68
(g84
g70
NtRp2410
(dp2411
g73
(dp2412
sg82
g78
sg75
(lp2413
g68
(g89
g70
NtRp2414
(dp2415
g73
(dp2416
g93
g94
ssg82
g2410
sg75
(lp2417
S'vars'
p2418
asbag68
(g89
g70
NtRp2419
(dp2420
g73
(dp2421
g100
g101
ssg82
g2410
sg75
(lp2422
S':'
asbag68
(g89
g70
NtRp2423
(dp2424
g73
(dp2425
sg82
g2410
sg75
(lp2426
g68
(g69
g70
NtRp2427
(dp2428
g73
(dp2429
g81
I5
ssg82
g2423
sg75
(lp2430
g68
(g77
g70
NtRp2431
(dp2432
g73
(dp2433
g81
I4
ssg82
Nsg75
(lp2434
sbasbasbasbag68
(g84
g70
NtRp2435
(dp2436
g73
(dp2437
sg82
g78
sg75
(lp2438
g68
(g89
g70
NtRp2439
(dp2440
g73
(dp2441
g93
g94
ssg82
g2435
sg75
(lp2442
S'wsgi'
p2443
asbag68
(g89
g70
NtRp2444
(dp2445
g73
(dp2446
g100
g101
ssg82
g2435
sg75
(lp2447
S':'
asbag68
(g89
g70
NtRp2448
(dp2449
g73
(dp2450
sg82
g2435
sg75
(lp2451
g68
(g69
g70
NtRp2452
(dp2453
g73
(dp2454
g81
I5
ssg82
g2448
sg75
(lp2455
g68
(g77
g70
NtRp2456
(dp2457
g73
(dp2458
g81
I4
ssg82
Nsg75
(lp2459
g68
(g84
g70
NtRp2460
(dp2461
g73
(dp2462
sg82
g2456
sg75
(lp2463
g68
(g89
g70
NtRp2464
(dp2465
g73
(dp2466
g93
g94
ssg82
g2460
sg75
(lp2467
S'environ'
p2468
asbag68
(g89
g70
NtRp2469
(dp2470
g73
(dp2471
g100
g101
ssg82
g2460
sg75
(lp2472
S':'
asbag68
(g89
g70
NtRp2473
(dp2474
g73
(dp2475
sg82
g2460
sg75
(lp2476
g68
(g69
g70
NtRp2477
(dp2478
g73
(dp2479
g81
I4
ssg82
g2473
sg75
(lp2480
g68
(g77
g70
NtRp2481
(dp2482
g73
(dp2483
g81
I3
ssg82
Nsg75
(lp2484
g68
(g84
g70
NtRp2485
(dp2486
g73
(dp2487
sg82
g2481
sg75
(lp2488
g68
(g89
g70
NtRp2489
(dp2490
g73
(dp2491
g93
g94
ssg82
g2485
sg75
(lp2492
S'HTTP_ACCEPT'
p2493
asbag68
(g89
g70
NtRp2494
(dp2495
g73
(dp2496
g100
g101
ssg82
g2485
sg75
(lp2497
S':'
asbag68
(g89
g70
NtRp2498
(dp2499
g73
(dp2500
sg82
g2485
sg75
(lp2501
g68
(g69
g70
NtRp2502
(dp2503
g73
(dp2504
g81
I3
ssg82
g2498
sg75
(lp2505
g1039
asbasbasbag68
(g84
g70
NtRp2506
(dp2507
g73
(dp2508
sg82
g2481
sg75
(lp2509
g68
(g89
g70
NtRp2510
(dp2511
g73
(dp2512
g93
g94
ssg82
g2506
sg75
(lp2513
S'HTTP_ACCEPT_ENCODING'
p2514
asbag68
(g89
g70
NtRp2515
(dp2516
g73
(dp2517
g100
g101
ssg82
g2506
sg75
(lp2518
S':'
asbag68
(g89
g70
NtRp2519
(dp2520
g73
(dp2521
sg82
g2506
sg75
(lp2522
g68
(g69
g70
NtRp2523
(dp2524
g73
(dp2525
g81
I3
ssg82
g2519
sg75
(lp2526
g1061
asbasbasbag68
(g84
g70
NtRp2527
(dp2528
g73
(dp2529
sg82
g2481
sg75
(lp2530
g68
(g89
g70
NtRp2531
(dp2532
g73
(dp2533
g93
g94
ssg82
g2527
sg75
(lp2534
S'HTTP_ACCEPT_LANGUAGE'
p2535
asbag68
(g89
g70
NtRp2536
(dp2537
g73
(dp2538
g100
g101
ssg82
g2527
sg75
(lp2539
S':'
asbag68
(g89
g70
NtRp2540
(dp2541
g73
(dp2542
sg82
g2527
sg75
(lp2543
g68
(g69
g70
NtRp2544
(dp2545
g73
(dp2546
g81
I3
ssg82
g2540
sg75
(lp2547
g1083
asbasbasbag68
(g84
g70
NtRp2548
(dp2549
g73
(dp2550
sg82
g2481
sg75
(lp2551
g68
(g89
g70
NtRp2552
(dp2553
g73
(dp2554
g93
g94
ssg82
g2548
sg75
(lp2555
S'HTTP_CONNECTION'
p2556
asbag68
(g89
g70
NtRp2557
(dp2558
g73
(dp2559
g100
g101
ssg82
g2548
sg75
(lp2560
S':'
asbag68
(g89
g70
NtRp2561
(dp2562
g73
(dp2563
sg82
g2548
sg75
(lp2564
g68
(g69
g70
NtRp2565
(dp2566
g73
(dp2567
g81
I3
ssg82
g2561
sg75
(lp2568
g1105
asbasbasbag68
(g84
g70
NtRp2569
(dp2570
g73
(dp2571
sg82
g2481
sg75
(lp2572
g68
(g89
g70
NtRp2573
(dp2574
g73
(dp2575
g93
g94
ssg82
g2569
sg75
(lp2576
S'HTTP_COOKIE'
p2577
asbag68
(g89
g70
NtRp2578
(dp2579
g73
(dp2580
g100
g101
ssg82
g2569
sg75
(lp2581
S':'
asbag68
(g89
g70
NtRp2582
(dp2583
g73
(dp2584
sg82
g2569
sg75
(lp2585
g68
(g69
g70
NtRp2586
(dp2587
g73
(dp2588
g81
I3
ssg82
g2582
sg75
(lp2589
g1127
asbasbasbag68
(g84
g70
NtRp2590
(dp2591
g73
(dp2592
sg82
g2481
sg75
(lp2593
g68
(g89
g70
NtRp2594
(dp2595
g73
(dp2596
g93
g94
ssg82
g2590
sg75
(lp2597
S'HTTP_HOST'
p2598
asbag68
(g89
g70
NtRp2599
(dp2600
g73
(dp2601
g100
g101
ssg82
g2590
sg75
(lp2602
S':'
asbag68
(g89
g70
NtRp2603
(dp2604
g73
(dp2605
sg82
g2590
sg75
(lp2606
g68
(g69
g70
NtRp2607
(dp2608
g73
(dp2609
g81
I3
ssg82
g2603
sg75
(lp2610
g1149
asbasbasbag68
(g84
g70
NtRp2611
(dp2612
g73
(dp2613
sg82
g2481
sg75
(lp2614
g68
(g89
g70
NtRp2615
(dp2616
g73
(dp2617
g93
g94
ssg82
g2611
sg75
(lp2618
S'HTTP_USER_AGENT'
p2619
asbag68
(g89
g70
NtRp2620
(dp2621
g73
(dp2622
g100
g101
ssg82
g2611
sg75
(lp2623
S':'
asbag68
(g89
g70
NtRp2624
(dp2625
g73
(dp2626
sg82
g2611
sg75
(lp2627
g68
(g69
g70
NtRp2628
(dp2629
g73
(dp2630
g81
I3
ssg82
g2624
sg75
(lp2631
g1171
asbasbasbag68
(g84
g70
NtRp2632
(dp2633
g73
(dp2634
sg82
g2481
sg75
(lp2635
g68
(g89
g70
NtRp2636
(dp2637
g73
(dp2638
g93
g94
ssg82
g2632
sg75
(lp2639
S'PATH_INFO'
p2640
asbag68
(g89
g70
NtRp2641
(dp2642
g73
(dp2643
g100
g101
ssg82
g2632
sg75
(lp2644
S':'
asbag68
(g89
g70
NtRp2645
(dp2646
g73
(dp2647
sg82
g2632
sg75
(lp2648
g68
(g69
g70
NtRp2649
(dp2650
g73
(dp2651
g81
I3
ssg82
g2645
sg75
(lp2652
g1235
asbasbasbag68
(g84
g70
NtRp2653
(dp2654
g73
(dp2655
sg82
g2481
sg75
(lp2656
g68
(g89
g70
NtRp2657
(dp2658
g73
(dp2659
g93
g94
ssg82
g2653
sg75
(lp2660
S'QUERY_STRING'
p2661
asbag68
(g89
g70
NtRp2662
(dp2663
g73
(dp2664
g100
g101
ssg82
g2653
sg75
(lp2665
S':'
asbag68
(g89
g70
NtRp2666
(dp2667
g73
(dp2668
sg82
g2653
sg75
(lp2669
g68
(g69
g70
NtRp2670
(dp2671
g73
(dp2672
g81
I3
ssg82
g2666
sg75
(lp2673
S''
asbasbasbag68
(g84
g70
NtRp2674
(dp2675
g73
(dp2676
sg82
g2481
sg75
(lp2677
g68
(g89
g70
NtRp2678
(dp2679
g73
(dp2680
g93
g94
ssg82
g2674
sg75
(lp2681
S'REMOTE_ADDR'
p2682
asbag68
(g89
g70
NtRp2683
(dp2684
g73
(dp2685
g100
g101
ssg82
g2674
sg75
(lp2686
S':'
asbag68
(g89
g70
NtRp2687
(dp2688
g73
(dp2689
sg82
g2674
sg75
(lp2690
g68
(g69
g70
NtRp2691
(dp2692
g73
(dp2693
g81
I3
ssg82
g2687
sg75
(lp2694
g223
asbasbasbag68
(g84
g70
NtRp2695
(dp2696
g73
(dp2697
sg82
g2481
sg75
(lp2698
g68
(g89
g70
NtRp2699
(dp2700
g73
(dp2701
g93
g94
ssg82
g2695
sg75
(lp2702
S'REMOTE_PORT'
p2703
asbag68
(g89
g70
NtRp2704
(dp2705
g73
(dp2706
g100
g101
ssg82
g2695
sg75
(lp2707
S':'
asbag68
(g89
g70
NtRp2708
(dp2709
g73
(dp2710
sg82
g2695
sg75
(lp2711
g68
(g69
g70
NtRp2712
(dp2713
g73
(dp2714
g81
I3
ssg82
g2708
sg75
(lp2715
g1299
asbasbasbag68
(g84
g70
NtRp2716
(dp2717
g73
(dp2718
sg82
g2481
sg75
(lp2719
g68
(g89
g70
NtRp2720
(dp2721
g73
(dp2722
g93
g94
ssg82
g2716
sg75
(lp2723
S'REQUEST_METHOD'
p2724
asbag68
(g89
g70
NtRp2725
(dp2726
g73
(dp2727
g100
g101
ssg82
g2716
sg75
(lp2728
S':'
asbag68
(g89
g70
NtRp2729
(dp2730
g73
(dp2731
sg82
g2716
sg75
(lp2732
g68
(g69
g70
NtRp2733
(dp2734
g73
(dp2735
g81
I3
ssg82
g2729
sg75
(lp2736
g1321
asbasbasbag68
(g84
g70
NtRp2737
(dp2738
g73
(dp2739
sg82
g2481
sg75
(lp2740
g68
(g89
g70
NtRp2741
(dp2742
g73
(dp2743
g93
g94
ssg82
g2737
sg75
(lp2744
S'REQUEST_URI'
p2745
asbag68
(g89
g70
NtRp2746
(dp2747
g73
(dp2748
g100
g101
ssg82
g2737
sg75
(lp2749
S':'
asbag68
(g89
g70
NtRp2750
(dp2751
g73
(dp2752
sg82
g2737
sg75
(lp2753
g68
(g69
g70
NtRp2754
(dp2755
g73
(dp2756
g81
I3
ssg82
g2750
sg75
(lp2757
g1235
asbasbasbag68
(g84
g70
NtRp2758
(dp2759
g73
(dp2760
sg82
g2481
sg75
(lp2761
g68
(g89
g70
NtRp2762
(dp2763
g73
(dp2764
g93
g94
ssg82
g2758
sg75
(lp2765
S'SCRIPT_NAME'
p2766
asbag68
(g89
g70
NtRp2767
(dp2768
g73
(dp2769
g100
g101
ssg82
g2758
sg75
(lp2770
S':'
asbag68
(g89
g70
NtRp2771
(dp2772
g73
(dp2773
sg82
g2758
sg75
(lp2774
g68
(g69
g70
NtRp2775
(dp2776
g73
(dp2777
g81
I3
ssg82
g2771
sg75
(lp2778
S''
asbasbasbag68
(g84
g70
NtRp2779
(dp2780
g73
(dp2781
sg82
g2481
sg75
(lp2782
g68
(g89
g70
NtRp2783
(dp2784
g73
(dp2785
g93
g94
ssg82
g2779
sg75
(lp2786
S'SERVER_NAME'
p2787
asbag68
(g89
g70
NtRp2788
(dp2789
g73
(dp2790
g100
g101
ssg82
g2779
sg75
(lp2791
S':'
asbag68
(g89
g70
NtRp2792
(dp2793
g73
(dp2794
sg82
g2779
sg75
(lp2795
g68
(g69
g70
NtRp2796
(dp2797
g73
(dp2798
g81
I3
ssg82
g2792
sg75
(lp2799
g1385
asbasbasbag68
(g84
g70
NtRp2800
(dp2801
g73
(dp2802
sg82
g2481
sg75
(lp2803
g68
(g89
g70
NtRp2804
(dp2805
g73
(dp2806
g93
g94
ssg82
g2800
sg75
(lp2807
S'SERVER_PORT'
p2808
asbag68
(g89
g70
NtRp2809
(dp2810
g73
(dp2811
g100
g101
ssg82
g2800
sg75
(lp2812
S':'
asbag68
(g89
g70
NtRp2813
(dp2814
g73
(dp2815
sg82
g2800
sg75
(lp2816
g68
(g69
g70
NtRp2817
(dp2818
g73
(dp2819
g81
I3
ssg82
g2813
sg75
(lp2820
g1407
asbasbasbag68
(g84
g70
NtRp2821
(dp2822
g73
(dp2823
sg82
g2481
sg75
(lp2824
g68
(g89
g70
NtRp2825
(dp2826
g73
(dp2827
g93
g94
ssg82
g2821
sg75
(lp2828
S'SERVER_PROTOCOL'
p2829
asbag68
(g89
g70
NtRp2830
(dp2831
g73
(dp2832
g100
g101
ssg82
g2821
sg75
(lp2833
S':'
asbag68
(g89
g70
NtRp2834
(dp2835
g73
(dp2836
sg82
g2821
sg75
(lp2837
g68
(g69
g70
NtRp2838
(dp2839
g73
(dp2840
g81
I3
ssg82
g2834
sg75
(lp2841
g1429
asbasbasbag68
(g84
g70
NtRp2842
(dp2843
g73
(dp2844
sg82
g2481
sg75
(lp2845
g68
(g89
g70
NtRp2846
(dp2847
g73
(dp2848
g93
g94
ssg82
g2842
sg75
(lp2849
S'SERVER_SOFTWARE'
p2850
asbag68
(g89
g70
NtRp2851
(dp2852
g73
(dp2853
g100
g101
ssg82
g2842
sg75
(lp2854
S':'
asbag68
(g89
g70
NtRp2855
(dp2856
g73
(dp2857
sg82
g2842
sg75
(lp2858
g68
(g69
g70
NtRp2859
(dp2860
g73
(dp2861
g81
I3
ssg82
g2855
sg75
(lp2862
g1451
asbasbasbag68
(g84
g70
NtRp2863
(dp2864
g73
(dp2865
sg82
g2481
sg75
(lp2866
g68
(g89
g70
NtRp2867
(dp2868
g73
(dp2869
g93
g94
ssg82
g2863
sg75
(lp2870
S'wsgi.errors'
p2871
asbag68
(g89
g70
NtRp2872
(dp2873
g73
(dp2874
g100
g101
ssg82
g2863
sg75
(lp2875
S':'
asbag68
(g89
g70
NtRp2876
(dp2877
g73
(dp2878
sg82
g2863
sg75
(lp2879
g68
(g69
g70
NtRp2880
(dp2881
g73
(dp2882
g81
I3
ssg82
g2876
sg75
(lp2883
S"<open file '<stderr>', mode 'w' at 0x100284270>"
p2884
asbasbasbag68
(g84
g70
NtRp2885
(dp2886
g73
(dp2887
sg82
g2481
sg75
(lp2888
g68
(g89
g70
NtRp2889
(dp2890
g73
(dp2891
g93
g94
ssg82
g2885
sg75
(lp2892
S'wsgi.file_wrapper'
p2893
asbag68
(g89
g70
NtRp2894
(dp2895
g73
(dp2896
g100
g101
ssg82
g2885
sg75
(lp2897
S':'
asbag68
(g89
g70
NtRp2898
(dp2899
g73
(dp2900
sg82
g2885
sg75
(lp2901
g68
(g69
g70
NtRp2902
(dp2903
g73
(dp2904
g81
I3
ssg82
g2898
sg75
(lp2905
S'<class wsgiref.util.FileWrapper at 0x101c53bb0>'
p2906
asbasbasbag68
(g84
g70
NtRp2907
(dp2908
g73
(dp2909
sg82
g2481
sg75
(lp2910
g68
(g89
g70
NtRp2911
(dp2912
g73
(dp2913
g93
g94
ssg82
g2907
sg75
(lp2914
S'wsgi.input'
p2915
asbag68
(g89
g70
NtRp2916
(dp2917
g73
(dp2918
g100
g101
ssg82
g2907
sg75
(lp2919
S':'
asbag68
(g89
g70
NtRp2920
(dp2921
g73
(dp2922
sg82
g2907
sg75
(lp2923
g68
(g69
g70
NtRp2924
(dp2925
g73
(dp2926
g81
I3
ssg82
g2920
sg75
(lp2927
S'<cStringIO.StringO object at 0x109caf378>'
p2928
asbasbasbag68
(g84
g70
NtRp2929
(dp2930
g73
(dp2931
sg82
g2481
sg75
(lp2932
g68
(g89
g70
NtRp2933
(dp2934
g73
(dp2935
g93
g94
ssg82
g2929
sg75
(lp2936
S'wsgi.multiprocess'
p2937
asbag68
(g89
g70
NtRp2938
(dp2939
g73
(dp2940
g100
g101
ssg82
g2929
sg75
(lp2941
S':'
asbag68
(g89
g70
NtRp2942
(dp2943
g73
(dp2944
sg82
g2929
sg75
(lp2945
g68
(g69
g70
NtRp2946
(dp2947
g73
(dp2948
g81
I3
ssg82
g2942
sg75
(lp2949
g111
asbasbasbag68
(g84
g70
NtRp2950
(dp2951
g73
(dp2952
sg82
g2481
sg75
(lp2953
g68
(g89
g70
NtRp2954
(dp2955
g73
(dp2956
g93
g94
ssg82
g2950
sg75
(lp2957
S'wsgi.multithread'
p2958
asbag68
(g89
g70
NtRp2959
(dp2960
g73
(dp2961
g100
g101
ssg82
g2950
sg75
(lp2962
S':'
asbag68
(g89
g70
NtRp2963
(dp2964
g73
(dp2965
sg82
g2950
sg75
(lp2966
g68
(g69
g70
NtRp2967
(dp2968
g73
(dp2969
g81
I3
ssg82
g2963
sg75
(lp2970
g1690
asbasbasbag68
(g84
g70
NtRp2971
(dp2972
g73
(dp2973
sg82
g2481
sg75
(lp2974
g68
(g89
g70
NtRp2975
(dp2976
g73
(dp2977
g93
g94
ssg82
g2971
sg75
(lp2978
S'wsgi.run_once'
p2979
asbag68
(g89
g70
NtRp2980
(dp2981
g73
(dp2982
g100
g101
ssg82
g2971
sg75
(lp2983
S':'
asbag68
(g89
g70
NtRp2984
(dp2985
g73
(dp2986
sg82
g2971
sg75
(lp2987
g68
(g69
g70
NtRp2988
(dp2989
g73
(dp2990
g81
I3
ssg82
g2984
sg75
(lp2991
g111
asbasbasbag68
(g84
g70
NtRp2992
(dp2993
g73
(dp2994
sg82
g2481
sg75
(lp2995
g68
(g89
g70
NtRp2996
(dp2997
g73
(dp2998
g93
g94
ssg82
g2992
sg75
(lp2999
S'wsgi.url_scheme'
p3000
asbag68
(g89
g70
NtRp3001
(dp3002
g73
(dp3003
g100
g101
ssg82
g2992
sg75
(lp3004
S':'
asbag68
(g89
g70
NtRp3005
(dp3006
g73
(dp3007
sg82
g2992
sg75
(lp3008
g68
(g69
g70
NtRp3009
(dp3010
g73
(dp3011
g81
I3
ssg82
g3005
sg75
(lp3012
g1733
asbasbasbag68
(g84
g70
NtRp3013
(dp3014
g73
(dp3015
sg82
g2481
sg75
(lp3016
g68
(g89
g70
NtRp3017
(dp3018
g73
(dp3019
g93
g94
ssg82
g3013
sg75
(lp3020
S'wsgi.version'
p3021
asbag68
(g89
g70
NtRp3022
(dp3023
g73
(dp3024
g100
g101
ssg82
g3013
sg75
(lp3025
S':'
asbag68
(g89
g70
NtRp3026
(dp3027
g73
(dp3028
sg82
g3013
sg75
(lp3029
g68
(g69
g70
NtRp3030
(dp3031
g73
(dp3032
g81
I3
ssg82
g3026
sg75
(lp3033
S'1'
asbasbasbasbasbasbasbasbasbasbasbasbasbsS'frames'
p3034
(lp3035
(dp3036
S'file'
p3037
S'/Users/Karl/code/web2py/gluon/restricted.py'
p3038
sS'dump'
p3039
(dp3040
S'code'
p3041
S"'def index():\\n    images = db().select(db.image.A...uest, db)\\nresponse._vars=response._caller(index)\\n'"
p3042
sS'layer'
p3043
S"'/Users/Karl/code/web2py/applications/newsFeed/controllers/default.py'"
p3044
sS'global compile2'
p3045
S'<function compile2>'
p3046
sS'ccode'
p3047
S'undefined'
p3048
ssS'lnum'
p3049
I208
sS'lines'
p3050
(dp3051
I203
S"    environment['__name__'] = '__restricted__'"
p3052
sI204
S'    try:'
p3053
sI205
S'        if type(code) == types.CodeType:'
p3054
sI206
S'            ccode = code'
p3055
sI207
S'        else:'
p3056
sI208
S'            ccode = compile2(code,layer)'
p3057
sI209
S'        exec ccode in environment'
p3058
sI210
S'    except HTTP:'
p3059
sI211
S'        raise'
p3060
sI212
S'    except RestrictedError:'
p3061
ssS'call'
p3062
S"(code='def index():\\n    images = db().select(db.image.A...uest, db)\\nresponse._vars=response._caller(index)\\n', environment={'A': <class 'gluon.html.A'>, 'B': <class 'gluon.html.B'>, 'BEAUTIFY': <class 'gluon.html.BEAUTIFY'>, 'BODY': <class 'gluon.html.BODY'>, 'BR': <class 'gluon.html.BR'>, 'BUTTON': <class 'gluon.html.BUTTON'>, 'CAT': <class 'gluon.html.CAT'>, 'CENTER': <class 'gluon.html.CENTER'>, 'CLEANUP': <class 'gluon.validators.CLEANUP'>, 'CODE': <class 'gluon.html.CODE'>, ...}, layer='/Users/Karl/code/web2py/applications/newsFeed/controllers/default.py')"
p3063
sS'func'
p3064
S'restricted'
p3065
sa(dp3066
g3037
S'/Users/Karl/code/web2py/gluon/restricted.py'
p3067
sg3039
(dp3068
S'builtincompile'
p3069
S'<built-in function compile>'
p3070
sS'code'
p3071
S"'def index():\\n    images = db().select(db.image.A...uest, db)\\nresponse._vars=response._caller(index)\\n'"
p3072
sS'code.rstrip'
p3073
S'<built-in method rstrip of str object>'
p3074
sS').replace'
p3075
g3048
sS'layer'
p3076
S"'/Users/Karl/code/web2py/applications/newsFeed/controllers/default.py'"
p3077
ssg3049
I193
sg3050
(dp3078
I192
S'    """'
p3079
sI193
S"    return compile(code.rstrip().replace('\\r\\n','\\n')+'\\n', layer, 'exec')"
p3080
sI194
S''
sI195
S"def restricted(code, environment=None, layer='Unknown'):"
p3081
sI196
S'    """'
p3082
sI197
S'    runs code in environment and returns the output. if an exception occurs'
p3083
sI188
S''
sI189
S'def compile2(code,layer):'
p3084
sI190
S'    """'
p3085
sI191
S"    The +'\\n' is necessary else compile fails when code ends in a comment."
p3086
ssg3062
S"(code='def index():\\n    images = db().select(db.image.A...uest, db)\\nresponse._vars=response._caller(index)\\n', layer='/Users/Karl/code/web2py/applications/newsFeed/controllers/default.py')"
p3087
sg3064
S'compile2'
p3088
sasS'pyver'
p3089
S'Python 2.7.3: /Library/Frameworks/Python.framework/Versions/2.7/Resources/Python.app/Contents/MacOS/Python'
p3090
sS'session'
p3091
g68
(g69
g70
NtRp3092
(dp3093
g73
(dp3094
sg75
(lp3095
g68
(g77
g70
NtRp3096
(dp3097
g73
(dp3098
g81
I5
ssg82
Nsg75
(lp3099
sbasbsS'etype'
p3100
S"<type 'exceptions.SyntaxError'>"
p3101
sS'date'
p3102
S'Tue Oct 30 15:20:07 2012'
p3103
sS'response'
p3104
g68
(g69
g70
NtRp3105
(dp3106
g73
(dp3107
sg75
(lp3108
g68
(g77
g70
NtRp3109
(dp3110
g73
(dp3111
g81
I5
ssg82
Nsg75
(lp3112
g68
(g84
g70
NtRp3113
(dp3114
g73
(dp3115
sg82
g3109
sg75
(lp3116
g68
(g89
g70
NtRp3117
(dp3118
g73
(dp3119
g93
g94
ssg82
g3113
sg75
(lp3120
g166
asbag68
(g89
g70
NtRp3121
(dp3122
g73
(dp3123
g100
g101
ssg82
g3113
sg75
(lp3124
S':'
asbag68
(g89
g70
NtRp3125
(dp3126
g73
(dp3127
sg82
g3113
sg75
(lp3128
g68
(g69
g70
NtRp3129
(dp3130
g73
(dp3131
g81
I5
ssg82
g3125
sg75
(lp3132
S'<cStringIO.StringO object at 0x1027aaa40>'
p3133
asbasbasbag68
(g84
g70
NtRp3134
(dp3135
g73
(dp3136
sg82
g3109
sg75
(lp3137
g68
(g89
g70
NtRp3138
(dp3139
g73
(dp3140
g93
g94
ssg82
g3134
sg75
(lp3141
g254
asbag68
(g89
g70
NtRp3142
(dp3143
g73
(dp3144
g100
g101
ssg82
g3134
sg75
(lp3145
S':'
asbag68
(g89
g70
NtRp3146
(dp3147
g73
(dp3148
sg82
g3134
sg75
(lp3149
g68
(g69
g70
NtRp3150
(dp3151
g73
(dp3152
g81
I5
ssg82
g3146
sg75
(lp3153
g68
(g77
g70
NtRp3154
(dp3155
g73
(dp3156
g81
I4
ssg82
Nsg75
(lp3157
g68
(g84
g70
NtRp3158
(dp3159
g73
(dp3160
sg82
g3154
sg75
(lp3161
g68
(g89
g70
NtRp3162
(dp3163
g73
(dp3164
g93
g94
ssg82
g3158
sg75
(lp3165
S'session_id_newsfeed'
p3166
asbag68
(g89
g70
NtRp3167
(dp3168
g73
(dp3169
g100
g101
ssg82
g3158
sg75
(lp3170
S':'
asbag68
(g89
g70
NtRp3171
(dp3172
g73
(dp3173
sg82
g3158
sg75
(lp3174
g68
(g69
g70
NtRp3175
(dp3176
g73
(dp3177
g81
I4
ssg82
g3171
sg75
(lp3178
S'127.0.0.1-6b30d50f-fe62-465b-914e-54e27b8fb1fa'
p3179
ag68
(g77
g70
NtRp3180
(dp3181
g73
(dp3182
g81
I3
ssg82
Nsg75
(lp3183
g68
(g84
g70
NtRp3184
(dp3185
g73
(dp3186
sg82
g3180
sg75
(lp3187
g68
(g89
g70
NtRp3188
(dp3189
g73
(dp3190
g93
g94
ssg82
g3184
sg75
(lp3191
g305
asbag68
(g89
g70
NtRp3192
(dp3193
g73
(dp3194
g100
g101
ssg82
g3184
sg75
(lp3195
S':'
asbag68
(g89
g70
NtRp3196
(dp3197
g73
(dp3198
sg82
g3184
sg75
(lp3199
g68
(g69
g70
NtRp3200
(dp3201
g73
(dp3202
g81
I3
ssg82
g3196
sg75
(lp3203
S''
asbasbasbag68
(g84
g70
NtRp3204
(dp3205
g73
(dp3206
sg82
g3180
sg75
(lp3207
g68
(g89
g70
NtRp3208
(dp3209
g73
(dp3210
g93
g94
ssg82
g3204
sg75
(lp3211
g326
asbag68
(g89
g70
NtRp3212
(dp3213
g73
(dp3214
g100
g101
ssg82
g3204
sg75
(lp3215
S':'
asbag68
(g89
g70
NtRp3216
(dp3217
g73
(dp3218
sg82
g3204
sg75
(lp3219
g68
(g69
g70
NtRp3220
(dp3221
g73
(dp3222
g81
I3
ssg82
g3216
sg75
(lp3223
S''
asbasbasbag68
(g84
g70
NtRp3224
(dp3225
g73
(dp3226
sg82
g3180
sg75
(lp3227
g68
(g89
g70
NtRp3228
(dp3229
g73
(dp3230
g93
g94
ssg82
g3224
sg75
(lp3231
g347
asbag68
(g89
g70
NtRp3232
(dp3233
g73
(dp3234
g100
g101
ssg82
g3224
sg75
(lp3235
S':'
asbag68
(g89
g70
NtRp3236
(dp3237
g73
(dp3238
sg82
g3224
sg75
(lp3239
g68
(g69
g70
NtRp3240
(dp3241
g73
(dp3242
g81
I3
ssg82
g3236
sg75
(lp3243
S''
asbasbasbag68
(g84
g70
NtRp3244
(dp3245
g73
(dp3246
sg82
g3180
sg75
(lp3247
g68
(g89
g70
NtRp3248
(dp3249
g73
(dp3250
g93
g94
ssg82
g3244
sg75
(lp3251
g368
asbag68
(g89
g70
NtRp3252
(dp3253
g73
(dp3254
g100
g101
ssg82
g3244
sg75
(lp3255
S':'
asbag68
(g89
g70
NtRp3256
(dp3257
g73
(dp3258
sg82
g3244
sg75
(lp3259
g68
(g69
g70
NtRp3260
(dp3261
g73
(dp3262
g81
I3
ssg82
g3256
sg75
(lp3263
S''
asbasbasbag68
(g84
g70
NtRp3264
(dp3265
g73
(dp3266
sg82
g3180
sg75
(lp3267
g68
(g89
g70
NtRp3268
(dp3269
g73
(dp3270
g93
g94
ssg82
g3264
sg75
(lp3271
g389
asbag68
(g89
g70
NtRp3272
(dp3273
g73
(dp3274
g100
g101
ssg82
g3264
sg75
(lp3275
S':'
asbag68
(g89
g70
NtRp3276
(dp3277
g73
(dp3278
sg82
g3264
sg75
(lp3279
g68
(g69
g70
NtRp3280
(dp3281
g73
(dp3282
g81
I3
ssg82
g3276
sg75
(lp3283
S''
asbasbasbag68
(g84
g70
NtRp3284
(dp3285
g73
(dp3286
sg82
g3180
sg75
(lp3287
g68
(g89
g70
NtRp3288
(dp3289
g73
(dp3290
g93
g94
ssg82
g3284
sg75
(lp3291
g410
asbag68
(g89
g70
NtRp3292
(dp3293
g73
(dp3294
g100
g101
ssg82
g3284
sg75
(lp3295
S':'
asbag68
(g89
g70
NtRp3296
(dp3297
g73
(dp3298
sg82
g3284
sg75
(lp3299
g68
(g69
g70
NtRp3300
(dp3301
g73
(dp3302
g81
I3
ssg82
g3296
sg75
(lp3303
S'/'
asbasbasbag68
(g84
g70
NtRp3304
(dp3305
g73
(dp3306
sg82
g3180
sg75
(lp3307
g68
(g89
g70
NtRp3308
(dp3309
g73
(dp3310
g93
g94
ssg82
g3304
sg75
(lp3311
g431
asbag68
(g89
g70
NtRp3312
(dp3313
g73
(dp3314
g100
g101
ssg82
g3304
sg75
(lp3315
S':'
asbag68
(g89
g70
NtRp3316
(dp3317
g73
(dp3318
sg82
g3304
sg75
(lp3319
g68
(g69
g70
NtRp3320
(dp3321
g73
(dp3322
g81
I3
ssg82
g3316
sg75
(lp3323
S''
asbasbasbag68
(g84
g70
NtRp3324
(dp3325
g73
(dp3326
sg82
g3180
sg75
(lp3327
g68
(g89
g70
NtRp3328
(dp3329
g73
(dp3330
g93
g94
ssg82
g3324
sg75
(lp3331
g452
asbag68
(g89
g70
NtRp3332
(dp3333
g73
(dp3334
g100
g101
ssg82
g3324
sg75
(lp3335
S':'
asbag68
(g89
g70
NtRp3336
(dp3337
g73
(dp3338
sg82
g3324
sg75
(lp3339
g68
(g69
g70
NtRp3340
(dp3341
g73
(dp3342
g81
I3
ssg82
g3336
sg75
(lp3343
S''
asbasbasbasbasbasbasbasbasbasbasbag68
(g84
g70
NtRp3344
(dp3345
g73
(dp3346
sg82
g3109
sg75
(lp3347
g68
(g89
g70
NtRp3348
(dp3349
g73
(dp3350
g93
g94
ssg82
g3344
sg75
(lp3351
S'delimiters'
p3352
asbag68
(g89
g70
NtRp3353
(dp3354
g73
(dp3355
g100
g101
ssg82
g3344
sg75
(lp3356
S':'
asbag68
(g89
g70
NtRp3357
(dp3358
g73
(dp3359
sg82
g3344
sg75
(lp3360
g68
(g69
g70
NtRp3361
(dp3362
g73
(dp3363
g81
I5
ssg82
g3357
sg75
(lp3364
g68
(g77
g70
NtRp3365
(dp3366
g73
(dp3367
g81
I4
ssg82
Nsg75
(lp3368
g68
(g84
g70
NtRp3369
(dp3370
g73
(dp3371
sg82
g3365
sg75
(lp3372
g68
(g89
g70
NtRp3373
(dp3374
g73
(dp3375
sg82
g3369
sg75
(lp3376
g68
(g69
g70
NtRp3377
(dp3378
g73
(dp3379
g81
I4
ssg82
g3373
sg75
(lp3380
S'{{'
p3381
asbasbasbag68
(g84
g70
NtRp3382
(dp3383
g73
(dp3384
sg82
g3365
sg75
(lp3385
g68
(g89
g70
NtRp3386
(dp3387
g73
(dp3388
sg82
g3382
sg75
(lp3389
g68
(g69
g70
NtRp3390
(dp3391
g73
(dp3392
g81
I4
ssg82
g3386
sg75
(lp3393
S'}}'
p3394
asbasbasbasbasbasbasbag68
(g84
g70
NtRp3395
(dp3396
g73
(dp3397
sg82
g3109
sg75
(lp3398
g68
(g89
g70
NtRp3399
(dp3400
g73
(dp3401
g93
g94
ssg82
g3395
sg75
(lp3402
S'files'
p3403
asbag68
(g89
g70
NtRp3404
(dp3405
g73
(dp3406
g100
g101
ssg82
g3395
sg75
(lp3407
S':'
asbag68
(g89
g70
NtRp3408
(dp3409
g73
(dp3410
sg82
g3395
sg75
(lp3411
g68
(g69
g70
NtRp3412
(dp3413
g73
(dp3414
g81
I5
ssg82
g3408
sg75
(lp3415
g68
(g77
g70
NtRp3416
(dp3417
g73
(dp3418
g81
I4
ssg82
Nsg75
(lp3419
sbasbasbasbag68
(g84
g70
NtRp3420
(dp3421
g73
(dp3422
sg82
g3109
sg75
(lp3423
g68
(g89
g70
NtRp3424
(dp3425
g73
(dp3426
g93
g94
ssg82
g3420
sg75
(lp3427
S'flash'
p3428
asbag68
(g89
g70
NtRp3429
(dp3430
g73
(dp3431
g100
g101
ssg82
g3420
sg75
(lp3432
S':'
asbag68
(g89
g70
NtRp3433
(dp3434
g73
(dp3435
sg82
g3420
sg75
(lp3436
g68
(g69
g70
NtRp3437
(dp3438
g73
(dp3439
g81
I5
ssg82
g3433
sg75
(lp3440
S''
asbasbasbag68
(g84
g70
NtRp3441
(dp3442
g73
(dp3443
sg82
g3109
sg75
(lp3444
g68
(g89
g70
NtRp3445
(dp3446
g73
(dp3447
g93
g94
ssg82
g3441
sg75
(lp3448
S'generic_patterns'
p3449
asbag68
(g89
g70
NtRp3450
(dp3451
g73
(dp3452
g100
g101
ssg82
g3441
sg75
(lp3453
S':'
asbag68
(g89
g70
NtRp3454
(dp3455
g73
(dp3456
sg82
g3441
sg75
(lp3457
g68
(g69
g70
NtRp3458
(dp3459
g73
(dp3460
g81
I5
ssg82
g3454
sg75
(lp3461
g68
(g77
g70
NtRp3462
(dp3463
g73
(dp3464
g81
I4
ssg82
Nsg75
(lp3465
sbasbasbasbag68
(g84
g70
NtRp3466
(dp3467
g73
(dp3468
sg82
g3109
sg75
(lp3469
g68
(g89
g70
NtRp3470
(dp3471
g73
(dp3472
g93
g94
ssg82
g3466
sg75
(lp3473
S'google_analytics_id'
p3474
asbag68
(g89
g70
NtRp3475
(dp3476
g73
(dp3477
g100
g101
ssg82
g3466
sg75
(lp3478
S':'
asbag68
(g89
g70
NtRp3479
(dp3480
g73
(dp3481
sg82
g3466
sg75
(lp3482
g68
(g69
g70
NtRp3483
(dp3484
g73
(dp3485
g81
I5
ssg82
g3479
sg75
(lp3486
S'None'
p3487
asbasbasbag68
(g84
g70
NtRp3488
(dp3489
g73
(dp3490
sg82
g3109
sg75
(lp3491
g68
(g89
g70
NtRp3492
(dp3493
g73
(dp3494
g93
g94
ssg82
g3488
sg75
(lp3495
S'headers'
p3496
asbag68
(g89
g70
NtRp3497
(dp3498
g73
(dp3499
g100
g101
ssg82
g3488
sg75
(lp3500
S':'
asbag68
(g89
g70
NtRp3501
(dp3502
g73
(dp3503
sg82
g3488
sg75
(lp3504
g68
(g69
g70
NtRp3505
(dp3506
g73
(dp3507
g81
I5
ssg82
g3501
sg75
(lp3508
g68
(g77
g70
NtRp3509
(dp3510
g73
(dp3511
g81
I4
ssg82
Nsg75
(lp3512
g68
(g84
g70
NtRp3513
(dp3514
g73
(dp3515
sg82
g3509
sg75
(lp3516
g68
(g89
g70
NtRp3517
(dp3518
g73
(dp3519
g93
g94
ssg82
g3513
sg75
(lp3520
S'X-Powered-By'
p3521
asbag68
(g89
g70
NtRp3522
(dp3523
g73
(dp3524
g100
g101
ssg82
g3513
sg75
(lp3525
S':'
asbag68
(g89
g70
NtRp3526
(dp3527
g73
(dp3528
sg82
g3513
sg75
(lp3529
g68
(g69
g70
NtRp3530
(dp3531
g73
(dp3532
g81
I4
ssg82
g3526
sg75
(lp3533
S'web2py'
p3534
asbasbasbasbasbasbasbag68
(g84
g70
NtRp3535
(dp3536
g73
(dp3537
sg82
g3109
sg75
(lp3538
g68
(g89
g70
NtRp3539
(dp3540
g73
(dp3541
g93
g94
ssg82
g3535
sg75
(lp3542
S'menu'
p3543
asbag68
(g89
g70
NtRp3544
(dp3545
g73
(dp3546
g100
g101
ssg82
g3535
sg75
(lp3547
S':'
asbag68
(g89
g70
NtRp3548
(dp3549
g73
(dp3550
sg82
g3535
sg75
(lp3551
g68
(g69
g70
NtRp3552
(dp3553
g73
(dp3554
g81
I5
ssg82
g3548
sg75
(lp3555
g68
(g77
g70
NtRp3556
(dp3557
g73
(dp3558
g81
I4
ssg82
Nsg75
(lp3559
g68
(g84
g70
NtRp3560
(dp3561
g73
(dp3562
sg82
g3556
sg75
(lp3563
g68
(g89
g70
NtRp3564
(dp3565
g73
(dp3566
sg82
g3560
sg75
(lp3567
g68
(g69
g70
NtRp3568
(dp3569
g73
(dp3570
g81
I4
ssg82
g3564
sg75
(lp3571
g68
(g77
g70
NtRp3572
(dp3573
g73
(dp3574
g81
I3
ssg82
Nsg75
(lp3575
g68
(g84
g70
NtRp3576
(dp3577
g73
(dp3578
sg82
g3572
sg75
(lp3579
g68
(g89
g70
NtRp3580
(dp3581
g73
(dp3582
sg82
g3576
sg75
(lp3583
g68
(g69
g70
NtRp3584
(dp3585
g73
(dp3586
g81
I3
ssg82
g3580
sg75
(lp3587
cgluon.languages
lazyT_unpickle
p3588
(S's\x04\x00\x00\x00Home'
tRp3589
asbasbasbag68
(g84
g70
NtRp3590
(dp3591
g73
(dp3592
sg82
g3572
sg75
(lp3593
g68
(g89
g70
NtRp3594
(dp3595
g73
(dp3596
sg82
g3590
sg75
(lp3597
g68
(g69
g70
NtRp3598
(dp3599
g73
(dp3600
g81
I3
ssg82
g3594
sg75
(lp3601
g111
asbasbasbag68
(g84
g70
NtRp3602
(dp3603
g73
(dp3604
sg82
g3572
sg75
(lp3605
g68
(g89
g70
NtRp3606
(dp3607
g73
(dp3608
sg82
g3602
sg75
(lp3609
g68
(g69
g70
NtRp3610
(dp3611
g73
(dp3612
g81
I3
ssg82
g3606
sg75
(lp3613
S'/newsFeed/default/index'
p3614
asbasbasbag68
(g84
g70
NtRp3615
(dp3616
g73
(dp3617
sg82
g3572
sg75
(lp3618
g68
(g89
g70
NtRp3619
(dp3620
g73
(dp3621
sg82
g3615
sg75
(lp3622
g68
(g69
g70
NtRp3623
(dp3624
g73
(dp3625
g81
I3
ssg82
g3619
sg75
(lp3626
g68
(g77
g70
NtRp3627
(dp3628
g73
(dp3629
g81
I2
ssg82
Nsg75
(lp3630
sbasbasbasbasbasbasbasbag68
(g84
g70
NtRp3631
(dp3632
g73
(dp3633
sg82
g3556
sg75
(lp3634
g68
(g89
g70
NtRp3635
(dp3636
g73
(dp3637
sg82
g3631
sg75
(lp3638
g68
(g69
g70
NtRp3639
(dp3640
g73
(dp3641
g81
I4
ssg82
g3635
sg75
(lp3642
g68
(g77
g70
NtRp3643
(dp3644
g73
(dp3645
g81
I3
ssg82
Nsg75
(lp3646
g68
(g84
g70
NtRp3647
(dp3648
g73
(dp3649
sg82
g3643
sg75
(lp3650
g68
(g89
g70
NtRp3651
(dp3652
g73
(dp3653
sg82
g3647
sg75
(lp3654
g68
(g69
g70
NtRp3655
(dp3656
g73
(dp3657
g81
I3
ssg82
g3651
sg75
(lp3658
g68
(cgluon.html
SPAN
p3659
g70
NtRp3660
(dp3661
g73
(dp3662
g93
S'color:yellow'
p3663
ssg82
Nsg75
(lp3664
g3534
asbasbasbasbag68
(g84
g70
NtRp3665
(dp3666
g73
(dp3667
sg82
g3643
sg75
(lp3668
g68
(g89
g70
NtRp3669
(dp3670
g73
(dp3671
sg82
g3665
sg75
(lp3672
g68
(g69
g70
NtRp3673
(dp3674
g73
(dp3675
g81
I3
ssg82
g3669
sg75
(lp3676
g111
asbasbasbag68
(g84
g70
NtRp3677
(dp3678
g73
(dp3679
sg82
g3643
sg75
(lp3680
g68
(g89
g70
NtRp3681
(dp3682
g73
(dp3683
sg82
g3677
sg75
(lp3684
g68
(g69
g70
NtRp3685
(dp3686
g73
(dp3687
g81
I3
ssg82
g3681
sg75
(lp3688
S'http://web2py.com'
p3689
asbasbasbag68
(g84
g70
NtRp3690
(dp3691
g73
(dp3692
sg82
g3643
sg75
(lp3693
g68
(g89
g70
NtRp3694
(dp3695
g73
(dp3696
sg82
g3690
sg75
(lp3697
g68
(g69
g70
NtRp3698
(dp3699
g73
(dp3700
g81
I3
ssg82
g3694
sg75
(lp3701
g68
(g77
g70
NtRp3702
(dp3703
g73
(dp3704
g81
I2
ssg82
Nsg75
(lp3705
g68
(g84
g70
NtRp3706
(dp3707
g73
(dp3708
sg82
g3702
sg75
(lp3709
g68
(g89
g70
NtRp3710
(dp3711
g73
(dp3712
sg82
g3706
sg75
(lp3713
g68
(g69
g70
NtRp3714
(dp3715
g73
(dp3716
g81
I2
ssg82
g3710
sg75
(lp3717
g68
(g77
g70
NtRp3718
(dp3719
g73
(dp3720
g81
I1
ssg82
Nsg75
(lp3721
g68
(g84
g70
NtRp3722
(dp3723
g73
(dp3724
sg82
g3718
sg75
(lp3725
g68
(g89
g70
NtRp3726
(dp3727
g73
(dp3728
sg82
g3722
sg75
(lp3729
g68
(g69
g70
NtRp3730
(dp3731
g73
(dp3732
g81
I1
ssg82
g3726
sg75
(lp3733
g3588
(S's\x08\x00\x00\x00My Sites'
tRp3734
asbasbasbag68
(g84
g70
NtRp3735
(dp3736
g73
(dp3737
sg82
g3718
sg75
(lp3738
g68
(g89
g70
NtRp3739
(dp3740
g73
(dp3741
sg82
g3735
sg75
(lp3742
g68
(g69
g70
NtRp3743
(dp3744
g73
(dp3745
g81
I1
ssg82
g3739
sg75
(lp3746
I00
asbasbasbag68
(g84
g70
NtRp3747
(dp3748
g73
(dp3749
sg82
g3718
sg75
(lp3750
g68
(g89
g70
NtRp3751
(dp3752
g73
(dp3753
sg82
g3747
sg75
(lp3754
g68
(g69
g70
NtRp3755
(dp3756
g73
(dp3757
g81
I1
ssg82
g3751
sg75
(lp3758
S'/admin/default/site'
p3759
asbasbasbasbasbasbasbag68
(g84
g70
NtRp3760
(dp3761
g73
(dp3762
sg82
g3702
sg75
(lp3763
g68
(g89
g70
NtRp3764
(dp3765
g73
(dp3766
sg82
g3760
sg75
(lp3767
g68
(g69
g70
NtRp3768
(dp3769
g73
(dp3770
g81
I2
ssg82
g3764
sg75
(lp3771
g68
(g77
g70
NtRp3772
(dp3773
g73
(dp3774
g81
I1
ssg82
Nsg75
(lp3775
g68
(g84
g70
NtRp3776
(dp3777
g73
(dp3778
sg82
g3772
sg75
(lp3779
g68
(g89
g70
NtRp3780
(dp3781
g73
(dp3782
sg82
g3776
sg75
(lp3783
g68
(g69
g70
NtRp3784
(dp3785
g73
(dp3786
g81
I1
ssg82
g3780
sg75
(lp3787
g3588
(S's\x08\x00\x00\x00This App'
tRp3788
asbasbasbag68
(g84
g70
NtRp3789
(dp3790
g73
(dp3791
sg82
g3772
sg75
(lp3792
g68
(g89
g70
NtRp3793
(dp3794
g73
(dp3795
sg82
g3789
sg75
(lp3796
g68
(g69
g70
NtRp3797
(dp3798
g73
(dp3799
g81
I1
ssg82
g3793
sg75
(lp3800
I00
asbasbasbag68
(g84
g70
NtRp3801
(dp3802
g73
(dp3803
sg82
g3772
sg75
(lp3804
g68
(g89
g70
NtRp3805
(dp3806
g73
(dp3807
sg82
g3801
sg75
(lp3808
g68
(g69
g70
NtRp3809
(dp3810
g73
(dp3811
g81
I1
ssg82
g3805
sg75
(lp3812
S'/admin/default/design/newsFeed'
p3813
asbasbasbag68
(g84
g70
NtRp3814
(dp3815
g73
(dp3816
sg82
g3772
sg75
(lp3817
g68
(g89
g70
NtRp3818
(dp3819
g73
(dp3820
sg82
g3814
sg75
(lp3821
g68
(g69
g70
NtRp3822
(dp3823
g73
(dp3824
g81
I1
ssg82
g3818
sg75
(lp3825
(lp3826
(g3588
(S's\n\x00\x00\x00Controller'
tRp3827
I00
S'/admin/default/edit/newsFeed/controllers/default.py'
tp3828
a(g3588
(S's\x04\x00\x00\x00View'
tRp3829
I00
S'/admin/default/edit/newsFeed/views/default/index.html'
tp3830
a(g3588
(S's\x06\x00\x00\x00Layout'
tRp3831
I00
S'/admin/default/edit/newsFeed/views/layout.html'
tp3832
a(g3588
(S's\n\x00\x00\x00Stylesheet'
tRp3833
I00
S'/admin/default/edit/newsFeed/static/css/web2py.css'
tp3834
a(g3588
(S's\x08\x00\x00\x00DB Model'
tRp3835
I00
S'/admin/default/edit/newsFeed/models/db.py'
tp3836
a(g3588
(S's\n\x00\x00\x00Menu Model'
tRp3837
I00
S'/admin/default/edit/newsFeed/models/menu.py'
tp3838
a(g3588
(S's\x08\x00\x00\x00Database'
tRp3839
I00
S'/newsFeed/appadmin/index'
tp3840
a(g3588
(S's\x06\x00\x00\x00Errors'
tRp3841
I00
S'/admin/default/errors/newsFeed'
tp3842
a(g3588
(S's\x05\x00\x00\x00About'
tRp3843
I00
S'/admin/default/about/newsFeed'
tp3844
aasbasbasbasbasbasbasbag68
(g84
g70
NtRp3845
(dp3846
g73
(dp3847
sg82
g3702
sg75
(lp3848
g68
(g89
g70
NtRp3849
(dp3850
g73
(dp3851
sg82
g3845
sg75
(lp3852
g68
(g69
g70
NtRp3853
(dp3854
g73
(dp3855
g81
I2
ssg82
g3849
sg75
(lp3856
g68
(g77
g70
NtRp3857
(dp3858
g73
(dp3859
g81
I1
ssg82
Nsg75
(lp3860
g68
(g84
g70
NtRp3861
(dp3862
g73
(dp3863
sg82
g3857
sg75
(lp3864
g68
(g89
g70
NtRp3865
(dp3866
g73
(dp3867
sg82
g3861
sg75
(lp3868
g68
(g69
g70
NtRp3869
(dp3870
g73
(dp3871
g81
I1
ssg82
g3865
sg75
(lp3872
S'web2py.com'
p3873
asbasbasbag68
(g84
g70
NtRp3874
(dp3875
g73
(dp3876
sg82
g3857
sg75
(lp3877
g68
(g89
g70
NtRp3878
(dp3879
g73
(dp3880
sg82
g3874
sg75
(lp3881
g68
(g69
g70
NtRp3882
(dp3883
g73
(dp3884
g81
I1
ssg82
g3878
sg75
(lp3885
I00
asbasbasbag68
(g84
g70
NtRp3886
(dp3887
g73
(dp3888
sg82
g3857
sg75
(lp3889
g68
(g89
g70
NtRp3890
(dp3891
g73
(dp3892
sg82
g3886
sg75
(lp3893
g68
(g69
g70
NtRp3894
(dp3895
g73
(dp3896
g81
I1
ssg82
g3890
sg75
(lp3897
S'http://www.web2py.com'
p3898
asbasbasbag68
(g84
g70
NtRp3899
(dp3900
g73
(dp3901
sg82
g3857
sg75
(lp3902
g68
(g89
g70
NtRp3903
(dp3904
g73
(dp3905
sg82
g3899
sg75
(lp3906
g68
(g69
g70
NtRp3907
(dp3908
g73
(dp3909
g81
I1
ssg82
g3903
sg75
(lp3910
(lp3911
(g3588
(S's\x08\x00\x00\x00Download'
tRp3912
I00
S'http://www.web2py.com/examples/default/download'
p3913
tp3914
a(g3588
(S's\x07\x00\x00\x00Support'
tRp3915
I00
S'http://www.web2py.com/examples/default/support'
p3916
tp3917
a(g3588
(S's\x04\x00\x00\x00Demo'
tRp3918
I00
S'http://web2py.com/demo_admin'
p3919
tp3920
a(g3588
(S's\x0e\x00\x00\x00Quick Examples'
tRp3921
I00
S'http://web2py.com/examples/default/examples'
p3922
tp3923
a(g3588
(S's\x03\x00\x00\x00FAQ'
tRp3924
I00
S'http://web2py.com/AlterEgo'
p3925
tp3926
a(g3588
(S's\x06\x00\x00\x00Videos'
tRp3927
I00
S'http://www.web2py.com/examples/default/videos/'
p3928
tp3929
a(g3588
(S's\x11\x00\x00\x00Free Applications'
tRp3930
I00
S'http://web2py.com/appliances'
p3931
tp3932
a(g3588
(S's\x07\x00\x00\x00Plugins'
tRp3933
I00
S'http://web2py.com/plugins'
p3934
tp3935
a(g3588
(S's\x07\x00\x00\x00Layouts'
tRp3936
I00
S'http://web2py.com/layouts'
p3937
tp3938
a(g3588
(S's\x07\x00\x00\x00Recipes'
tRp3939
I00
S'http://web2pyslices.com/'
p3940
tp3941
a(g3588
(S's\x08\x00\x00\x00Semantic'
tRp3942
I00
S'http://web2py.com/semantic'
p3943
tp3944
aasbasbasbasbasbasbasbag68
(g84
g70
NtRp3945
(dp3946
g73
(dp3947
sg82
g3702
sg75
(lp3948
g68
(g89
g70
NtRp3949
(dp3950
g73
(dp3951
sg82
g3945
sg75
(lp3952
g68
(g69
g70
NtRp3953
(dp3954
g73
(dp3955
g81
I2
ssg82
g3949
sg75
(lp3956
g68
(g77
g70
NtRp3957
(dp3958
g73
(dp3959
g81
I1
ssg82
Nsg75
(lp3960
g68
(g84
g70
NtRp3961
(dp3962
g73
(dp3963
sg82
g3957
sg75
(lp3964
g68
(g89
g70
NtRp3965
(dp3966
g73
(dp3967
sg82
g3961
sg75
(lp3968
g68
(g69
g70
NtRp3969
(dp3970
g73
(dp3971
g81
I1
ssg82
g3965
sg75
(lp3972
g3588
(S's\r\x00\x00\x00Documentation'
tRp3973
asbasbasbag68
(g84
g70
NtRp3974
(dp3975
g73
(dp3976
sg82
g3957
sg75
(lp3977
g68
(g89
g70
NtRp3978
(dp3979
g73
(dp3980
sg82
g3974
sg75
(lp3981
g68
(g69
g70
NtRp3982
(dp3983
g73
(dp3984
g81
I1
ssg82
g3978
sg75
(lp3985
I00
asbasbasbag68
(g84
g70
NtRp3986
(dp3987
g73
(dp3988
sg82
g3957
sg75
(lp3989
g68
(g89
g70
NtRp3990
(dp3991
g73
(dp3992
sg82
g3986
sg75
(lp3993
g68
(g69
g70
NtRp3994
(dp3995
g73
(dp3996
g81
I1
ssg82
g3990
sg75
(lp3997
S'http://www.web2py.com/book'
p3998
asbasbasbag68
(g84
g70
NtRp3999
(dp4000
g73
(dp4001
sg82
g3957
sg75
(lp4002
g68
(g89
g70
NtRp4003
(dp4004
g73
(dp4005
sg82
g3999
sg75
(lp4006
g68
(g69
g70
NtRp4007
(dp4008
g73
(dp4009
g81
I1
ssg82
g4003
sg75
(lp4010
(lp4011
(g3588
(S's\x07\x00\x00\x00Preface'
tRp4012
I00
S'http://www.web2py.com/book/default/chapter/00'
p4013
tp4014
a(g3588
(S's\x0c\x00\x00\x00Introduction'
tRp4015
I00
S'http://www.web2py.com/book/default/chapter/01'
p4016
tp4017
a(g3588
(S's\x06\x00\x00\x00Python'
tRp4018
I00
S'http://www.web2py.com/book/default/chapter/02'
p4019
tp4020
a(g3588
(S's\x08\x00\x00\x00Overview'
tRp4021
I00
S'http://www.web2py.com/book/default/chapter/03'
p4022
tp4023
a(g3588
(S's\x08\x00\x00\x00The Core'
tRp4024
I00
S'http://www.web2py.com/book/default/chapter/04'
p4025
tp4026
a(g3588
(S's\t\x00\x00\x00The Views'
tRp4027
I00
S'http://www.web2py.com/book/default/chapter/05'
p4028
tp4029
a(g3588
(S's\x08\x00\x00\x00Database'
tRp4030
I00
S'http://www.web2py.com/book/default/chapter/06'
p4031
tp4032
a(g3588
(S's\x14\x00\x00\x00Forms and Validators'
tRp4033
I00
S'http://www.web2py.com/book/default/chapter/07'
p4034
tp4035
a(g3588
(S's\r\x00\x00\x00Email and SMS'
tRp4036
I00
S'http://www.web2py.com/book/default/chapter/08'
p4037
tp4038
a(g3588
(S's\x0e\x00\x00\x00Access Control'
tRp4039
I00
S'http://www.web2py.com/book/default/chapter/09'
p4040
tp4041
a(g3588
(S's\x08\x00\x00\x00Services'
tRp4042
I00
S'http://www.web2py.com/book/default/chapter/10'
p4043
tp4044
a(g3588
(S's\x0c\x00\x00\x00Ajax Recipes'
tRp4045
I00
S'http://www.web2py.com/book/default/chapter/11'
p4046
tp4047
a(g3588
(S's\x16\x00\x00\x00Components and Plugins'
tRp4048
I00
S'http://www.web2py.com/book/default/chapter/12'
p4049
tp4050
a(g3588
(S's\x12\x00\x00\x00Deployment Recipes'
tRp4051
I00
S'http://www.web2py.com/book/default/chapter/13'
p4052
tp4053
a(g3588
(S's\r\x00\x00\x00Other Recipes'
tRp4054
I00
S'http://www.web2py.com/book/default/chapter/14'
p4055
tp4056
a(g3588
(S's\r\x00\x00\x00Buy this book'
tRp4057
I00
S'http://stores.lulu.com/web2py'
p4058
tp4059
aasbasbasbasbasbasbasbag68
(g84
g70
NtRp4060
(dp4061
g73
(dp4062
sg82
g3702
sg75
(lp4063
g68
(g89
g70
NtRp4064
(dp4065
g73
(dp4066
sg82
g4060
sg75
(lp4067
g68
(g69
g70
NtRp4068
(dp4069
g73
(dp4070
g81
I2
ssg82
g4064
sg75
(lp4071
g68
(g77
g70
NtRp4072
(dp4073
g73
(dp4074
g81
I1
ssg82
Nsg75
(lp4075
g68
(g84
g70
NtRp4076
(dp4077
g73
(dp4078
sg82
g4072
sg75
(lp4079
g68
(g89
g70
NtRp4080
(dp4081
g73
(dp4082
sg82
g4076
sg75
(lp4083
g68
(g69
g70
NtRp4084
(dp4085
g73
(dp4086
g81
I1
ssg82
g4080
sg75
(lp4087
g3588
(S's\t\x00\x00\x00Community'
tRp4088
asbasbasbag68
(g84
g70
NtRp4089
(dp4090
g73
(dp4091
sg82
g4072
sg75
(lp4092
g68
(g89
g70
NtRp4093
(dp4094
g73
(dp4095
sg82
g4089
sg75
(lp4096
g68
(g69
g70
NtRp4097
(dp4098
g73
(dp4099
g81
I1
ssg82
g4093
sg75
(lp4100
I00
asbasbasbag68
(g84
g70
NtRp4101
(dp4102
g73
(dp4103
sg82
g4072
sg75
(lp4104
g68
(g89
g70
NtRp4105
(dp4106
g73
(dp4107
sg82
g4101
sg75
(lp4108
g68
(g69
g70
NtRp4109
(dp4110
g73
(dp4111
g81
I1
ssg82
g4105
sg75
(lp4112
Nasbasbasbag68
(g84
g70
NtRp4113
(dp4114
g73
(dp4115
sg82
g4072
sg75
(lp4116
g68
(g89
g70
NtRp4117
(dp4118
g73
(dp4119
sg82
g4113
sg75
(lp4120
g68
(g69
g70
NtRp4121
(dp4122
g73
(dp4123
g81
I1
ssg82
g4117
sg75
(lp4124
(lp4125
(g3588
(S's\x06\x00\x00\x00Groups'
tRp4126
I00
S'http://www.web2py.com/examples/default/usergroups'
p4127
tp4128
a(g3588
(S's\x07\x00\x00\x00Twitter'
tRp4129
I00
S'http://twitter.com/web2py'
p4130
tp4131
a(g3588
(S's\t\x00\x00\x00Live Chat'
tRp4132
I00
S'http://webchat.freenode.net/?channels=web2py'
p4133
tp4134
aasbasbasbasbasbasbasbag68
(g84
g70
NtRp4135
(dp4136
g73
(dp4137
sg82
g3702
sg75
(lp4138
g68
(g89
g70
NtRp4139
(dp4140
g73
(dp4141
sg82
g4135
sg75
(lp4142
g68
(g69
g70
NtRp4143
(dp4144
g73
(dp4145
g81
I2
ssg82
g4139
sg75
(lp4146
g68
(g77
g70
NtRp4147
(dp4148
g73
(dp4149
g81
I1
ssg82
Nsg75
(lp4150
g68
(g84
g70
NtRp4151
(dp4152
g73
(dp4153
sg82
g4147
sg75
(lp4154
g68
(g89
g70
NtRp4155
(dp4156
g73
(dp4157
sg82
g4151
sg75
(lp4158
g68
(g69
g70
NtRp4159
(dp4160
g73
(dp4161
g81
I1
ssg82
g4155
sg75
(lp4162
g3588
(S's\x07\x00\x00\x00Plugins'
tRp4163
asbasbasbag68
(g84
g70
NtRp4164
(dp4165
g73
(dp4166
sg82
g4147
sg75
(lp4167
g68
(g89
g70
NtRp4168
(dp4169
g73
(dp4170
sg82
g4164
sg75
(lp4171
g68
(g69
g70
NtRp4172
(dp4173
g73
(dp4174
g81
I1
ssg82
g4168
sg75
(lp4175
I00
asbasbasbag68
(g84
g70
NtRp4176
(dp4177
g73
(dp4178
sg82
g4147
sg75
(lp4179
g68
(g89
g70
NtRp4180
(dp4181
g73
(dp4182
sg82
g4176
sg75
(lp4183
g68
(g69
g70
NtRp4184
(dp4185
g73
(dp4186
g81
I1
ssg82
g4180
sg75
(lp4187
Nasbasbasbag68
(g84
g70
NtRp4188
(dp4189
g73
(dp4190
sg82
g4147
sg75
(lp4191
g68
(g89
g70
NtRp4192
(dp4193
g73
(dp4194
sg82
g4188
sg75
(lp4195
g68
(g69
g70
NtRp4196
(dp4197
g73
(dp4198
g81
I1
ssg82
g4192
sg75
(lp4199
(lp4200
(S'plugin_wiki'
p4201
I00
S'http://web2py.com/examples/default/download'
p4202
tp4203
a(g3588
(S's\r\x00\x00\x00Other Plugins'
tRp4204
I00
g3934
tp4205
a(g3588
(S's\x0e\x00\x00\x00Layout Plugins'
tRp4206
I00
g3937
tp4207
aasbasbasbasbasbasbasbasbasbasbasbasbasbasbasbasbasbasbasbag68
(g84
g70
NtRp4208
(dp4209
g73
(dp4210
sg82
g3109
sg75
(lp4211
g68
(g89
g70
NtRp4212
(dp4213
g73
(dp4214
g93
g94
ssg82
g4208
sg75
(lp4215
S'meta'
p4216
asbag68
(g89
g70
NtRp4217
(dp4218
g73
(dp4219
g100
g101
ssg82
g4208
sg75
(lp4220
S':'
asbag68
(g89
g70
NtRp4221
(dp4222
g73
(dp4223
sg82
g4208
sg75
(lp4224
g68
(g69
g70
NtRp4225
(dp4226
g73
(dp4227
g81
I5
ssg82
g4221
sg75
(lp4228
g68
(g77
g70
NtRp4229
(dp4230
g73
(dp4231
g81
I4
ssg82
Nsg75
(lp4232
g68
(g84
g70
NtRp4233
(dp4234
g73
(dp4235
sg82
g4229
sg75
(lp4236
g68
(g89
g70
NtRp4237
(dp4238
g73
(dp4239
g93
g94
ssg82
g4233
sg75
(lp4240
S'author'
p4241
asbag68
(g89
g70
NtRp4242
(dp4243
g73
(dp4244
g100
g101
ssg82
g4233
sg75
(lp4245
S':'
asbag68
(g89
g70
NtRp4246
(dp4247
g73
(dp4248
sg82
g4233
sg75
(lp4249
g68
(g69
g70
NtRp4250
(dp4251
g73
(dp4252
g81
I4
ssg82
g4246
sg75
(lp4253
S'Your Name <you@example.com>'
p4254
asbasbasbag68
(g84
g70
NtRp4255
(dp4256
g73
(dp4257
sg82
g4229
sg75
(lp4258
g68
(g89
g70
NtRp4259
(dp4260
g73
(dp4261
g93
g94
ssg82
g4255
sg75
(lp4262
S'description'
p4263
asbag68
(g89
g70
NtRp4264
(dp4265
g73
(dp4266
g100
g101
ssg82
g4255
sg75
(lp4267
S':'
asbag68
(g89
g70
NtRp4268
(dp4269
g73
(dp4270
sg82
g4255
sg75
(lp4271
g68
(g69
g70
NtRp4272
(dp4273
g73
(dp4274
g81
I4
ssg82
g4268
sg75
(lp4275
S'a cool new app'
p4276
asbasbasbag68
(g84
g70
NtRp4277
(dp4278
g73
(dp4279
sg82
g4229
sg75
(lp4280
g68
(g89
g70
NtRp4281
(dp4282
g73
(dp4283
g93
g94
ssg82
g4277
sg75
(lp4284
S'generator'
p4285
asbag68
(g89
g70
NtRp4286
(dp4287
g73
(dp4288
g100
g101
ssg82
g4277
sg75
(lp4289
S':'
asbag68
(g89
g70
NtRp4290
(dp4291
g73
(dp4292
sg82
g4277
sg75
(lp4293
g68
(g69
g70
NtRp4294
(dp4295
g73
(dp4296
g81
I4
ssg82
g4290
sg75
(lp4297
S'Web2py Web Framework'
p4298
asbasbasbag68
(g84
g70
NtRp4299
(dp4300
g73
(dp4301
sg82
g4229
sg75
(lp4302
g68
(g89
g70
NtRp4303
(dp4304
g73
(dp4305
g93
g94
ssg82
g4299
sg75
(lp4306
S'keywords'
p4307
asbag68
(g89
g70
NtRp4308
(dp4309
g73
(dp4310
g100
g101
ssg82
g4299
sg75
(lp4311
S':'
asbag68
(g89
g70
NtRp4312
(dp4313
g73
(dp4314
sg82
g4299
sg75
(lp4315
g68
(g69
g70
NtRp4316
(dp4317
g73
(dp4318
g81
I4
ssg82
g4312
sg75
(lp4319
S'web2py, python, framework'
p4320
asbasbasbasbasbasbasbag68
(g84
g70
NtRp4321
(dp4322
g73
(dp4323
sg82
g3109
sg75
(lp4324
g68
(g89
g70
NtRp4325
(dp4326
g73
(dp4327
g93
g94
ssg82
g4321
sg75
(lp4328
S'models_to_run'
p4329
asbag68
(g89
g70
NtRp4330
(dp4331
g73
(dp4332
g100
g101
ssg82
g4321
sg75
(lp4333
S':'
asbag68
(g89
g70
NtRp4334
(dp4335
g73
(dp4336
sg82
g4321
sg75
(lp4337
g68
(g69
g70
NtRp4338
(dp4339
g73
(dp4340
g81
I5
ssg82
g4334
sg75
(lp4341
g68
(g77
g70
NtRp4342
(dp4343
g73
(dp4344
g81
I4
ssg82
Nsg75
(lp4345
g68
(g84
g70
NtRp4346
(dp4347
g73
(dp4348
sg82
g4342
sg75
(lp4349
g68
(g89
g70
NtRp4350
(dp4351
g73
(dp4352
sg82
g4346
sg75
(lp4353
g68
(g69
g70
NtRp4354
(dp4355
g73
(dp4356
g81
I4
ssg82
g4350
sg75
(lp4357
S'^\\w+\\.py$'
p4358
asbasbasbag68
(g84
g70
NtRp4359
(dp4360
g73
(dp4361
sg82
g4342
sg75
(lp4362
g68
(g89
g70
NtRp4363
(dp4364
g73
(dp4365
sg82
g4359
sg75
(lp4366
g68
(g69
g70
NtRp4367
(dp4368
g73
(dp4369
g81
I4
ssg82
g4363
sg75
(lp4370
S'^default/\\w+\\.py$'
p4371
asbasbasbag68
(g84
g70
NtRp4372
(dp4373
g73
(dp4374
sg82
g4342
sg75
(lp4375
g68
(g89
g70
NtRp4376
(dp4377
g73
(dp4378
sg82
g4372
sg75
(lp4379
g68
(g69
g70
NtRp4380
(dp4381
g73
(dp4382
g81
I4
ssg82
g4376
sg75
(lp4383
S'^default/index/\\w+\\.py$'
p4384
asbasbasbasbasbasbasbag68
(g84
g70
NtRp4385
(dp4386
g73
(dp4387
sg82
g3109
sg75
(lp4388
g68
(g89
g70
NtRp4389
(dp4390
g73
(dp4391
g93
g94
ssg82
g4385
sg75
(lp4392
S'postprocessing'
p4393
asbag68
(g89
g70
NtRp4394
(dp4395
g73
(dp4396
g100
g101
ssg82
g4385
sg75
(lp4397
S':'
asbag68
(g89
g70
NtRp4398
(dp4399
g73
(dp4400
sg82
g4385
sg75
(lp4401
g68
(g69
g70
NtRp4402
(dp4403
g73
(dp4404
g81
I5
ssg82
g4398
sg75
(lp4405
g68
(g77
g70
NtRp4406
(dp4407
g73
(dp4408
g81
I4
ssg82
Nsg75
(lp4409
sbasbasbasbag68
(g84
g70
NtRp4410
(dp4411
g73
(dp4412
sg82
g3109
sg75
(lp4413
g68
(g89
g70
NtRp4414
(dp4415
g73
(dp4416
g93
g94
ssg82
g4410
sg75
(lp4417
S'session_filename'
p4418
asbag68
(g89
g70
NtRp4419
(dp4420
g73
(dp4421
g100
g101
ssg82
g4410
sg75
(lp4422
S':'
asbag68
(g89
g70
NtRp4423
(dp4424
g73
(dp4425
sg82
g4410
sg75
(lp4426
g68
(g69
g70
NtRp4427
(dp4428
g73
(dp4429
g81
I5
ssg82
g4423
sg75
(lp4430
S'/Users/Karl/code/web2py/applications/newsFeed/sessions/127.0.0.1-6b30d50f-fe62-465b-914e-54e27b8fb1fa'
p4431
asbasbasbag68
(g84
g70
NtRp4432
(dp4433
g73
(dp4434
sg82
g3109
sg75
(lp4435
g68
(g89
g70
NtRp4436
(dp4437
g73
(dp4438
g93
g94
ssg82
g4432
sg75
(lp4439
S'session_id'
p4440
asbag68
(g89
g70
NtRp4441
(dp4442
g73
(dp4443
g100
g101
ssg82
g4432
sg75
(lp4444
S':'
asbag68
(g89
g70
NtRp4445
(dp4446
g73
(dp4447
sg82
g4432
sg75
(lp4448
g68
(g69
g70
NtRp4449
(dp4450
g73
(dp4451
g81
I5
ssg82
g4445
sg75
(lp4452
g3179
asbasbasbag68
(g84
g70
NtRp4453
(dp4454
g73
(dp4455
sg82
g3109
sg75
(lp4456
g68
(g89
g70
NtRp4457
(dp4458
g73
(dp4459
g93
g94
ssg82
g4453
sg75
(lp4460
S'session_id_name'
p4461
asbag68
(g89
g70
NtRp4462
(dp4463
g73
(dp4464
g100
g101
ssg82
g4453
sg75
(lp4465
S':'
asbag68
(g89
g70
NtRp4466
(dp4467
g73
(dp4468
sg82
g4453
sg75
(lp4469
g68
(g69
g70
NtRp4470
(dp4471
g73
(dp4472
g81
I5
ssg82
g4466
sg75
(lp4473
g3166
asbasbasbag68
(g84
g70
NtRp4474
(dp4475
g73
(dp4476
sg82
g3109
sg75
(lp4477
g68
(g89
g70
NtRp4478
(dp4479
g73
(dp4480
g93
g94
ssg82
g4474
sg75
(lp4481
S'session_new'
p4482
asbag68
(g89
g70
NtRp4483
(dp4484
g73
(dp4485
g100
g101
ssg82
g4474
sg75
(lp4486
S':'
asbag68
(g89
g70
NtRp4487
(dp4488
g73
(dp4489
sg82
g4474
sg75
(lp4490
g68
(g69
g70
NtRp4491
(dp4492
g73
(dp4493
g81
I5
ssg82
g4487
sg75
(lp4494
g1690
asbasbasbag68
(g84
g70
NtRp4495
(dp4496
g73
(dp4497
sg82
g3109
sg75
(lp4498
g68
(g89
g70
NtRp4499
(dp4500
g73
(dp4501
g93
g94
ssg82
g4495
sg75
(lp4502
S'status'
p4503
asbag68
(g89
g70
NtRp4504
(dp4505
g73
(dp4506
g100
g101
ssg82
g4495
sg75
(lp4507
S':'
asbag68
(g89
g70
NtRp4508
(dp4509
g73
(dp4510
sg82
g4495
sg75
(lp4511
g68
(g69
g70
NtRp4512
(dp4513
g73
(dp4514
g81
I5
ssg82
g4508
sg75
(lp4515
S'200'
p4516
asbasbasbag68
(g84
g70
NtRp4517
(dp4518
g73
(dp4519
sg82
g3109
sg75
(lp4520
g68
(g89
g70
NtRp4521
(dp4522
g73
(dp4523
g93
g94
ssg82
g4517
sg75
(lp4524
S'subtitle'
p4525
asbag68
(g89
g70
NtRp4526
(dp4527
g73
(dp4528
g100
g101
ssg82
g4517
sg75
(lp4529
S':'
asbag68
(g89
g70
NtRp4530
(dp4531
g73
(dp4532
sg82
g4517
sg75
(lp4533
g68
(g69
g70
NtRp4534
(dp4535
g73
(dp4536
g81
I5
ssg82
g4530
sg75
(lp4537
g3588
(S's\r\x00\x00\x00customize me!'
tRp4538
asbasbasbag68
(g84
g70
NtRp4539
(dp4540
g73
(dp4541
sg82
g3109
sg75
(lp4542
g68
(g89
g70
NtRp4543
(dp4544
g73
(dp4545
g93
g94
ssg82
g4539
sg75
(lp4546
S'title'
p4547
asbag68
(g89
g70
NtRp4548
(dp4549
g73
(dp4550
g100
g101
ssg82
g4539
sg75
(lp4551
S':'
asbag68
(g89
g70
NtRp4552
(dp4553
g73
(dp4554
sg82
g4539
sg75
(lp4555
g68
(g69
g70
NtRp4556
(dp4557
g73
(dp4558
g81
I5
ssg82
g4552
sg75
(lp4559
S'Newsfeed'
p4560
asbasbasbag68
(g84
g70
NtRp4561
(dp4562
g73
(dp4563
sg82
g3109
sg75
(lp4564
g68
(g89
g70
NtRp4565
(dp4566
g73
(dp4567
g93
g94
ssg82
g4561
sg75
(lp4568
S'view'
p4569
asbag68
(g89
g70
NtRp4570
(dp4571
g73
(dp4572
g100
g101
ssg82
g4561
sg75
(lp4573
S':'
asbag68
(g89
g70
NtRp4574
(dp4575
g73
(dp4576
sg82
g4561
sg75
(lp4577
g68
(g69
g70
NtRp4578
(dp4579
g73
(dp4580
g81
I5
ssg82
g4574
sg75
(lp4581
S'default/index.html'
p4582
asbasbasbasbasbsS'locals'
p4583
(dp4584
g4
S"'/Users/Karl/code/web2py/applications/newsFeed/controllers/default.py'"
p4585
sg6
S"'def index():\\n    images = db().select(db.image.A...uest, db)\\nresponse._vars=response._caller(index)\\n'"
p4586
sssS'traceback'
p4587
S'Traceback (most recent call last):\n  File "/Users/Karl/code/web2py/gluon/restricted.py", line 208, in restricted\n    ccode = compile2(code,layer)\n  File "/Users/Karl/code/web2py/gluon/restricted.py", line 193, in compile2\n    return compile(code.rstrip().replace(\'\\r\\n\',\'\\n\')+\'\\n\', layer, \'exec\')\n  File "/Users/Karl/code/web2py/applications/newsFeed/controllers/default.py", line 2\n    images = db().select(db.image.ALL, orderby=db.image.title) return dict(images=images)\n                                                                    ^\nSyntaxError: invalid syntax\n'
p4588
s.